

Microchip MPLAB XC8 Assembler V2.45 build 20230818022343 
                                                                                               Tue Oct 24 16:22:25 2023

Microchip MPLAB XC8 C Compiler v2.45 (Free license) build 20230818022343 Og1 
     1                           	processor	18F4550
     2                           	fnconf	rparam,??,?,0
     3                           	pagewidth 120
     4                           	opt	flic
     5                           	psect	smallconst,global,reloc=2,class=SMALLCONST,delta=1,noexec
     6                           	psect	cinit,global,reloc=2,class=CODE,delta=1
     7                           	psect	bssBANK0,global,class=BANK0,space=1,delta=1,lowdata,noexec
     8                           	psect	bssBANK1,global,class=BANK1,space=1,delta=1,lowdata,noexec
     9                           	psect	cstackBANK1,global,class=BANK1,space=1,delta=1,lowdata,noexec
    10                           	psect	cstackBANK0,global,class=BANK0,space=1,delta=1,lowdata,noexec
    11                           	psect	cstackCOMRAM,global,class=COMRAM,space=1,delta=1,lowdata,noexec
    12                           	psect	text0,global,reloc=2,class=CODE,delta=1
    13                           	psect	text1,global,reloc=2,class=CODE,delta=1,group=3
    14                           	psect	text2,global,reloc=2,class=CODE,delta=1,group=3
    15                           	psect	text3,global,reloc=2,class=CODE,delta=1,group=3
    16                           	psect	text4,global,reloc=2,class=CODE,delta=1,group=3
    17                           	psect	text5,global,reloc=2,class=CODE,delta=1,group=2
    18                           	psect	text6,global,reloc=2,class=CODE,delta=1,group=3
    19                           	psect	text7,global,reloc=2,class=CODE,delta=1
    20                           	psect	text8,global,reloc=2,class=CODE,delta=1,group=3
    21                           	psect	text9,global,reloc=2,class=CODE,delta=1,group=1
    22                           	psect	text10,global,reloc=2,class=CODE,delta=1,group=1
    23                           	psect	text11,global,reloc=2,class=CODE,delta=1,group=1
    24                           	psect	text12,global,reloc=2,class=CODE,delta=1,group=2
    25                           	psect	text13,global,reloc=2,class=CODE,delta=1,group=1
    26                           	psect	text14,global,reloc=2,class=CODE,delta=1,group=3
    27                           	psect	text15,global,reloc=2,class=CODE,delta=1,group=3
    28                           	psect	text16,global,reloc=2,class=CODE,delta=1,group=3
    29                           	psect	text17,global,reloc=2,class=CODE,delta=1,group=3
    30                           	psect	text18,global,reloc=2,class=CODE,delta=1,group=3
    31                           	psect	text19,global,reloc=2,class=CODE,delta=1,group=2
    32                           	psect	text20,global,reloc=2,class=CODE,delta=1,group=2
    33                           	psect	text21,global,reloc=2,class=CODE,delta=1,group=2
    34                           	psect	text22,global,reloc=2,class=CODE,delta=1,group=2
    35                           	psect	text23,global,reloc=2,class=CODE,delta=1,group=2
    36                           	psect	text24,global,reloc=2,class=CODE,delta=1,group=2
    37                           	psect	text25,global,reloc=2,class=CODE,delta=1,group=2
    38                           	psect	text26,global,reloc=2,class=CODE,delta=1,group=2
    39                           	psect	text27,global,reloc=2,class=CODE,delta=1,group=1
    40                           	psect	text28,global,reloc=2,class=CODE,delta=1,group=1
    41                           	psect	text29,global,reloc=2,class=CODE,delta=1,group=3
    42                           	psect	text30,global,reloc=2,class=CODE,delta=1,group=3
    43                           	psect	text31,global,reloc=2,class=CODE,delta=1,group=3
    44                           	psect	text32,global,reloc=2,class=CODE,delta=1,group=3
    45                           	psect	text33,global,reloc=2,class=CODE,delta=1,group=2
    46                           	psect	text34,global,reloc=2,class=CODE,delta=1,group=2
    47                           	psect	text35,global,reloc=2,class=CODE,delta=1
    48                           	psect	text36,global,reloc=2,class=CODE,delta=1
    49                           	psect	text37,global,reloc=2,class=CODE,delta=1
    50                           	psect	text38,global,reloc=2,class=CODE,delta=1
    51                           	psect	text39,global,reloc=2,class=CODE,delta=1
    52                           	psect	text40,global,reloc=2,class=CODE,delta=1
    53                           	psect	intsave_regs,global,class=BIGRAM,space=1,delta=1,noexec
    54                           	psect	rparam,global,class=COMRAM,space=1,delta=1,noexec
    55   000000                     
    56                           ; Generated 23/03/2023 GMT
    57                           ; 
    58                           ; Copyright © 2023, Microchip Technology Inc. and its subsidiaries ("Microchip")
    59                           ; All rights reserved.
    60                           ; 
    61                           ; This software is developed by Microchip Technology Inc. and its subsidiaries ("Microch
      +                          ip").
    62                           ; 
    63                           ; Redistribution and use in source and binary forms, with or without modification, are
    64                           ; permitted provided that the following conditions are met:
    65                           ; 
    66                           ;     1. Redistributions of source code must retain the above copyright notice, this lis
      +                          t of
    67                           ;        conditions and the following disclaimer.
    68                           ; 
    69                           ;     2. Redistributions in binary form must reproduce the above copyright notice, this 
      +                          list
    70                           ;        of conditions and the following disclaimer in the documentation and/or other
    71                           ;        materials provided with the distribution. Publication is not required when
    72                           ;        this file is used in an embedded application.
    73                           ; 
    74                           ;     3. Microchip's name may not be used to endorse or promote products derived from th
      +                          is
    75                           ;        software without specific prior written permission.
    76                           ; 
    77                           ; THIS SOFTWARE IS PROVIDED BY MICROCHIP "AS IS" AND ANY EXPRESS OR IMPLIED WARRANTIES,
    78                           ; INCLUDING, BUT NOT LIMITED TO, THE IMPLIED WARRANTIES OF MERCHANTABILITY AND FITNESS F
      +                          OR
    79                           ; PURPOSE ARE DISCLAIMED.  IN NO EVENT SHALL MICROCHIP BE LIABLE FOR ANY DIRECT, INDIREC
      +                          T,
    80                           ; INCIDENTAL, SPECIAL, EXEMPLARY, OR CONSEQUENTIAL DAMAGES (INCLUDING BUT NOT LIMITED TO
    81                           ; PROCUREMENT OF SUBSTITUTE GOODS OR SERVICES; LOSS OF USE, DATA OR PROFITS; OR BUSINESS
    82                           ; INTERRUPTION) HOWSOEVER CAUSED AND ON ANY THEORY OF LIABILITY, WHETHER IN CONTRACT, ST
      +                          RICT
    83                           ; LIABILITY, OR TORT (INCLUDING NEGLIGENCE OR OTHERWISE) ARISING IN ANY WAY OUT OF THE U
      +                          SE OF
    84                           ; THIS SOFTWARE, EVEN IF ADVISED OF THE POSSIBILITY OF SUCH DAMAGE.
    85                           ; 
    86                           ; 
    87                           ; Code-generator required, PIC18F4550 Definitions
    88                           ; 
    89                           ; SFR Addresses
    90   000000                     
    91                           	psect	smallconst
    92   000800                     __psmallconst:
    93                           	callstack 0
    94   000800  00                 	db	0
    95   000801  6C3C               	dw	27708
    96   000803  3636               	dw	13878
    97   000805                     __end_of_S4:
    98                           	callstack 0
    99   000805  07CF               	dw	1999
   100   000807  B950               	dw	47440
   101   000809                     __end_of_S3:
   102                           	callstack 0
   103   000809  8884               	dw	34948
   104   00080B  3C08               	dw	15368
   105   00080D                     __end_of_S2:
   106                           	callstack 0
   107   00080D  AAAB               	dw	43691
   108   00080F  BE2A               	dw	48682
   109   000811                     __end_of_S1:
   110                           	callstack 0
   111   000811  85A3               	dw	34211
   112   000813  3288               	dw	12936
   113   000815                     __end_of_pio2_1t:
   114                           	callstack 0
   115   000815  0FDA               	dw	4058
   116   000817  3FC9               	dw	16329
   117   000819                     __end_of_pio2_1:
   118                           	callstack 0
   119   000819  F983               	dw	63875
   120   00081B  3F22               	dw	16162
   121   00081D                     __end_of_invpio2:
   122                           	callstack 0
   123   00081D  0000               	dw	0
   124   00081F  3F00               	dw	16128
   125   000821                     __end_of_half:
   126                           	callstack 0
   127   000821  9A17               	dw	39447
   128   000823  37CC               	dw	14284
   129   000825                     __end_of_C3:
   130                           	callstack 0
   131   000825  043F               	dw	1087
   132   000827  BAB6               	dw	47798
   133   000829                     __end_of_C2:
   134                           	callstack 0
   135   000829  AA9F               	dw	43679
   136   00082B  3D2A               	dw	15658
   137   00082D                     __end_of_C1:
   138                           	callstack 0
   139   00082D  0000               	dw	0
   140   00082F  BF00               	dw	48896
   141   000831                     __end_of_C0:
   142                           	callstack 0
   143   000831  0FDB               	dw	4059
   144   000833  40C9               	dw	16585
   145   000835                     __end_of_c4pio2:
   146                           	callstack 0
   147   000835  CBE4               	dw	52196
   148   000837  4096               	dw	16534
   149   000839                     __end_of_c3pio2:
   150                           	callstack 0
   151   000839  0FDB               	dw	4059
   152   00083B  4049               	dw	16457
   153   00083D                     __end_of_c2pio2:
   154                           	callstack 0
   155   00083D  0FDB               	dw	4059
   156   00083F  3FC9               	dw	16329
   157   000841                     __end_of_c1pio2:
   158                           	callstack 0
   159   000000                     _TRISC	set	3988
   160   000000                     _RC4	set	31764
   161   000000                     _RC7	set	31767
   162   000000                     _RC6	set	31766
   163   000000                     _RC5	set	31765
   164   000000                     _RB6	set	31758
   165   000000                     _TRISB6	set	31902
   166   000000                     _RD7	set	31775
   167   000000                     _RD6	set	31774
   168   000000                     _RD2	set	31770
   169   000000                     _TRISD	set	3989
   170   000000                     _CCP1CON	set	4029
   171   000000                     _RB7	set	31759
   172   000000                     _RD3	set	31771
   173   000000                     _CCPR1	set	4030
   174   000000                     _T1CON	set	4045
   175   000000                     _CCP1IF	set	31986
   176   000000                     _TRISB7	set	31903
   177   000841                     STR_3:
   178   000841  50                 	db	80	;'P'
   179   000842  46                 	db	70	;'F'
   180   000843  5F                 	db	95	;'_'
   181   000844  63                 	db	99	;'c'
   182   000845  6F                 	db	111	;'o'
   183   000846  72                 	db	114	;'r'
   184   000847  72                 	db	114	;'r'
   185   000848  65                 	db	101	;'e'
   186   000849  63                 	db	99	;'c'
   187   00084A  74                 	db	116	;'t'
   188   00084B  69                 	db	105	;'i'
   189   00084C  6F                 	db	111	;'o'
   190   00084D  6E                 	db	110	;'n'
   191   00084E  20                 	db	32
   192   00084F  73                 	db	115	;'s'
   193   000850  74                 	db	116	;'t'
   194   000851  61                 	db	97	;'a'
   195   000852  72                 	db	114	;'r'
   196   000853  74                 	db	116	;'t'
   197   000854  65                 	db	101	;'e'
   198   000855  64                 	db	100	;'d'
   199   000856  00                 	db	0
   200   000857                     STR_1:
   201   000857  41                 	db	65	;'A'
   202   000858  4E                 	db	78	;'N'
   203   000859  47                 	db	71	;'G'
   204   00085A  4C                 	db	76	;'L'
   205   00085B  45                 	db	69	;'E'
   206   00085C  3D                 	db	61	;'='
   207   00085D  00                 	db	0
   208   00085E                     STR_4:
   209   00085E  25                 	db	37
   210   00085F  30                 	db	48	;'0'
   211   000860  2E                 	db	46
   212   000861  32                 	db	50	;'2'
   213   000862  66                 	db	102	;'f'
   214   000863  00                 	db	0
   215   000864                     STR_6:
   216   000864  69                 	db	105	;'i'
   217   000865  6E                 	db	110	;'n'
   218   000866  66                 	db	102	;'f'
   219   000867  00                 	db	0
   220   000868                     STR_9:
   221   000868  6E                 	db	110	;'n'
   222   000869  61                 	db	97	;'a'
   223   00086A  6E                 	db	110	;'n'
   224   00086B  00                 	db	0
   225   00086C                     STR_2:
   226   00086C  50                 	db	80	;'P'
   227   00086D  46                 	db	70	;'F'
   228   00086E  3D                 	db	61	;'='
   229   00086F  00                 	db	0
   230   000870  25                 	db	37
   231   000871  64                 	db	100	;'d'
   232   000872  00                 	db	0
   233   000873  00                 	db	0	; dummy byte at the end
   234   000000                     
   235                           ; #config settings
   236                           
   237                           	psect	cinit
   238   004692                     __pcinit:
   239                           	callstack 0
   240   004692                     start_initialization:
   241                           	callstack 0
   242   004692                     __initialization:
   243                           	callstack 0
   244                           
   245                           ; Clear objects allocated to BANK1 (102 bytes)
   246   004692  EE01  F000         	lfsr	0,__pbssBANK1
   247   004696  0E66               	movlw	102
   248   004698                     clear_0:
   249   004698  6AEE               	clrf	postinc0,c
   250   00469A  06E8               	decf	wreg,f,c
   251   00469C  E1FD               	bnz	clear_0
   252                           
   253                           ; Clear objects allocated to BANK0 (1 bytes)
   254   00469E  0100               	movlb	0
   255   0046A0  6BFE               	clrf	__pbssBANK0& (0+255),b
   256   0046A2                     end_of_initialization:
   257                           	callstack 0
   258   0046A2                     __end_of__initialization:
   259                           	callstack 0
   260   0046A2  0E00               	movlw	low (__Lmediumconst shr (0+16))
   261   0046A4  6EF8               	movwf	tblptru,c
   262   0046A6  0100               	movlb	0
   263   0046A8  EF5B  F010         	goto	_main	;jump to C main() function
   264                           
   265                           	psect	bssBANK0
   266   0000FE                     __pbssBANK0:
   267                           	callstack 0
   268   0000FE                     _flags:
   269                           	callstack 0
   270   0000FE                     	ds	1
   271                           
   272                           	psect	bssBANK1
   273   000100                     __pbssBANK1:
   274                           	callstack 0
   275   000100                     floorf@F521:
   276                           	callstack 0
   277   000100                     	ds	4
   278   000104                     ___fpclassifyf@F465:
   279                           	callstack 0
   280   000104                     	ds	4
   281   000108                     fabsf@F465:
   282                           	callstack 0
   283   000108                     	ds	4
   284   00010C                     ___rem_pio2f@F526:
   285                           	callstack 0
   286   00010C                     	ds	4
   287   000110                     _width:
   288                           	callstack 0
   289   000110                     	ds	2
   290   000112                     _prec:
   291                           	callstack 0
   292   000112                     	ds	2
   293   000114                     _i:
   294                           	callstack 0
   295   000114                     	ds	2
   296   000116                     _dbuf:
   297                           	callstack 0
   298   000116                     	ds	80
   299                           
   300                           	psect	cstackBANK1
   301   000166                     __pcstackBANK1:
   302                           	callstack 0
   303   000166                     vfpfcnvrt@done:
   304                           	callstack 0
   305                           
   306                           ; 1 bytes @ 0x0
   307   000166                     	ds	1
   308   000167                     vfpfcnvrt@convarg:
   309                           	callstack 0
   310                           
   311                           ; 4 bytes @ 0x1
   312   000167                     	ds	4
   313   00016B                     vfpfcnvrt@c:
   314                           	callstack 0
   315                           
   316                           ; 1 bytes @ 0x5
   317   00016B                     	ds	1
   318   00016C                     vfpfcnvrt@cp:
   319                           	callstack 0
   320                           
   321                           ; 1 bytes @ 0x6
   322   00016C                     	ds	1
   323   00016D                     ?_vfprintf:
   324                           	callstack 0
   325   00016D                     vfprintf@fp:
   326                           	callstack 0
   327                           
   328                           ; 2 bytes @ 0x7
   329   00016D                     	ds	2
   330   00016F                     vfprintf@fmt:
   331                           	callstack 0
   332                           
   333                           ; 1 bytes @ 0x9
   334   00016F                     	ds	1
   335   000170                     vfprintf@ap:
   336                           	callstack 0
   337                           
   338                           ; 2 bytes @ 0xA
   339   000170                     	ds	2
   340   000172                     ?_sprintf:
   341                           	callstack 0
   342   000172                     sprintf@s:
   343                           	callstack 0
   344                           
   345                           ; 2 bytes @ 0xC
   346   000172                     	ds	2
   347   000174                     sprintf@fmt:
   348                           	callstack 0
   349                           
   350                           ; 1 bytes @ 0xE
   351   000174                     	ds	5
   352   000179                     sprintf@ap:
   353                           	callstack 0
   354                           
   355                           ; 2 bytes @ 0x13
   356   000179                     	ds	2
   357   00017B                     sprintf@f:
   358                           	callstack 0
   359                           
   360                           ; 12 bytes @ 0x15
   361   00017B                     	ds	12
   362   000187                     LCD_value_float@a:
   363                           	callstack 0
   364                           
   365                           ; 4 bytes @ 0x21
   366   000187                     	ds	4
   367   00018B                     LCD_value_float@r:
   368                           	callstack 0
   369                           
   370                           ; 10 bytes @ 0x25
   371   00018B                     	ds	10
   372   000195                     main@dt:
   373                           	callstack 0
   374                           
   375                           ; 4 bytes @ 0x2F
   376   000195                     	ds	4
   377   000199                     _main$1096:
   378                           	callstack 0
   379                           
   380                           ; 4 bytes @ 0x33
   381   000199                     	ds	4
   382   00019D                     main@pulseWidth:
   383                           	callstack 0
   384                           
   385                           ; 2 bytes @ 0x37
   386   00019D                     	ds	2
   387   00019F                     _main$1095:
   388                           	callstack 0
   389                           
   390                           ; 4 bytes @ 0x39
   391   00019F                     	ds	4
   392   0001A3                     main@i:
   393                           	callstack 0
   394                           
   395                           ; 2 bytes @ 0x3D
   396   0001A3                     	ds	2
   397   0001A5                     main@angle:
   398                           	callstack 0
   399                           
   400                           ; 4 bytes @ 0x3F
   401   0001A5                     	ds	4
   402   0001A9                     main@startTime:
   403                           	callstack 0
   404                           
   405                           ; 2 bytes @ 0x43
   406   0001A9                     	ds	2
   407   0001AB                     main@endTime:
   408                           	callstack 0
   409                           
   410                           ; 2 bytes @ 0x45
   411   0001AB                     	ds	2
   412                           
   413                           	psect	cstackBANK0
   414   000060                     __pcstackBANK0:
   415                           	callstack 0
   416   000060                     ___cosdf@r:
   417                           	callstack 0
   418   000060                     ___sindf@r:
   419                           	callstack 0
   420                           
   421                           ; 4 bytes @ 0x0
   422   000060                     	ds	4
   423   000064                     ___sindf@w:
   424                           	callstack 0
   425   000064                     ___cosdf$1098:
   426                           	callstack 0
   427                           
   428                           ; 4 bytes @ 0x4
   429   000064                     	ds	4
   430   000068                     ___cosdf$1099:
   431                           	callstack 0
   432   000068                     ___sindf$1102:
   433                           	callstack 0
   434                           
   435                           ; 4 bytes @ 0x8
   436   000068                     	ds	4
   437   00006C                     ___cosdf$1100:
   438                           	callstack 0
   439   00006C                     ___sindf$1103:
   440                           	callstack 0
   441                           
   442                           ; 4 bytes @ 0xC
   443   00006C                     	ds	4
   444   000070                     ___cosdf@w:
   445                           	callstack 0
   446   000070                     ___sindf$1104:
   447                           	callstack 0
   448                           
   449                           ; 4 bytes @ 0x10
   450   000070                     	ds	4
   451   000074                     ___cosdf@z:
   452                           	callstack 0
   453   000074                     ___sindf@s:
   454                           	callstack 0
   455                           
   456                           ; 4 bytes @ 0x14
   457   000074                     	ds	4
   458   000078                     ?___flneg:
   459                           	callstack 0
   460   000078                     ___flneg@f1:
   461                           	callstack 0
   462   000078                     ___sindf@z:
   463                           	callstack 0
   464                           
   465                           ; 4 bytes @ 0x18
   466   000078                     	ds	4
   467   00007C                     ?___rem_pio2f:
   468                           	callstack 0
   469   00007C                     ___rem_pio2f@x:
   470                           	callstack 0
   471                           
   472                           ; 4 bytes @ 0x1C
   473   00007C                     	ds	4
   474   000080                     ___rem_pio2f@y:
   475                           	callstack 0
   476                           
   477                           ; 1 bytes @ 0x20
   478   000080                     	ds	1
   479   000081                     ___rem_pio2f@ty:
   480                           	callstack 0
   481                           
   482                           ; 4 bytes @ 0x21
   483   000081                     	ds	4
   484   000085                     ___rem_pio2f$1101:
   485                           	callstack 0
   486                           
   487                           ; 4 bytes @ 0x25
   488   000085                     	ds	4
   489   000089                     ___rem_pio2f@sign:
   490                           	callstack 0
   491                           
   492                           ; 1 bytes @ 0x29
   493   000089                     	ds	1
   494   00008A                     ___rem_pio2f@ux:
   495                           	callstack 0
   496                           
   497                           ; 4 bytes @ 0x2A
   498   00008A                     	ds	4
   499   00008E                     ___rem_pio2f@fn:
   500                           	callstack 0
   501                           
   502                           ; 4 bytes @ 0x2E
   503   00008E                     	ds	4
   504   000092                     ___rem_pio2f@t:
   505                           	callstack 0
   506                           
   507                           ; 4 bytes @ 0x32
   508   000092                     	ds	4
   509   000096                     ___rem_pio2f@n:
   510                           	callstack 0
   511                           
   512                           ; 4 bytes @ 0x36
   513   000096                     	ds	4
   514   00009A                     ?_cosf:
   515                           	callstack 0
   516   00009A                     cosf@x:
   517                           	callstack 0
   518                           
   519                           ; 4 bytes @ 0x3A
   520   00009A                     	ds	4
   521   00009E                     _cosf$589:
   522                           	callstack 0
   523                           
   524                           ; 4 bytes @ 0x3E
   525   00009E                     	ds	4
   526   0000A2                     _cosf$590:
   527                           	callstack 0
   528                           
   529                           ; 4 bytes @ 0x42
   530   0000A2                     	ds	4
   531   0000A6                     cosf@n:
   532                           	callstack 0
   533                           
   534                           ; 1 bytes @ 0x46
   535   0000A6                     	ds	1
   536   0000A7                     _cosf$1097:
   537                           	callstack 0
   538                           
   539                           ; 4 bytes @ 0x47
   540   0000A7                     	ds	4
   541   0000AB                     cosf@sign:
   542                           	callstack 0
   543                           
   544                           ; 1 bytes @ 0x4B
   545   0000AB                     	ds	1
   546   0000AC                     cosf@y:
   547                           	callstack 0
   548                           
   549                           ; 4 bytes @ 0x4C
   550   0000AC                     	ds	4
   551   0000B0                     cosf@ix:
   552                           	callstack 0
   553                           
   554                           ; 4 bytes @ 0x50
   555   0000B0                     	ds	4
   556   0000B4                     ___flge@ff1:
   557                           	callstack 0
   558                           
   559                           ; 4 bytes @ 0x54
   560   0000B4                     	ds	4
   561   0000B8                     ___flge@ff2:
   562                           	callstack 0
   563                           
   564                           ; 4 bytes @ 0x58
   565   0000B8                     	ds	4
   566   0000BC                     ??___flge:
   567                           
   568                           ; 1 bytes @ 0x5C
   569   0000BC                     	ds	4
   570   0000C0                     efgtoa@fp:
   571                           	callstack 0
   572                           
   573                           ; 2 bytes @ 0x60
   574   0000C0                     	ds	2
   575   0000C2                     efgtoa@f:
   576                           	callstack 0
   577                           
   578                           ; 4 bytes @ 0x62
   579   0000C2                     	ds	4
   580   0000C6                     efgtoa@c:
   581                           	callstack 0
   582                           
   583                           ; 1 bytes @ 0x66
   584   0000C6                     	ds	1
   585   0000C7                     ??_efgtoa:
   586                           
   587                           ; 1 bytes @ 0x67
   588   0000C7                     	ds	2
   589   0000C9                     efgtoa@ne:
   590                           	callstack 0
   591                           
   592                           ; 2 bytes @ 0x69
   593   0000C9                     	ds	2
   594   0000CB                     efgtoa@p:
   595                           	callstack 0
   596                           
   597                           ; 2 bytes @ 0x6B
   598   0000CB                     	ds	2
   599   0000CD                     efgtoa@t:
   600                           	callstack 0
   601                           
   602                           ; 2 bytes @ 0x6D
   603   0000CD                     	ds	2
   604   0000CF                     _efgtoa$788:
   605                           	callstack 0
   606                           
   607                           ; 2 bytes @ 0x6F
   608   0000CF                     	ds	2
   609   0000D1                     efgtoa@pp:
   610                           	callstack 0
   611                           
   612                           ; 1 bytes @ 0x71
   613   0000D1                     	ds	1
   614   0000D2                     efgtoa@mode:
   615                           	callstack 0
   616                           
   617                           ; 1 bytes @ 0x72
   618   0000D2                     	ds	1
   619   0000D3                     efgtoa@nmode:
   620                           	callstack 0
   621                           
   622                           ; 1 bytes @ 0x73
   623   0000D3                     	ds	1
   624   0000D4                     efgtoa@d:
   625                           	callstack 0
   626                           
   627                           ; 2 bytes @ 0x74
   628   0000D4                     	ds	2
   629   0000D6                     efgtoa@m:
   630                           	callstack 0
   631                           
   632                           ; 2 bytes @ 0x76
   633   0000D6                     	ds	2
   634   0000D8                     efgtoa@e:
   635                           	callstack 0
   636                           
   637                           ; 2 bytes @ 0x78
   638   0000D8                     	ds	2
   639   0000DA                     efgtoa@ou:
   640                           	callstack 0
   641                           
   642                           ; 4 bytes @ 0x7A
   643   0000DA                     	ds	4
   644   0000DE                     efgtoa@w:
   645                           	callstack 0
   646                           
   647                           ; 2 bytes @ 0x7E
   648   0000DE                     	ds	2
   649   0000E0                     efgtoa@h:
   650                           	callstack 0
   651                           
   652                           ; 4 bytes @ 0x80
   653   0000E0                     	ds	4
   654   0000E4                     efgtoa@l:
   655                           	callstack 0
   656                           
   657                           ; 4 bytes @ 0x84
   658   0000E4                     	ds	4
   659   0000E8                     efgtoa@i:
   660                           	callstack 0
   661                           
   662                           ; 2 bytes @ 0x88
   663   0000E8                     	ds	2
   664   0000EA                     efgtoa@sign:
   665                           	callstack 0
   666                           
   667                           ; 1 bytes @ 0x8A
   668   0000EA                     	ds	1
   669   0000EB                     efgtoa@g:
   670                           	callstack 0
   671                           
   672                           ; 4 bytes @ 0x8B
   673   0000EB                     	ds	4
   674   0000EF                     efgtoa@n:
   675                           	callstack 0
   676                           
   677                           ; 2 bytes @ 0x8F
   678   0000EF                     	ds	2
   679   0000F1                     efgtoa@u:
   680                           	callstack 0
   681                           
   682                           ; 4 bytes @ 0x91
   683   0000F1                     	ds	4
   684   0000F5                     vfpfcnvrt@fp:
   685                           	callstack 0
   686                           
   687                           ; 2 bytes @ 0x95
   688   0000F5                     	ds	2
   689   0000F7                     vfpfcnvrt@fmt:
   690                           	callstack 0
   691                           
   692                           ; 1 bytes @ 0x97
   693   0000F7                     	ds	1
   694   0000F8                     vfpfcnvrt@ap:
   695                           	callstack 0
   696                           
   697                           ; 2 bytes @ 0x98
   698   0000F8                     	ds	2
   699   0000FA                     ??_vfpfcnvrt:
   700                           
   701                           ; 1 bytes @ 0x9A
   702   0000FA                     	ds	2
   703   0000FC                     ??_main:
   704                           
   705                           ; 1 bytes @ 0x9C
   706   0000FC                     	ds	2
   707                           
   708                           	psect	cstackCOMRAM
   709   000001                     __pcstackCOMRAM:
   710                           	callstack 0
   711   000001                     ??_LCD_Command:
   712   000001                     ??_LCD_Char:
   713   000001                     ?___fpclassifyf:
   714                           	callstack 0
   715   000001                     ?___wmul:
   716                           	callstack 0
   717   000001                     ?___awdiv:
   718                           	callstack 0
   719   000001                     ?___awmod:
   720                           	callstack 0
   721   000001                     ?_fabsf:
   722                           	callstack 0
   723   000001                     ?_labs:
   724                           	callstack 0
   725   000001                     ?___xxtofl:
   726                           	callstack 0
   727   000001                     ___wmul@multiplier:
   728                           	callstack 0
   729   000001                     ___awdiv@dividend:
   730                           	callstack 0
   731   000001                     ___awmod@dividend:
   732                           	callstack 0
   733   000001                     memcpy@d1:
   734                           	callstack 0
   735   000001                     fputc@c:
   736                           	callstack 0
   737   000001                     strcpy@dest:
   738                           	callstack 0
   739   000001                     ___fleq@ff1:
   740                           	callstack 0
   741   000001                     ___xxtofl@val:
   742                           	callstack 0
   743   000001                     fabsf@x:
   744                           	callstack 0
   745   000001                     ___fpclassifyf@x:
   746                           	callstack 0
   747   000001                     labs@a:
   748                           	callstack 0
   749                           
   750                           ; 4 bytes @ 0x0
   751   000001                     	ds	2
   752   000003                     LCD_Command@cmd:
   753                           	callstack 0
   754   000003                     LCD_Char@data:
   755                           	callstack 0
   756   000003                     strcpy@src:
   757                           	callstack 0
   758   000003                     ___wmul@multiplicand:
   759                           	callstack 0
   760   000003                     ___awdiv@divisor:
   761                           	callstack 0
   762   000003                     ___awmod@divisor:
   763                           	callstack 0
   764   000003                     memcpy@s1:
   765                           	callstack 0
   766   000003                     fputc@fp:
   767                           	callstack 0
   768                           
   769                           ; 2 bytes @ 0x2
   770   000003                     	ds	1
   771   000004                     ??_LCD_Init:
   772   000004                     ??_LCD_Clear:
   773   000004                     ??_strcpy:
   774   000004                     LCD_String@str:
   775                           	callstack 0
   776                           
   777                           ; 2 bytes @ 0x3
   778   000004                     	ds	1
   779   000005                     ??_fputc:
   780   000005                     ??___fpclassifyf:
   781   000005                     ??_labs:
   782   000005                     ??___xxtofl:
   783   000005                     ___awdiv@counter:
   784                           	callstack 0
   785   000005                     ___awmod@counter:
   786                           	callstack 0
   787   000005                     ___wmul@product:
   788                           	callstack 0
   789   000005                     memcpy@n:
   790                           	callstack 0
   791   000005                     strcpy@d:
   792                           	callstack 0
   793   000005                     ___fleq@ff2:
   794                           	callstack 0
   795   000005                     fabsf@u:
   796                           	callstack 0
   797                           
   798                           ; 4 bytes @ 0x4
   799   000005                     	ds	1
   800   000006                     ??_LCD_String:
   801   000006                     ___awdiv@sign:
   802                           	callstack 0
   803   000006                     ___awmod@sign:
   804                           	callstack 0
   805                           
   806                           ; 1 bytes @ 0x5
   807   000006                     	ds	1
   808   000007                     ?_abs:
   809                           	callstack 0
   810   000007                     ?_read_prec_or_width:
   811                           	callstack 0
   812   000007                     read_prec_or_width@fmt:
   813                           	callstack 0
   814   000007                     memcpy@tmp:
   815                           	callstack 0
   816   000007                     ___awdiv@quotient:
   817                           	callstack 0
   818   000007                     abs@a:
   819                           	callstack 0
   820                           
   821                           ; 2 bytes @ 0x6
   822   000007                     	ds	1
   823   000008                     LCD_String@i:
   824                           	callstack 0
   825   000008                     read_prec_or_width@ap:
   826                           	callstack 0
   827   000008                     memcpy@d:
   828                           	callstack 0
   829                           
   830                           ; 2 bytes @ 0x7
   831   000008                     	ds	1
   832   000009                     ??_abs:
   833   000009                     ??___fleq:
   834   000009                     ___xxtofl@sign:
   835                           	callstack 0
   836   000009                     ___fpclassifyf@e:
   837                           	callstack 0
   838                           
   839                           ; 2 bytes @ 0x8
   840   000009                     	ds	1
   841   00000A                     ??_read_prec_or_width:
   842   00000A                     ___xxtofl@exp:
   843                           	callstack 0
   844   00000A                     memcpy@s:
   845                           	callstack 0
   846   00000A                     fputs@s:
   847                           	callstack 0
   848                           
   849                           ; 2 bytes @ 0x9
   850   00000A                     	ds	1
   851   00000B                     ___xxtofl@arg:
   852                           	callstack 0
   853   00000B                     ___fpclassifyf@u:
   854                           	callstack 0
   855                           
   856                           ; 4 bytes @ 0xA
   857   00000B                     	ds	1
   858   00000C                     read_prec_or_width@c:
   859                           	callstack 0
   860   00000C                     fputs@fp:
   861                           	callstack 0
   862                           
   863                           ; 2 bytes @ 0xB
   864   00000C                     	ds	1
   865   00000D                     read_prec_or_width@n:
   866                           	callstack 0
   867                           
   868                           ; 2 bytes @ 0xC
   869   00000D                     	ds	1
   870   00000E                     fputs@c:
   871                           	callstack 0
   872                           
   873                           ; 1 bytes @ 0xD
   874   00000E                     	ds	1
   875   00000F                     ?___fldiv:
   876                           	callstack 0
   877   00000F                     fputs@i:
   878                           	callstack 0
   879   00000F                     ___fldiv@b:
   880                           	callstack 0
   881                           
   882                           ; 4 bytes @ 0xE
   883   00000F                     	ds	2
   884   000011                     pad@fp:
   885                           	callstack 0
   886                           
   887                           ; 2 bytes @ 0x10
   888   000011                     	ds	2
   889   000013                     pad@buf:
   890                           	callstack 0
   891   000013                     ___fldiv@a:
   892                           	callstack 0
   893                           
   894                           ; 4 bytes @ 0x12
   895   000013                     	ds	2
   896   000015                     pad@p:
   897                           	callstack 0
   898                           
   899                           ; 2 bytes @ 0x14
   900   000015                     	ds	2
   901   000017                     ??___fldiv:
   902   000017                     ??_pad:
   903                           
   904                           ; 1 bytes @ 0x16
   905   000017                     	ds	1
   906   000018                     pad@i:
   907                           	callstack 0
   908                           
   909                           ; 2 bytes @ 0x17
   910   000018                     	ds	2
   911   00001A                     dtoa@fp:
   912                           	callstack 0
   913                           
   914                           ; 2 bytes @ 0x19
   915   00001A                     	ds	1
   916   00001B                     ___fldiv@rem:
   917                           	callstack 0
   918                           
   919                           ; 4 bytes @ 0x1A
   920   00001B                     	ds	1
   921   00001C                     dtoa@d:
   922                           	callstack 0
   923                           
   924                           ; 2 bytes @ 0x1B
   925   00001C                     	ds	2
   926   00001E                     _dtoa$757:
   927                           	callstack 0
   928                           
   929                           ; 2 bytes @ 0x1D
   930   00001E                     	ds	1
   931   00001F                     ___fldiv@sign:
   932                           	callstack 0
   933                           
   934                           ; 1 bytes @ 0x1E
   935   00001F                     	ds	1
   936   000020                     ___fldiv@new_exp:
   937                           	callstack 0
   938   000020                     dtoa@p:
   939                           	callstack 0
   940                           
   941                           ; 2 bytes @ 0x1F
   942   000020                     	ds	2
   943   000022                     dtoa@w:
   944                           	callstack 0
   945   000022                     ___fldiv@grs:
   946                           	callstack 0
   947                           
   948                           ; 4 bytes @ 0x21
   949   000022                     	ds	2
   950   000024                     dtoa@s:
   951                           	callstack 0
   952                           
   953                           ; 1 bytes @ 0x23
   954   000024                     	ds	1
   955   000025                     dtoa@i:
   956                           	callstack 0
   957                           
   958                           ; 2 bytes @ 0x24
   959   000025                     	ds	1
   960   000026                     ___fldiv@bexp:
   961                           	callstack 0
   962                           
   963                           ; 1 bytes @ 0x25
   964   000026                     	ds	1
   965   000027                     ___fldiv@aexp:
   966                           	callstack 0
   967                           
   968                           ; 1 bytes @ 0x26
   969   000027                     	ds	1
   970   000028                     ?___flmul:
   971                           	callstack 0
   972   000028                     ?_floorf:
   973                           	callstack 0
   974   000028                     ___flmul@b:
   975                           	callstack 0
   976   000028                     floorf@x:
   977                           	callstack 0
   978                           
   979                           ; 4 bytes @ 0x27
   980   000028                     	ds	4
   981   00002C                     ??_floorf:
   982   00002C                     ___flmul@a:
   983                           	callstack 0
   984                           
   985                           ; 4 bytes @ 0x2B
   986   00002C                     	ds	4
   987   000030                     ??___flmul:
   988                           
   989                           ; 1 bytes @ 0x2F
   990   000030                     	ds	2
   991   000032                     floorf@m:
   992                           	callstack 0
   993                           
   994                           ; 4 bytes @ 0x31
   995   000032                     	ds	2
   996   000034                     ___flmul@sign:
   997                           	callstack 0
   998                           
   999                           ; 1 bytes @ 0x33
  1000   000034                     	ds	1
  1001   000035                     ___flmul@aexp:
  1002                           	callstack 0
  1003                           
  1004                           ; 1 bytes @ 0x34
  1005   000035                     	ds	1
  1006   000036                     floorf@e:
  1007                           	callstack 0
  1008   000036                     ___flmul@grs:
  1009                           	callstack 0
  1010                           
  1011                           ; 4 bytes @ 0x35
  1012   000036                     	ds	2
  1013   000038                     floorf@u:
  1014                           	callstack 0
  1015                           
  1016                           ; 4 bytes @ 0x37
  1017   000038                     	ds	2
  1018   00003A                     ___flmul@bexp:
  1019                           	callstack 0
  1020                           
  1021                           ; 1 bytes @ 0x39
  1022   00003A                     	ds	1
  1023   00003B                     ___flmul@prod:
  1024                           	callstack 0
  1025                           
  1026                           ; 4 bytes @ 0x3A
  1027   00003B                     	ds	4
  1028   00003F                     ___flmul@temp:
  1029                           	callstack 0
  1030                           
  1031                           ; 2 bytes @ 0x3E
  1032   00003F                     	ds	2
  1033   000041                     ?___fladd:
  1034                           	callstack 0
  1035   000041                     ___fladd@b:
  1036                           	callstack 0
  1037                           
  1038                           ; 4 bytes @ 0x40
  1039   000041                     	ds	4
  1040   000045                     ___fladd@a:
  1041                           	callstack 0
  1042                           
  1043                           ; 4 bytes @ 0x44
  1044   000045                     	ds	4
  1045   000049                     ??___fladd:
  1046                           
  1047                           ; 1 bytes @ 0x48
  1048   000049                     	ds	4
  1049   00004D                     ___fladd@signs:
  1050                           	callstack 0
  1051                           
  1052                           ; 1 bytes @ 0x4C
  1053   00004D                     	ds	1
  1054   00004E                     ___fladd@aexp:
  1055                           	callstack 0
  1056                           
  1057                           ; 1 bytes @ 0x4D
  1058   00004E                     	ds	1
  1059   00004F                     ___fladd@bexp:
  1060                           	callstack 0
  1061                           
  1062                           ; 1 bytes @ 0x4E
  1063   00004F                     	ds	1
  1064   000050                     ___fladd@grs:
  1065                           	callstack 0
  1066                           
  1067                           ; 1 bytes @ 0x4F
  1068   000050                     	ds	1
  1069   000051                     ?___flsub:
  1070                           	callstack 0
  1071   000051                     ?___cosdf:
  1072                           	callstack 0
  1073   000051                     ?___fltol:
  1074                           	callstack 0
  1075   000051                     ___fltol@f1:
  1076                           	callstack 0
  1077   000051                     ___flsub@b:
  1078                           	callstack 0
  1079   000051                     ___cosdf@x:
  1080                           	callstack 0
  1081                           
  1082                           ; 4 bytes @ 0x50
  1083   000051                     	ds	4
  1084   000055                     ??___fltol:
  1085   000055                     ___flsub@a:
  1086                           	callstack 0
  1087                           
  1088                           ; 4 bytes @ 0x54
  1089   000055                     	ds	4
  1090   000059                     ?___sindf:
  1091                           	callstack 0
  1092   000059                     ___fltol@sign1:
  1093                           	callstack 0
  1094   000059                     ___sindf@x:
  1095                           	callstack 0
  1096                           
  1097                           ; 4 bytes @ 0x58
  1098   000059                     	ds	1
  1099   00005A                     ___fltol@exp1:
  1100                           	callstack 0
  1101                           
  1102                           ; 1 bytes @ 0x59
  1103   00005A                     	ds	1
  1104   00005B                     ??___rem_pio2f:
  1105                           
  1106                           ; 1 bytes @ 0x5A
  1107   00005B                     	ds	2
  1108   00005D                     ??_cosf:
  1109   00005D                     
  1110                           ; 1 bytes @ 0x5C
  1111   00005D                     	ds	2
  1112   00005F                     vfprintf@cfmt:
  1113                           	callstack 0
  1114                           
  1115                           ; 1 bytes @ 0x5E
  1116   00005F                     	ds	1
  1117   000060                     
  1118                           ; 1 bytes @ 0x5F
  1119 ;;
  1120 ;;Main: autosize = 0, tempsize = 2, incstack = 0, save=0
  1121 ;;
  1122 ;; *************** function _main *****************
  1123 ;; Defined at:
  1124 ;;		line 46 in file "newmain.c"
  1125 ;; Parameters:    Size  Location     Type
  1126 ;;		None
  1127 ;; Auto vars:     Size  Location     Type
  1128 ;;  i               2   61[BANK1 ] int 
  1129 ;;  angle           4   63[BANK1 ] float 
  1130 ;;  dt              4   47[BANK1 ] float 
  1131 ;;  endTime         2   69[BANK1 ] unsigned short 
  1132 ;;  startTime       2   67[BANK1 ] unsigned short 
  1133 ;;  pulseWidth      2   55[BANK1 ] unsigned short 
  1134 ;; Return value:  Size  Location     Type
  1135 ;;                  1    wreg      void 
  1136 ;; Registers used:
  1137 ;;		wreg, fsr1l, fsr1h, fsr2l, fsr2h, status,2, status,0, tblptrl, tblptrh, tblptru, prodl, prodh, cstack
  1138 ;; Tracked objects:
  1139 ;;		On entry : 0/0
  1140 ;;		On exit  : 0/0
  1141 ;;		Unchanged: 0/0
  1142 ;; Data sizes:     COMRAM   BANK0   BANK1   BANK2   BANK3   BANK4   BANK5   BANK6   BANK7
  1143 ;;      Params:         0       0       0       0       0       0       0       0       0
  1144 ;;      Locals:         0       0      24       0       0       0       0       0       0
  1145 ;;      Temps:          0       2       0       0       0       0       0       0       0
  1146 ;;      Totals:         0       2      24       0       0       0       0       0       0
  1147 ;;Total ram usage:       26 bytes
  1148 ;; Hardware stack levels required when called: 9
  1149 ;; This function calls:
  1150 ;;		_CCP1_Init
  1151 ;;		_LCD_Clear
  1152 ;;		_LCD_Command
  1153 ;;		_LCD_Init
  1154 ;;		_LCD_String
  1155 ;;		_LCD_value_float
  1156 ;;		___fladd
  1157 ;;		___fldiv
  1158 ;;		___flge
  1159 ;;		___flmul
  1160 ;;		___flsub
  1161 ;;		___xxtofl
  1162 ;;		_cosf
  1163 ;; This function is called by:
  1164 ;;		Startup code after reset
  1165 ;; This function uses a non-reentrant model
  1166 ;;
  1167                           
  1168                           	psect	text0
  1169   0020B6                     __ptext0:
  1170                           	callstack 0
  1171   0020B6                     _main:
  1172                           	callstack 22
  1173   0020B6                     
  1174                           ;newmain.c: 48:     CCP1_Init();
  1175   0020B6  EC61  F023         	call	_CCP1_Init	;wreg free
  1176   0020BA                     
  1177                           ;newmain.c: 49:     LCD_Init();
  1178   0020BA  EC8E  F022         	call	_LCD_Init	;wreg free
  1179   0020BE                     
  1180                           ;newmain.c: 50:     TRISD=0x00;
  1181   0020BE  0E00               	movlw	0
  1182   0020C0  6E95               	movwf	149,c	;volatile
  1183   0020C2                     l6099:
  1184                           
  1185                           ;newmain.c: 55:     LCD_Clear();
  1186   0020C2  EC56  F023         	call	_LCD_Clear	;wreg free
  1187   0020C6                     l6101:
  1188                           
  1189                           ;newmain.c: 63:         CCP1CON = 0b00000101;
  1190   0020C6  0E05               	movlw	5
  1191   0020C8  6EBD               	movwf	189,c	;volatile
  1192   0020CA                     
  1193                           ;newmain.c: 64:         CCP1IF = 0;
  1194   0020CA  949E               	bcf	3998,2,c	;volatile
  1195   0020CC                     l63:
  1196   0020CC  A49E               	btfss	3998,2,c	;volatile
  1197   0020CE  EF6B  F010         	goto	u7521
  1198   0020D2  EF6D  F010         	goto	u7520
  1199   0020D6                     u7521:
  1200   0020D6  EF66  F010         	goto	l63
  1201   0020DA                     u7520:
  1202   0020DA                     
  1203                           ;newmain.c: 69:         uint16_t startTime = CCPR1;
  1204   0020DA  CFBE F1A9          	movff	4030,main@startTime	;volatile
  1205   0020DE  CFBF F1AA          	movff	4031,main@startTime+1	;volatile
  1206   0020E2                     
  1207                           ;newmain.c: 72:         CCP1CON = 0b00000100;
  1208   0020E2  0E04               	movlw	4
  1209   0020E4  6EBD               	movwf	189,c	;volatile
  1210   0020E6                     
  1211                           ;newmain.c: 73:         CCP1IF = 0;
  1212   0020E6  949E               	bcf	3998,2,c	;volatile
  1213   0020E8                     l66:
  1214   0020E8  A49E               	btfss	3998,2,c	;volatile
  1215   0020EA  EF79  F010         	goto	u7531
  1216   0020EE  EF7B  F010         	goto	u7530
  1217   0020F2                     u7531:
  1218   0020F2  EF74  F010         	goto	l66
  1219   0020F6                     u7530:
  1220   0020F6                     
  1221                           ;newmain.c: 78:         uint16_t endTime = CCPR1;
  1222   0020F6  CFBE F1AB          	movff	4030,main@endTime	;volatile
  1223   0020FA  CFBF F1AC          	movff	4031,main@endTime+1	;volatile
  1224   0020FE                     
  1225                           ;newmain.c: 81:         if(endTime>startTime)
  1226   0020FE  0101               	movlb	1	; () banked
  1227   002100  51AB               	movf	main@endTime& (0+255),w,b
  1228   002102  5DA9               	subwf	main@startTime& (0+255),w,b
  1229   002104  51AC               	movf	(main@endTime+1)& (0+255),w,b
  1230   002106  59AA               	subwfb	(main@startTime+1)& (0+255),w,b
  1231   002108  B0D8               	btfsc	status,0,c
  1232   00210A  EF89  F010         	goto	u7541
  1233   00210E  EF8B  F010         	goto	u7540
  1234   002112                     u7541:
  1235   002112  EF93  F010         	goto	l6113
  1236   002116                     u7540:
  1237   002116                     
  1238                           ; BSR set to: 1
  1239                           ;newmain.c: 82:             pulseWidth = endTime - startTime;
  1240   002116  51A9               	movf	main@startTime& (0+255),w,b
  1241   002118  5DAB               	subwf	main@endTime& (0+255),w,b
  1242   00211A  6F9D               	movwf	main@pulseWidth& (0+255),b
  1243   00211C  51AA               	movf	(main@startTime+1)& (0+255),w,b
  1244   00211E  59AC               	subwfb	(main@endTime+1)& (0+255),w,b
  1245   002120  6F9E               	movwf	(main@pulseWidth+1)& (0+255),b
  1246   002122  EF99  F010         	goto	l6115
  1247   002126                     l6113:
  1248                           
  1249                           ; BSR set to: 1
  1250                           ;newmain.c: 84:            pulseWidth= 65536-startTime+endTime;
  1251   002126  51A9               	movf	main@startTime& (0+255),w,b
  1252   002128  5DAB               	subwf	main@endTime& (0+255),w,b
  1253   00212A  6F9D               	movwf	main@pulseWidth& (0+255),b
  1254   00212C  51AA               	movf	(main@startTime+1)& (0+255),w,b
  1255   00212E  59AC               	subwfb	(main@endTime+1)& (0+255),w,b
  1256   002130  6F9E               	movwf	(main@pulseWidth+1)& (0+255),b
  1257   002132                     l6115:
  1258                           
  1259                           ; BSR set to: 1
  1260                           ;newmain.c: 87:         LCD_Command(0xc0);
  1261   002132  0EC0               	movlw	192
  1262   002134  EC29  F01D         	call	_LCD_Command
  1263   002138                     
  1264                           ;newmain.c: 90:         _delay((unsigned long)((100)*(20000000/4000.0)));
  1265   002138  0E03               	movlw	3
  1266   00213A  0100               	movlb	0	; () banked
  1267   00213C  6FFD               	movwf	(??_main+1)& (0+255),b
  1268   00213E  0E8A               	movlw	138
  1269   002140  6FFC               	movwf	??_main& (0+255),b
  1270   002142  0E55               	movlw	85
  1271   002144                     u7587:
  1272   002144  2EE8               	decfsz	wreg,f,c
  1273   002146  D7FE               	bra	u7587
  1274   002148  2FFC               	decfsz	??_main& (0+255),f,b
  1275   00214A  D7FC               	bra	u7587
  1276   00214C  2FFD               	decfsz	(??_main+1)& (0+255),f,b
  1277   00214E  D7FA               	bra	u7587
  1278   002150  D000               	nop2	
  1279   002152                     
  1280                           ;newmain.c: 91:         float dt =(4*1*(pulseWidth)/20000000.0)*3-0.00015;
  1281   002152  0E00               	movlw	0
  1282   002154  6E2C               	movwf	___flmul@a^0,c
  1283   002156  0E00               	movlw	0
  1284   002158  6E2D               	movwf	(___flmul@a+1)^0,c
  1285   00215A  0E40               	movlw	64
  1286   00215C  6E2E               	movwf	(___flmul@a+2)^0,c
  1287   00215E  0E40               	movlw	64
  1288   002160  6E2F               	movwf	(___flmul@a+3)^0,c
  1289   002162  0E80               	movlw	128
  1290   002164  6E13               	movwf	___fldiv@a^0,c
  1291   002166  0E96               	movlw	150
  1292   002168  6E14               	movwf	(___fldiv@a+1)^0,c
  1293   00216A  0E98               	movlw	152
  1294   00216C  6E15               	movwf	(___fldiv@a+2)^0,c
  1295   00216E  0E4B               	movlw	75
  1296   002170  6E16               	movwf	(___fldiv@a+3)^0,c
  1297   002172  C19D  F0FC         	movff	main@pulseWidth,??_main
  1298   002176  C19E  F0FD         	movff	main@pulseWidth+1,??_main+1
  1299   00217A  0100               	movlb	0	; () banked
  1300   00217C  90D8               	bcf	status,0,c
  1301   00217E  37FC               	rlcf	??_main& (0+255),f,b
  1302   002180  37FD               	rlcf	(??_main+1)& (0+255),f,b
  1303   002182  90D8               	bcf	status,0,c
  1304   002184  37FC               	rlcf	??_main& (0+255),f,b
  1305   002186  37FD               	rlcf	(??_main+1)& (0+255),f,b
  1306   002188  C0FC  F001         	movff	??_main,___xxtofl@val
  1307   00218C  C0FD  F002         	movff	??_main+1,___xxtofl@val+1
  1308   002190  6A03               	clrf	(___xxtofl@val+2)^0,c
  1309   002192  6A04               	clrf	(___xxtofl@val+3)^0,c
  1310   002194  0E00               	movlw	0
  1311   002196  EC94  F01B         	call	___xxtofl
  1312   00219A  C001  F00F         	movff	?___xxtofl,___fldiv@b
  1313   00219E  C002  F010         	movff	?___xxtofl+1,___fldiv@b+1
  1314   0021A2  C003  F011         	movff	?___xxtofl+2,___fldiv@b+2
  1315   0021A6  C004  F012         	movff	?___xxtofl+3,___fldiv@b+3
  1316   0021AA  EC28  F014         	call	___fldiv	;wreg free
  1317   0021AE  C00F  F028         	movff	?___fldiv,___flmul@b
  1318   0021B2  C010  F029         	movff	?___fldiv+1,___flmul@b+1
  1319   0021B6  C011  F02A         	movff	?___fldiv+2,___flmul@b+2
  1320   0021BA  C012  F02B         	movff	?___fldiv+3,___flmul@b+3
  1321   0021BE  EC46  F00E         	call	___flmul	;wreg free
  1322   0021C2  C028  F041         	movff	?___flmul,___fladd@b
  1323   0021C6  C029  F042         	movff	?___flmul+1,___fladd@b+1
  1324   0021CA  C02A  F043         	movff	?___flmul+2,___fladd@b+2
  1325   0021CE  C02B  F044         	movff	?___flmul+3,___fladd@b+3
  1326   0021D2  0E52               	movlw	82
  1327   0021D4  6E45               	movwf	___fladd@a^0,c
  1328   0021D6  0E49               	movlw	73
  1329   0021D8  6E46               	movwf	(___fladd@a+1)^0,c
  1330   0021DA  0E1D               	movlw	29
  1331   0021DC  6E47               	movwf	(___fladd@a+2)^0,c
  1332   0021DE  0EB9               	movlw	185
  1333   0021E0  6E48               	movwf	(___fladd@a+3)^0,c
  1334   0021E2  ECE6  F00B         	call	___fladd	;wreg free
  1335   0021E6  C041  F195         	movff	?___fladd,main@dt
  1336   0021EA  C042  F196         	movff	?___fladd+1,main@dt+1
  1337   0021EE  C043  F197         	movff	?___fladd+2,main@dt+2
  1338   0021F2  C044  F198         	movff	?___fladd+3,main@dt+3
  1339   0021F6                     
  1340                           ;newmain.c: 92:         float angle = 360*50*dt;
  1341   0021F6  C195  F028         	movff	main@dt,___flmul@b
  1342   0021FA  C196  F029         	movff	main@dt+1,___flmul@b+1
  1343   0021FE  C197  F02A         	movff	main@dt+2,___flmul@b+2
  1344   002202  C198  F02B         	movff	main@dt+3,___flmul@b+3
  1345   002206  0E00               	movlw	0
  1346   002208  6E2C               	movwf	___flmul@a^0,c
  1347   00220A  0EA0               	movlw	160
  1348   00220C  6E2D               	movwf	(___flmul@a+1)^0,c
  1349   00220E  0E8C               	movlw	140
  1350   002210  6E2E               	movwf	(___flmul@a+2)^0,c
  1351   002212  0E46               	movlw	70
  1352   002214  6E2F               	movwf	(___flmul@a+3)^0,c
  1353   002216  EC46  F00E         	call	___flmul	;wreg free
  1354   00221A  C028  F1A5         	movff	?___flmul,main@angle
  1355   00221E  C029  F1A6         	movff	?___flmul+1,main@angle+1
  1356   002222  C02A  F1A7         	movff	?___flmul+2,main@angle+2
  1357   002226  C02B  F1A8         	movff	?___flmul+3,main@angle+3
  1358   00222A                     
  1359                           ;newmain.c: 93:         LCD_Command(0x80);
  1360   00222A  0E80               	movlw	128
  1361   00222C  EC29  F01D         	call	_LCD_Command
  1362   002230                     
  1363                           ;newmain.c: 94:         LCD_String("ANGLE=");
  1364   002230  0E57               	movlw	low STR_1
  1365   002232  6E04               	movwf	LCD_String@str^0,c
  1366   002234  5004               	movf	LCD_String@str^0,w,c
  1367   002236  A4D8               	btfss	status,2,c
  1368   002238  0E08               	movlw	high __smallconst
  1369   00223A  6E05               	movwf	(LCD_String@str+1)^0,c
  1370   00223C  EC38  F021         	call	_LCD_String	;wreg free
  1371   002240                     
  1372                           ;newmain.c: 95:         LCD_value_float(angle);
  1373   002240  C1A5  F187         	movff	main@angle,LCD_value_float@a
  1374   002244  C1A6  F188         	movff	main@angle+1,LCD_value_float@a+1
  1375   002248  C1A7  F189         	movff	main@angle+2,LCD_value_float@a+2
  1376   00224C  C1A8  F18A         	movff	main@angle+3,LCD_value_float@a+3
  1377   002250  EC1E  F023         	call	_LCD_value_float	;wreg free
  1378   002254                     
  1379                           ;newmain.c: 96:          LCD_Command(0xC0);
  1380   002254  0EC0               	movlw	192
  1381   002256  EC29  F01D         	call	_LCD_Command
  1382   00225A                     
  1383                           ;newmain.c: 97:         LCD_String("PF=");
  1384   00225A  0E6C               	movlw	low STR_2
  1385   00225C  6E04               	movwf	LCD_String@str^0,c
  1386   00225E  5004               	movf	LCD_String@str^0,w,c
  1387   002260  A4D8               	btfss	status,2,c
  1388   002262  0E08               	movlw	high __smallconst
  1389   002264  6E05               	movwf	(LCD_String@str+1)^0,c
  1390   002266  EC38  F021         	call	_LCD_String	;wreg free
  1391   00226A                     
  1392                           ;newmain.c: 98:         LCD_value_float(-cosf(angle)+0.50);
  1393   00226A  C1A5  F09A         	movff	main@angle,cosf@x
  1394   00226E  C1A6  F09B         	movff	main@angle+1,cosf@x+1
  1395   002272  C1A7  F09C         	movff	main@angle+2,cosf@x+2
  1396   002276  C1A8  F09D         	movff	main@angle+3,cosf@x+3
  1397   00227A  EC69  F009         	call	_cosf	;wreg free
  1398   00227E  C09A  F19F         	movff	?_cosf,_main$1095
  1399   002282  C09B  F1A0         	movff	?_cosf+1,_main$1095+1
  1400   002286  C09C  F1A1         	movff	?_cosf+2,_main$1095+2
  1401   00228A  C09D  F1A2         	movff	?_cosf+3,_main$1095+3
  1402   00228E                     
  1403                           ;newmain.c: 98:         LCD_value_float(-cosf(angle)+0.50);
  1404   00228E  0E00               	movlw	0
  1405   002290  6E51               	movwf	___flsub@b^0,c
  1406   002292  0E00               	movlw	0
  1407   002294  6E52               	movwf	(___flsub@b+1)^0,c
  1408   002296  0E00               	movlw	0
  1409   002298  6E53               	movwf	(___flsub@b+2)^0,c
  1410   00229A  0E3F               	movlw	63
  1411   00229C  6E54               	movwf	(___flsub@b+3)^0,c
  1412   00229E  C19F  F055         	movff	_main$1095,___flsub@a
  1413   0022A2  C1A0  F056         	movff	_main$1095+1,___flsub@a+1
  1414   0022A6  C1A1  F057         	movff	_main$1095+2,___flsub@a+2
  1415   0022AA  C1A2  F058         	movff	_main$1095+3,___flsub@a+3
  1416   0022AE  EC49  F022         	call	___flsub	;wreg free
  1417   0022B2  C051  F199         	movff	?___flsub,_main$1096
  1418   0022B6  C052  F19A         	movff	?___flsub+1,_main$1096+1
  1419   0022BA  C053  F19B         	movff	?___flsub+2,_main$1096+2
  1420   0022BE  C054  F19C         	movff	?___flsub+3,_main$1096+3
  1421   0022C2                     
  1422                           ;newmain.c: 98:         LCD_value_float(-cosf(angle)+0.50);
  1423   0022C2  C199  F187         	movff	_main$1096,LCD_value_float@a
  1424   0022C6  C19A  F188         	movff	_main$1096+1,LCD_value_float@a+1
  1425   0022CA  C19B  F189         	movff	_main$1096+2,LCD_value_float@a+2
  1426   0022CE  C19C  F18A         	movff	_main$1096+3,LCD_value_float@a+3
  1427   0022D2  EC1E  F023         	call	_LCD_value_float	;wreg free
  1428   0022D6                     
  1429                           ;newmain.c: 110:             for(int i=0;i<6&&(-cosf(angle)+0.50)<0.99;i++){
  1430   0022D6  0E00               	movlw	0
  1431   0022D8  0101               	movlb	1	; () banked
  1432   0022DA  6FA4               	movwf	(main@i+1)& (0+255),b
  1433   0022DC  0E00               	movlw	0
  1434   0022DE  6FA3               	movwf	main@i& (0+255),b
  1435   0022E0  EFE1  F011         	goto	l71
  1436   0022E4                     l6141:
  1437                           
  1438                           ; BSR set to: 0
  1439                           ;newmain.c: 111:          LCD_Command(0x94);
  1440   0022E4  0E94               	movlw	148
  1441   0022E6  EC29  F01D         	call	_LCD_Command
  1442   0022EA                     
  1443                           ;newmain.c: 112:         LCD_String("PF_correction started");
  1444   0022EA  0E41               	movlw	low STR_3
  1445   0022EC  6E04               	movwf	LCD_String@str^0,c
  1446   0022EE  5004               	movf	LCD_String@str^0,w,c
  1447   0022F0  A4D8               	btfss	status,2,c
  1448   0022F2  0E08               	movlw	high __smallconst
  1449   0022F4  6E05               	movwf	(LCD_String@str+1)^0,c
  1450   0022F6  EC38  F021         	call	_LCD_String	;wreg free
  1451   0022FA                     
  1452                           ;newmain.c: 113:        _delay((unsigned long)((100)*(20000000/4000.0)));
  1453   0022FA  0E03               	movlw	3
  1454   0022FC  0100               	movlb	0	; () banked
  1455   0022FE  6FFD               	movwf	(??_main+1)& (0+255),b
  1456   002300  0E8A               	movlw	138
  1457   002302  6FFC               	movwf	??_main& (0+255),b
  1458   002304  0E55               	movlw	85
  1459   002306                     u7597:
  1460   002306  2EE8               	decfsz	wreg,f,c
  1461   002308  D7FE               	bra	u7597
  1462   00230A  2FFC               	decfsz	??_main& (0+255),f,b
  1463   00230C  D7FC               	bra	u7597
  1464   00230E  2FFD               	decfsz	(??_main+1)& (0+255),f,b
  1465   002310  D7FA               	bra	u7597
  1466   002312  D000               	nop2	
  1467                           
  1468                           ;newmain.c: 114:            switch(i){
  1469   002314  EFAA  F011         	goto	l6149
  1470   002318                     l74:
  1471                           
  1472                           ; BSR set to: 0
  1473                           ;newmain.c: 116:                 RD3=0;
  1474   002318  9683               	bcf	3971,3,c	;volatile
  1475                           
  1476                           ;newmain.c: 117:                 RD2=0;
  1477   00231A  9483               	bcf	3971,2,c	;volatile
  1478                           
  1479                           ;newmain.c: 118:                 RD6=0;
  1480   00231C  9C83               	bcf	3971,6,c	;volatile
  1481                           
  1482                           ;newmain.c: 119:                 RD7=0;
  1483   00231E  9E83               	bcf	3971,7,c	;volatile
  1484                           
  1485                           ;newmain.c: 120:                    break;
  1486   002320  EFD1  F011         	goto	l6151
  1487   002324                     l76:
  1488                           
  1489                           ; BSR set to: 0
  1490                           ;newmain.c: 122:                 RD3=1;
  1491   002324  8683               	bsf	3971,3,c	;volatile
  1492                           
  1493                           ;newmain.c: 123:                 RD2=0;
  1494   002326  9483               	bcf	3971,2,c	;volatile
  1495                           
  1496                           ;newmain.c: 124:                 RD6=0;
  1497   002328  9C83               	bcf	3971,6,c	;volatile
  1498                           
  1499                           ;newmain.c: 125:                 RD7=0;
  1500   00232A  9E83               	bcf	3971,7,c	;volatile
  1501                           
  1502                           ;newmain.c: 126:                    break;
  1503   00232C  EFD1  F011         	goto	l6151
  1504   002330                     l77:
  1505                           
  1506                           ; BSR set to: 0
  1507                           ;newmain.c: 128:                 RD3=1;
  1508   002330  8683               	bsf	3971,3,c	;volatile
  1509                           
  1510                           ;newmain.c: 129:                 RD2=1;
  1511   002332  8483               	bsf	3971,2,c	;volatile
  1512                           
  1513                           ;newmain.c: 130:                 RD6=0;
  1514   002334  9C83               	bcf	3971,6,c	;volatile
  1515                           
  1516                           ;newmain.c: 131:                 RD7=0;
  1517   002336  9E83               	bcf	3971,7,c	;volatile
  1518                           
  1519                           ;newmain.c: 132:                    break;
  1520   002338  EFD1  F011         	goto	l6151
  1521   00233C                     l78:
  1522                           
  1523                           ; BSR set to: 0
  1524                           ;newmain.c: 134:                 RD3=1;
  1525   00233C  8683               	bsf	3971,3,c	;volatile
  1526                           
  1527                           ;newmain.c: 135:                 RD2=1;
  1528   00233E  8483               	bsf	3971,2,c	;volatile
  1529                           
  1530                           ;newmain.c: 136:                 RD6=1;
  1531   002340  8C83               	bsf	3971,6,c	;volatile
  1532                           
  1533                           ;newmain.c: 137:                 RD7=0;
  1534   002342  9E83               	bcf	3971,7,c	;volatile
  1535                           
  1536                           ;newmain.c: 138:                    break;
  1537   002344  EFD1  F011         	goto	l6151
  1538   002348                     l79:
  1539                           
  1540                           ; BSR set to: 0
  1541                           ;newmain.c: 140:                 RD3=1;
  1542   002348  8683               	bsf	3971,3,c	;volatile
  1543                           
  1544                           ;newmain.c: 141:                 RD2=1;
  1545   00234A  8483               	bsf	3971,2,c	;volatile
  1546                           
  1547                           ;newmain.c: 142:                 RD6=1;
  1548   00234C  8C83               	bsf	3971,6,c	;volatile
  1549                           
  1550                           ;newmain.c: 143:                 RD7=1;
  1551   00234E  8E83               	bsf	3971,7,c	;volatile
  1552                           
  1553                           ;newmain.c: 145:                    break;
  1554   002350  EFD1  F011         	goto	l6151
  1555   002354                     l6149:
  1556   002354  C1A3  F0FC         	movff	main@i,??_main
  1557   002358  C1A4  F0FD         	movff	main@i+1,??_main+1
  1558                           
  1559                           ; Switch on 2 bytes has been partitioned into a top level switch of size 1, and 1 sub-sw
      +                          itches
  1560                           ; Switch size 1, requested type "simple"
  1561                           ; Number of cases is 1, Range of values is 0 to 0
  1562                           ; switch strategies available:
  1563                           ; Name         Instructions Cycles
  1564                           ; simple_byte            4     3 (average)
  1565                           ;	Chosen strategy is simple_byte
  1566   00235C  0100               	movlb	0	; () banked
  1567   00235E  51FD               	movf	(??_main+1)& (0+255),w,b
  1568   002360  0A00               	xorlw	0	; case 0
  1569   002362  B4D8               	btfsc	status,2,c
  1570   002364  EFB6  F011         	goto	l6347
  1571   002368  EFD1  F011         	goto	l6151
  1572   00236C                     l6347:
  1573                           
  1574                           ; BSR set to: 0
  1575                           ; Switch size 1, requested type "simple"
  1576                           ; Number of cases is 6, Range of values is 0 to 5
  1577                           ; switch strategies available:
  1578                           ; Name         Instructions Cycles
  1579                           ; simple_byte           19    10 (average)
  1580                           ;	Chosen strategy is simple_byte
  1581   00236C  51FC               	movf	??_main& (0+255),w,b
  1582   00236E  0A00               	xorlw	0	; case 0
  1583   002370  B4D8               	btfsc	status,2,c
  1584   002372  EF8C  F011         	goto	l74
  1585   002376  0A01               	xorlw	1	; case 1
  1586   002378  B4D8               	btfsc	status,2,c
  1587   00237A  EF92  F011         	goto	l76
  1588   00237E  0A03               	xorlw	3	; case 2
  1589   002380  B4D8               	btfsc	status,2,c
  1590   002382  EF98  F011         	goto	l77
  1591   002386  0A01               	xorlw	1	; case 3
  1592   002388  B4D8               	btfsc	status,2,c
  1593   00238A  EF9E  F011         	goto	l78
  1594   00238E  0A07               	xorlw	7	; case 4
  1595   002390  B4D8               	btfsc	status,2,c
  1596   002392  EFA4  F011         	goto	l79
  1597   002396  0A01               	xorlw	1	; case 5
  1598   002398  B4D8               	btfsc	status,2,c
  1599   00239A  EF8C  F011         	goto	l74
  1600   00239E  EFD1  F011         	goto	l6151
  1601   0023A2                     l6151:
  1602                           
  1603                           ; BSR set to: 0
  1604                           ;newmain.c: 157:            _delay((unsigned long)((100)*(20000000/4000.0)));
  1605   0023A2  0E03               	movlw	3
  1606   0023A4  0100               	movlb	0	; () banked
  1607   0023A6  6FFD               	movwf	(??_main+1)& (0+255),b
  1608   0023A8  0E8A               	movlw	138
  1609   0023AA  6FFC               	movwf	??_main& (0+255),b
  1610   0023AC  0E55               	movlw	85
  1611   0023AE                     u7607:
  1612   0023AE  2EE8               	decfsz	wreg,f,c
  1613   0023B0  D7FE               	bra	u7607
  1614   0023B2  2FFC               	decfsz	??_main& (0+255),f,b
  1615   0023B4  D7FC               	bra	u7607
  1616   0023B6  2FFD               	decfsz	(??_main+1)& (0+255),f,b
  1617   0023B8  D7FA               	bra	u7607
  1618   0023BA  D000               	nop2	
  1619   0023BC                     
  1620                           ;newmain.c: 158:        }i++;
  1621   0023BC  0101               	movlb	1	; () banked
  1622   0023BE  4BA3               	infsnz	main@i& (0+255),f,b
  1623   0023C0  2BA4               	incf	(main@i+1)& (0+255),f,b
  1624   0023C2                     l71:
  1625                           
  1626                           ; BSR set to: 1
  1627   0023C2  BFA4               	btfsc	(main@i+1)& (0+255),7,b
  1628   0023C4  EFEF  F011         	goto	u7550
  1629   0023C8  51A4               	movf	(main@i+1)& (0+255),w,b
  1630   0023CA  E107               	bnz	u7551
  1631   0023CC  0E06               	movlw	6
  1632   0023CE  5DA3               	subwf	main@i& (0+255),w,b
  1633   0023D0  B0D8               	btfsc	status,0,c
  1634   0023D2  EFED  F011         	goto	u7551
  1635   0023D6  EFEF  F011         	goto	u7550
  1636   0023DA                     u7551:
  1637   0023DA  EF2E  F012         	goto	l6159
  1638   0023DE                     u7550:
  1639   0023DE                     
  1640                           ; BSR set to: 1
  1641   0023DE  C1A5  F09A         	movff	main@angle,cosf@x
  1642   0023E2  C1A6  F09B         	movff	main@angle+1,cosf@x+1
  1643   0023E6  C1A7  F09C         	movff	main@angle+2,cosf@x+2
  1644   0023EA  C1A8  F09D         	movff	main@angle+3,cosf@x+3
  1645   0023EE  EC69  F009         	call	_cosf	;wreg free
  1646   0023F2  C09A  F19F         	movff	?_cosf,_main$1095
  1647   0023F6  C09B  F1A0         	movff	?_cosf+1,_main$1095+1
  1648   0023FA  C09C  F1A1         	movff	?_cosf+2,_main$1095+2
  1649   0023FE  C09D  F1A2         	movff	?_cosf+3,_main$1095+3
  1650   002402  C19F  F055         	movff	_main$1095,___flsub@a
  1651   002406  C1A0  F056         	movff	_main$1095+1,___flsub@a+1
  1652   00240A  C1A1  F057         	movff	_main$1095+2,___flsub@a+2
  1653   00240E  C1A2  F058         	movff	_main$1095+3,___flsub@a+3
  1654   002412  0E00               	movlw	0
  1655   002414  6E51               	movwf	___flsub@b^0,c
  1656   002416  0E00               	movlw	0
  1657   002418  6E52               	movwf	(___flsub@b+1)^0,c
  1658   00241A  0E00               	movlw	0
  1659   00241C  6E53               	movwf	(___flsub@b+2)^0,c
  1660   00241E  0E3F               	movlw	63
  1661   002420  6E54               	movwf	(___flsub@b+3)^0,c
  1662   002422  EC49  F022         	call	___flsub	;wreg free
  1663   002426  C051  F0B4         	movff	?___flsub,___flge@ff1
  1664   00242A  C052  F0B5         	movff	?___flsub+1,___flge@ff1+1
  1665   00242E  C053  F0B6         	movff	?___flsub+2,___flge@ff1+2
  1666   002432  C054  F0B7         	movff	?___flsub+3,___flge@ff1+3
  1667   002436  0EA4               	movlw	164
  1668   002438  0100               	movlb	0	; () banked
  1669   00243A  6FB8               	movwf	___flge@ff2& (0+255),b
  1670   00243C  0E70               	movlw	112
  1671   00243E  6FB9               	movwf	(___flge@ff2+1)& (0+255),b
  1672   002440  0E7D               	movlw	125
  1673   002442  6FBA               	movwf	(___flge@ff2+2)& (0+255),b
  1674   002444  0E3F               	movlw	63
  1675   002446  6FBB               	movwf	(___flge@ff2+3)& (0+255),b
  1676   002448  EC67  F01E         	call	___flge	;wreg free
  1677   00244C  0100               	movlb	0	; () banked
  1678   00244E  A0D8               	btfss	status,0,c
  1679   002450  EF2C  F012         	goto	u7561
  1680   002454  EF2E  F012         	goto	u7560
  1681   002458                     u7561:
  1682   002458  EF72  F011         	goto	l6141
  1683   00245C                     u7560:
  1684   00245C                     l6159:
  1685   00245C  0101               	movlb	1	; () banked
  1686   00245E  4B14               	infsnz	_i& (0+255),f,b
  1687   002460  2B15               	incf	(_i+1)& (0+255),f,b
  1688   002462                     
  1689                           ; BSR set to: 1
  1690                           ;newmain.c: 159:        if(i>5){
  1691   002462  BF15               	btfsc	(_i+1)& (0+255),7,b
  1692   002464  EF3D  F012         	goto	u7571
  1693   002468  5115               	movf	(_i+1)& (0+255),w,b
  1694   00246A  E109               	bnz	u7570
  1695   00246C  0E06               	movlw	6
  1696   00246E  5D14               	subwf	_i& (0+255),w,b
  1697   002470  A0D8               	btfss	status,0,c
  1698   002472  EF3D  F012         	goto	u7571
  1699   002476  EF3F  F012         	goto	u7570
  1700   00247A                     u7571:
  1701   00247A  EF63  F010         	goto	l6101
  1702   00247E                     u7570:
  1703   00247E                     
  1704                           ; BSR set to: 1
  1705                           ;newmain.c: 160:            i=0;
  1706   00247E  0E00               	movlw	0
  1707   002480  6F15               	movwf	(_i+1)& (0+255),b
  1708   002482  0E00               	movlw	0
  1709   002484  6F14               	movwf	_i& (0+255),b
  1710   002486  EF61  F010         	goto	l6099
  1711   00248A  EF00  F000         	goto	start
  1712   00248E                     __end_of_main:
  1713                           	callstack 0
  1714                           
  1715 ;; *************** function _cosf *****************
  1716 ;; Defined at:
  1717 ;;		line 27 in file "C:\Program Files\Microchip\xc8\v2.45\pic\sources\c99\common\cosf.c"
  1718 ;; Parameters:    Size  Location     Type
  1719 ;;  x               4   58[BANK0 ] float 
  1720 ;; Auto vars:     Size  Location     Type
  1721 ;;  ix              4   80[BANK0 ] struct .
  1722 ;;  y               4   76[BANK0 ] struct .
  1723 ;;  sign            1   75[BANK0 ] _Bool 
  1724 ;;  n               1   70[BANK0 ] unsigned char 
  1725 ;; Return value:  Size  Location     Type
  1726 ;;                  4   58[BANK0 ] float 
  1727 ;; Registers used:
  1728 ;;		wreg, fsr2l, fsr2h, status,2, status,0, prodl, prodh, cstack
  1729 ;; Tracked objects:
  1730 ;;		On entry : 0/0
  1731 ;;		On exit  : 0/0
  1732 ;;		Unchanged: 0/0
  1733 ;; Data sizes:     COMRAM   BANK0   BANK1   BANK2   BANK3   BANK4   BANK5   BANK6   BANK7
  1734 ;;      Params:         0       4       0       0       0       0       0       0       0
  1735 ;;      Locals:         0      22       0       0       0       0       0       0       0
  1736 ;;      Temps:          2       0       0       0       0       0       0       0       0
  1737 ;;      Totals:         2      26       0       0       0       0       0       0       0
  1738 ;;Total ram usage:       28 bytes
  1739 ;; Hardware stack levels used: 1
  1740 ;; Hardware stack levels required when called: 3
  1741 ;; This function calls:
  1742 ;;		___cosdf
  1743 ;;		___fladd
  1744 ;;		___flneg
  1745 ;;		___flsub
  1746 ;;		___rem_pio2f
  1747 ;;		___sindf
  1748 ;; This function is called by:
  1749 ;;		_main
  1750 ;; This function uses a non-reentrant model
  1751 ;;
  1752                           
  1753                           	psect	text1
  1754   0012D2                     __ptext1:
  1755                           	callstack 0
  1756   0012D2                     _cosf:
  1757                           	callstack 27
  1758   0012D2  C09A  F0B0         	movff	cosf@x,cosf@ix
  1759   0012D6  C09B  F0B1         	movff	cosf@x+1,cosf@ix+1
  1760   0012DA  C09C  F0B2         	movff	cosf@x+2,cosf@ix+2
  1761   0012DE  C09D  F0B3         	movff	cosf@x+3,cosf@ix+3
  1762   0012E2  0100               	movlb	0	; () banked
  1763   0012E4  BFB3               	btfsc	(cosf@ix+3)& (0+255),7,b
  1764   0012E6  EF77  F009         	goto	u7391
  1765   0012EA  EF7A  F009         	goto	u7390
  1766   0012EE                     u7391:
  1767   0012EE  0E01               	movlw	1
  1768   0012F0  EF7B  F009         	goto	u7400
  1769   0012F4                     u7390:
  1770   0012F4  0E00               	movlw	0
  1771   0012F6                     u7400:
  1772   0012F6  6FAB               	movwf	cosf@sign& (0+255),b
  1773   0012F8                     
  1774                           ; BSR set to: 0
  1775   0012F8  9FB3               	bcf	(cosf@ix+3)& (0+255),7,b
  1776   0012FA                     
  1777                           ; BSR set to: 0
  1778   0012FA  0EDB               	movlw	219
  1779   0012FC  5DB0               	subwf	cosf@ix& (0+255),w,b
  1780   0012FE  0E0F               	movlw	15
  1781   001300  59B1               	subwfb	(cosf@ix+1)& (0+255),w,b
  1782   001302  0E49               	movlw	73
  1783   001304  59B2               	subwfb	(cosf@ix+2)& (0+255),w,b
  1784   001306  0E3F               	movlw	63
  1785   001308  59B3               	subwfb	(cosf@ix+3)& (0+255),w,b
  1786   00130A  B0D8               	btfsc	status,0,c
  1787   00130C  EF8A  F009         	goto	u7411
  1788   001310  EF8C  F009         	goto	u7410
  1789   001314                     u7411:
  1790   001314  EFB5  F009         	goto	l6001
  1791   001318                     u7410:
  1792   001318                     
  1793                           ; BSR set to: 0
  1794   001318  0E80               	movlw	128
  1795   00131A  5DB2               	subwf	(cosf@ix+2)& (0+255),w,b
  1796   00131C  0E39               	movlw	57
  1797   00131E  59B3               	subwfb	(cosf@ix+3)& (0+255),w,b
  1798   001320  B0D8               	btfsc	status,0,c
  1799   001322  EF95  F009         	goto	u7421
  1800   001326  EF97  F009         	goto	u7420
  1801   00132A                     u7421:
  1802   00132A  EFA1  F009         	goto	l5997
  1803   00132E                     u7420:
  1804   00132E                     
  1805                           ; BSR set to: 0
  1806   00132E  0E00               	movlw	0
  1807   001330  6F9A               	movwf	?_cosf& (0+255),b
  1808   001332  0E00               	movlw	0
  1809   001334  6F9B               	movwf	(?_cosf+1)& (0+255),b
  1810   001336  0E80               	movlw	128
  1811   001338  6F9C               	movwf	(?_cosf+2)& (0+255),b
  1812   00133A  0E3F               	movlw	63
  1813   00133C  6F9D               	movwf	(?_cosf+3)& (0+255),b
  1814   00133E  EFE5  F00B         	goto	l810
  1815   001342                     l5997:
  1816                           
  1817                           ; BSR set to: 0
  1818   001342  C09A  F051         	movff	cosf@x,___cosdf@x
  1819   001346  C09B  F052         	movff	cosf@x+1,___cosdf@x+1
  1820   00134A  C09C  F053         	movff	cosf@x+2,___cosdf@x+2
  1821   00134E  C09D  F054         	movff	cosf@x+3,___cosdf@x+3
  1822   001352  ECB8  F019         	call	___cosdf	;wreg free
  1823   001356  C051  F09A         	movff	?___cosdf,?_cosf
  1824   00135A  C052  F09B         	movff	?___cosdf+1,?_cosf+1
  1825   00135E  C053  F09C         	movff	?___cosdf+2,?_cosf+2
  1826   001362  C054  F09D         	movff	?___cosdf+3,?_cosf+3
  1827   001366  EFE5  F00B         	goto	l810
  1828   00136A                     l6001:
  1829                           
  1830                           ; BSR set to: 0
  1831   00136A  0ED2               	movlw	210
  1832   00136C  5DB0               	subwf	cosf@ix& (0+255),w,b
  1833   00136E  0E53               	movlw	83
  1834   001370  59B1               	subwfb	(cosf@ix+1)& (0+255),w,b
  1835   001372  0E7B               	movlw	123
  1836   001374  59B2               	subwfb	(cosf@ix+2)& (0+255),w,b
  1837   001376  0E40               	movlw	64
  1838   001378  59B3               	subwfb	(cosf@ix+3)& (0+255),w,b
  1839   00137A  B0D8               	btfsc	status,0,c
  1840   00137C  EFC2  F009         	goto	u7431
  1841   001380  EFC4  F009         	goto	u7430
  1842   001384                     u7431:
  1843   001384  EF8B  F00A         	goto	l6031
  1844   001388                     u7430:
  1845   001388                     
  1846                           ; BSR set to: 0
  1847   001388  0EE4               	movlw	228
  1848   00138A  5DB0               	subwf	cosf@ix& (0+255),w,b
  1849   00138C  0ECB               	movlw	203
  1850   00138E  59B1               	subwfb	(cosf@ix+1)& (0+255),w,b
  1851   001390  0E16               	movlw	22
  1852   001392  59B2               	subwfb	(cosf@ix+2)& (0+255),w,b
  1853   001394  0E40               	movlw	64
  1854   001396  59B3               	subwfb	(cosf@ix+3)& (0+255),w,b
  1855   001398  A0D8               	btfss	status,0,c
  1856   00139A  EFD1  F009         	goto	u7441
  1857   00139E  EFD3  F009         	goto	u7440
  1858   0013A2                     u7441:
  1859   0013A2  EF2F  F00A         	goto	l6017
  1860   0013A6                     u7440:
  1861   0013A6                     
  1862                           ; BSR set to: 0
  1863   0013A6  51AB               	movf	cosf@sign& (0+255),w,b
  1864   0013A8  A4D8               	btfss	status,2,c
  1865   0013AA  EFD9  F009         	goto	u7451
  1866   0013AE  EFDB  F009         	goto	u7450
  1867   0013B2                     u7451:
  1868   0013B2  EFF7  F009         	goto	l6009
  1869   0013B6                     u7450:
  1870   0013B6                     
  1871                           ; BSR set to: 0
  1872   0013B6  C09A  F041         	movff	cosf@x,___fladd@b
  1873   0013BA  C09B  F042         	movff	cosf@x+1,___fladd@b+1
  1874   0013BE  C09C  F043         	movff	cosf@x+2,___fladd@b+2
  1875   0013C2  C09D  F044         	movff	cosf@x+3,___fladd@b+3
  1876   0013C6  0EDB               	movlw	219
  1877   0013C8  6E45               	movwf	___fladd@a^0,c
  1878   0013CA  0E0F               	movlw	15
  1879   0013CC  6E46               	movwf	(___fladd@a+1)^0,c
  1880   0013CE  0E49               	movlw	73
  1881   0013D0  6E47               	movwf	(___fladd@a+2)^0,c
  1882   0013D2  0EC0               	movlw	192
  1883   0013D4  6E48               	movwf	(___fladd@a+3)^0,c
  1884   0013D6  ECE6  F00B         	call	___fladd	;wreg free
  1885   0013DA  C041  F09E         	movff	?___fladd,_cosf$589
  1886   0013DE  C042  F09F         	movff	?___fladd+1,_cosf$589+1
  1887   0013E2  C043  F0A0         	movff	?___fladd+2,_cosf$589+2
  1888   0013E6  C044  F0A1         	movff	?___fladd+3,_cosf$589+3
  1889   0013EA  EF11  F00A         	goto	l6011
  1890   0013EE                     l6009:
  1891                           
  1892                           ; BSR set to: 0
  1893   0013EE  C09A  F041         	movff	cosf@x,___fladd@b
  1894   0013F2  C09B  F042         	movff	cosf@x+1,___fladd@b+1
  1895   0013F6  C09C  F043         	movff	cosf@x+2,___fladd@b+2
  1896   0013FA  C09D  F044         	movff	cosf@x+3,___fladd@b+3
  1897   0013FE  0EDB               	movlw	219
  1898   001400  6E45               	movwf	___fladd@a^0,c
  1899   001402  0E0F               	movlw	15
  1900   001404  6E46               	movwf	(___fladd@a+1)^0,c
  1901   001406  0E49               	movlw	73
  1902   001408  6E47               	movwf	(___fladd@a+2)^0,c
  1903   00140A  0E40               	movlw	64
  1904   00140C  6E48               	movwf	(___fladd@a+3)^0,c
  1905   00140E  ECE6  F00B         	call	___fladd	;wreg free
  1906   001412  C041  F09E         	movff	?___fladd,_cosf$589
  1907   001416  C042  F09F         	movff	?___fladd+1,_cosf$589+1
  1908   00141A  C043  F0A0         	movff	?___fladd+2,_cosf$589+2
  1909   00141E  C044  F0A1         	movff	?___fladd+3,_cosf$589+3
  1910   001422                     l6011:
  1911   001422  C09E  F051         	movff	_cosf$589,___cosdf@x
  1912   001426  C09F  F052         	movff	_cosf$589+1,___cosdf@x+1
  1913   00142A  C0A0  F053         	movff	_cosf$589+2,___cosdf@x+2
  1914   00142E  C0A1  F054         	movff	_cosf$589+3,___cosdf@x+3
  1915   001432  ECB8  F019         	call	___cosdf	;wreg free
  1916   001436  C051  F078         	movff	?___cosdf,___flneg@f1
  1917   00143A  C052  F079         	movff	?___cosdf+1,___flneg@f1+1
  1918   00143E  C053  F07A         	movff	?___cosdf+2,___flneg@f1+2
  1919   001442  C054  F07B         	movff	?___cosdf+3,___flneg@f1+3
  1920   001446  ECCD  F022         	call	___flneg	;wreg free
  1921   00144A  C078  F09A         	movff	?___flneg,?_cosf
  1922   00144E  C079  F09B         	movff	?___flneg+1,?_cosf+1
  1923   001452  C07A  F09C         	movff	?___flneg+2,?_cosf+2
  1924   001456  C07B  F09D         	movff	?___flneg+3,?_cosf+3
  1925   00145A  EFE5  F00B         	goto	l810
  1926   00145E                     l6017:
  1927                           
  1928                           ; BSR set to: 0
  1929   00145E  51AB               	movf	cosf@sign& (0+255),w,b
  1930   001460  B4D8               	btfsc	status,2,c
  1931   001462  EF35  F00A         	goto	u7461
  1932   001466  EF37  F00A         	goto	u7460
  1933   00146A                     u7461:
  1934   00146A  EF65  F00A         	goto	l6027
  1935   00146E                     u7460:
  1936   00146E                     
  1937                           ; BSR set to: 0
  1938   00146E  C09A  F041         	movff	cosf@x,___fladd@b
  1939   001472  C09B  F042         	movff	cosf@x+1,___fladd@b+1
  1940   001476  C09C  F043         	movff	cosf@x+2,___fladd@b+2
  1941   00147A  C09D  F044         	movff	cosf@x+3,___fladd@b+3
  1942   00147E  0EDB               	movlw	219
  1943   001480  6E45               	movwf	___fladd@a^0,c
  1944   001482  0E0F               	movlw	15
  1945   001484  6E46               	movwf	(___fladd@a+1)^0,c
  1946   001486  0EC9               	movlw	201
  1947   001488  6E47               	movwf	(___fladd@a+2)^0,c
  1948   00148A  0E3F               	movlw	63
  1949   00148C  6E48               	movwf	(___fladd@a+3)^0,c
  1950   00148E  ECE6  F00B         	call	___fladd	;wreg free
  1951   001492  C041  F0A7         	movff	?___fladd,_cosf$1097
  1952   001496  C042  F0A8         	movff	?___fladd+1,_cosf$1097+1
  1953   00149A  C043  F0A9         	movff	?___fladd+2,_cosf$1097+2
  1954   00149E  C044  F0AA         	movff	?___fladd+3,_cosf$1097+3
  1955   0014A2                     l6021:
  1956   0014A2  C0A7  F059         	movff	_cosf$1097,___sindf@x
  1957   0014A6  C0A8  F05A         	movff	_cosf$1097+1,___sindf@x+1
  1958   0014AA  C0A9  F05B         	movff	_cosf$1097+2,___sindf@x+2
  1959   0014AE  C0AA  F05C         	movff	_cosf$1097+3,___sindf@x+3
  1960   0014B2  EC96  F017         	call	___sindf	;wreg free
  1961   0014B6  C059  F09A         	movff	?___sindf,?_cosf
  1962   0014BA  C05A  F09B         	movff	?___sindf+1,?_cosf+1
  1963   0014BE  C05B  F09C         	movff	?___sindf+2,?_cosf+2
  1964   0014C2  C05C  F09D         	movff	?___sindf+3,?_cosf+3
  1965   0014C6  EFE5  F00B         	goto	l810
  1966   0014CA                     l6027:
  1967                           
  1968                           ; BSR set to: 0
  1969   0014CA  0EDB               	movlw	219
  1970   0014CC  6E51               	movwf	___flsub@b^0,c
  1971   0014CE  0E0F               	movlw	15
  1972   0014D0  6E52               	movwf	(___flsub@b+1)^0,c
  1973   0014D2  0EC9               	movlw	201
  1974   0014D4  6E53               	movwf	(___flsub@b+2)^0,c
  1975   0014D6  0E3F               	movlw	63
  1976   0014D8  6E54               	movwf	(___flsub@b+3)^0,c
  1977   0014DA  C09A  F055         	movff	cosf@x,___flsub@a
  1978   0014DE  C09B  F056         	movff	cosf@x+1,___flsub@a+1
  1979   0014E2  C09C  F057         	movff	cosf@x+2,___flsub@a+2
  1980   0014E6  C09D  F058         	movff	cosf@x+3,___flsub@a+3
  1981   0014EA  EC49  F022         	call	___flsub	;wreg free
  1982   0014EE  C051  F059         	movff	?___flsub,___sindf@x
  1983   0014F2  C052  F05A         	movff	?___flsub+1,___sindf@x+1
  1984   0014F6  C053  F05B         	movff	?___flsub+2,___sindf@x+2
  1985   0014FA  C054  F05C         	movff	?___flsub+3,___sindf@x+3
  1986   0014FE  EC96  F017         	call	___sindf	;wreg free
  1987   001502  C059  F09A         	movff	?___sindf,?_cosf
  1988   001506  C05A  F09B         	movff	?___sindf+1,?_cosf+1
  1989   00150A  C05B  F09C         	movff	?___sindf+2,?_cosf+2
  1990   00150E  C05C  F09D         	movff	?___sindf+3,?_cosf+3
  1991   001512  EFE5  F00B         	goto	l810
  1992   001516                     l6031:
  1993                           
  1994                           ; BSR set to: 0
  1995   001516  0ED6               	movlw	214
  1996   001518  5DB0               	subwf	cosf@ix& (0+255),w,b
  1997   00151A  0E31               	movlw	49
  1998   00151C  59B1               	subwfb	(cosf@ix+1)& (0+255),w,b
  1999   00151E  0EE2               	movlw	226
  2000   001520  59B2               	subwfb	(cosf@ix+2)& (0+255),w,b
  2001   001522  0E40               	movlw	64
  2002   001524  59B3               	subwfb	(cosf@ix+3)& (0+255),w,b
  2003   001526  B0D8               	btfsc	status,0,c
  2004   001528  EF98  F00A         	goto	u7471
  2005   00152C  EF9A  F00A         	goto	u7470
  2006   001530                     u7471:
  2007   001530  EF45  F00B         	goto	l6061
  2008   001534                     u7470:
  2009   001534                     
  2010                           ; BSR set to: 0
  2011   001534  0EE0               	movlw	224
  2012   001536  5DB0               	subwf	cosf@ix& (0+255),w,b
  2013   001538  0EED               	movlw	237
  2014   00153A  59B1               	subwfb	(cosf@ix+1)& (0+255),w,b
  2015   00153C  0EAF               	movlw	175
  2016   00153E  59B2               	subwfb	(cosf@ix+2)& (0+255),w,b
  2017   001540  0E40               	movlw	64
  2018   001542  59B3               	subwfb	(cosf@ix+3)& (0+255),w,b
  2019   001544  A0D8               	btfss	status,0,c
  2020   001546  EFA7  F00A         	goto	u7481
  2021   00154A  EFA9  F00A         	goto	u7480
  2022   00154E                     u7481:
  2023   00154E  EFFB  F00A         	goto	l6047
  2024   001552                     u7480:
  2025   001552                     
  2026                           ; BSR set to: 0
  2027   001552  51AB               	movf	cosf@sign& (0+255),w,b
  2028   001554  A4D8               	btfss	status,2,c
  2029   001556  EFAF  F00A         	goto	u7491
  2030   00155A  EFB1  F00A         	goto	u7490
  2031   00155E                     u7491:
  2032   00155E  EFCD  F00A         	goto	l6039
  2033   001562                     u7490:
  2034   001562                     
  2035                           ; BSR set to: 0
  2036   001562  C09A  F041         	movff	cosf@x,___fladd@b
  2037   001566  C09B  F042         	movff	cosf@x+1,___fladd@b+1
  2038   00156A  C09C  F043         	movff	cosf@x+2,___fladd@b+2
  2039   00156E  C09D  F044         	movff	cosf@x+3,___fladd@b+3
  2040   001572  0EDB               	movlw	219
  2041   001574  6E45               	movwf	___fladd@a^0,c
  2042   001576  0E0F               	movlw	15
  2043   001578  6E46               	movwf	(___fladd@a+1)^0,c
  2044   00157A  0EC9               	movlw	201
  2045   00157C  6E47               	movwf	(___fladd@a+2)^0,c
  2046   00157E  0EC0               	movlw	192
  2047   001580  6E48               	movwf	(___fladd@a+3)^0,c
  2048   001582  ECE6  F00B         	call	___fladd	;wreg free
  2049   001586  C041  F0A2         	movff	?___fladd,_cosf$590
  2050   00158A  C042  F0A3         	movff	?___fladd+1,_cosf$590+1
  2051   00158E  C043  F0A4         	movff	?___fladd+2,_cosf$590+2
  2052   001592  C044  F0A5         	movff	?___fladd+3,_cosf$590+3
  2053   001596  EFE7  F00A         	goto	l6041
  2054   00159A                     l6039:
  2055                           
  2056                           ; BSR set to: 0
  2057   00159A  C09A  F041         	movff	cosf@x,___fladd@b
  2058   00159E  C09B  F042         	movff	cosf@x+1,___fladd@b+1
  2059   0015A2  C09C  F043         	movff	cosf@x+2,___fladd@b+2
  2060   0015A6  C09D  F044         	movff	cosf@x+3,___fladd@b+3
  2061   0015AA  0EDB               	movlw	219
  2062   0015AC  6E45               	movwf	___fladd@a^0,c
  2063   0015AE  0E0F               	movlw	15
  2064   0015B0  6E46               	movwf	(___fladd@a+1)^0,c
  2065   0015B2  0EC9               	movlw	201
  2066   0015B4  6E47               	movwf	(___fladd@a+2)^0,c
  2067   0015B6  0E40               	movlw	64
  2068   0015B8  6E48               	movwf	(___fladd@a+3)^0,c
  2069   0015BA  ECE6  F00B         	call	___fladd	;wreg free
  2070   0015BE  C041  F0A2         	movff	?___fladd,_cosf$590
  2071   0015C2  C042  F0A3         	movff	?___fladd+1,_cosf$590+1
  2072   0015C6  C043  F0A4         	movff	?___fladd+2,_cosf$590+2
  2073   0015CA  C044  F0A5         	movff	?___fladd+3,_cosf$590+3
  2074   0015CE                     l6041:
  2075   0015CE  C0A2  F051         	movff	_cosf$590,___cosdf@x
  2076   0015D2  C0A3  F052         	movff	_cosf$590+1,___cosdf@x+1
  2077   0015D6  C0A4  F053         	movff	_cosf$590+2,___cosdf@x+2
  2078   0015DA  C0A5  F054         	movff	_cosf$590+3,___cosdf@x+3
  2079   0015DE  ECB8  F019         	call	___cosdf	;wreg free
  2080   0015E2  C051  F09A         	movff	?___cosdf,?_cosf
  2081   0015E6  C052  F09B         	movff	?___cosdf+1,?_cosf+1
  2082   0015EA  C053  F09C         	movff	?___cosdf+2,?_cosf+2
  2083   0015EE  C054  F09D         	movff	?___cosdf+3,?_cosf+3
  2084   0015F2  EFE5  F00B         	goto	l810
  2085   0015F6                     l6047:
  2086                           
  2087                           ; BSR set to: 0
  2088   0015F6  51AB               	movf	cosf@sign& (0+255),w,b
  2089   0015F8  B4D8               	btfsc	status,2,c
  2090   0015FA  EF01  F00B         	goto	u7501
  2091   0015FE  EF03  F00B         	goto	u7500
  2092   001602                     u7501:
  2093   001602  EF29  F00B         	goto	l6055
  2094   001606                     u7500:
  2095   001606                     
  2096                           ; BSR set to: 0
  2097   001606  0EE4               	movlw	228
  2098   001608  6E51               	movwf	___flsub@b^0,c
  2099   00160A  0ECB               	movlw	203
  2100   00160C  6E52               	movwf	(___flsub@b+1)^0,c
  2101   00160E  0E96               	movlw	150
  2102   001610  6E53               	movwf	(___flsub@b+2)^0,c
  2103   001612  0EC0               	movlw	192
  2104   001614  6E54               	movwf	(___flsub@b+3)^0,c
  2105   001616  C09A  F055         	movff	cosf@x,___flsub@a
  2106   00161A  C09B  F056         	movff	cosf@x+1,___flsub@a+1
  2107   00161E  C09C  F057         	movff	cosf@x+2,___flsub@a+2
  2108   001622  C09D  F058         	movff	cosf@x+3,___flsub@a+3
  2109   001626  EC49  F022         	call	___flsub	;wreg free
  2110   00162A  C051  F059         	movff	?___flsub,___sindf@x
  2111   00162E  C052  F05A         	movff	?___flsub+1,___sindf@x+1
  2112   001632  C053  F05B         	movff	?___flsub+2,___sindf@x+2
  2113   001636  C054  F05C         	movff	?___flsub+3,___sindf@x+3
  2114   00163A  EC96  F017         	call	___sindf	;wreg free
  2115   00163E  C059  F09A         	movff	?___sindf,?_cosf
  2116   001642  C05A  F09B         	movff	?___sindf+1,?_cosf+1
  2117   001646  C05B  F09C         	movff	?___sindf+2,?_cosf+2
  2118   00164A  C05C  F09D         	movff	?___sindf+3,?_cosf+3
  2119   00164E  EFE5  F00B         	goto	l810
  2120   001652                     l6055:
  2121                           
  2122                           ; BSR set to: 0
  2123   001652  C09A  F041         	movff	cosf@x,___fladd@b
  2124   001656  C09B  F042         	movff	cosf@x+1,___fladd@b+1
  2125   00165A  C09C  F043         	movff	cosf@x+2,___fladd@b+2
  2126   00165E  C09D  F044         	movff	cosf@x+3,___fladd@b+3
  2127   001662  0EE4               	movlw	228
  2128   001664  6E45               	movwf	___fladd@a^0,c
  2129   001666  0ECB               	movlw	203
  2130   001668  6E46               	movwf	(___fladd@a+1)^0,c
  2131   00166A  0E96               	movlw	150
  2132   00166C  6E47               	movwf	(___fladd@a+2)^0,c
  2133   00166E  0EC0               	movlw	192
  2134   001670  6E48               	movwf	(___fladd@a+3)^0,c
  2135   001672  ECE6  F00B         	call	___fladd	;wreg free
  2136   001676  C041  F0A7         	movff	?___fladd,_cosf$1097
  2137   00167A  C042  F0A8         	movff	?___fladd+1,_cosf$1097+1
  2138   00167E  C043  F0A9         	movff	?___fladd+2,_cosf$1097+2
  2139   001682  C044  F0AA         	movff	?___fladd+3,_cosf$1097+3
  2140   001686  EF51  F00A         	goto	l6021
  2141   00168A                     l6061:
  2142                           
  2143                           ; BSR set to: 0
  2144   00168A  0E80               	movlw	128
  2145   00168C  5DB2               	subwf	(cosf@ix+2)& (0+255),w,b
  2146   00168E  0E7F               	movlw	127
  2147   001690  59B3               	subwfb	(cosf@ix+3)& (0+255),w,b
  2148   001692  A0D8               	btfss	status,0,c
  2149   001694  EF4E  F00B         	goto	u7511
  2150   001698  EF50  F00B         	goto	u7510
  2151   00169C                     u7511:
  2152   00169C  EF62  F00B         	goto	l6069
  2153   0016A0                     u7510:
  2154   0016A0                     
  2155                           ; BSR set to: 0
  2156   0016A0  0EFF               	movlw	255
  2157   0016A2  6FB0               	movwf	cosf@ix& (0+255),b
  2158   0016A4  0EFF               	movlw	255
  2159   0016A6  6FB1               	movwf	(cosf@ix+1)& (0+255),b
  2160   0016A8  0EFF               	movlw	255
  2161   0016AA  6FB2               	movwf	(cosf@ix+2)& (0+255),b
  2162   0016AC  0E7F               	movlw	127
  2163   0016AE  6FB3               	movwf	(cosf@ix+3)& (0+255),b
  2164   0016B0                     
  2165                           ; BSR set to: 0
  2166   0016B0  C0B0  F09A         	movff	cosf@ix,?_cosf
  2167   0016B4  C0B1  F09B         	movff	cosf@ix+1,?_cosf+1
  2168   0016B8  C0B2  F09C         	movff	cosf@ix+2,?_cosf+2
  2169   0016BC  C0B3  F09D         	movff	cosf@ix+3,?_cosf+3
  2170   0016C0  EFE5  F00B         	goto	l810
  2171   0016C4                     l6069:
  2172                           
  2173                           ; BSR set to: 0
  2174   0016C4  C09A  F07C         	movff	cosf@x,___rem_pio2f@x
  2175   0016C8  C09B  F07D         	movff	cosf@x+1,___rem_pio2f@x+1
  2176   0016CC  C09C  F07E         	movff	cosf@x+2,___rem_pio2f@x+2
  2177   0016D0  C09D  F07F         	movff	cosf@x+3,___rem_pio2f@x+3
  2178   0016D4  0EAC               	movlw	low cosf@y
  2179   0016D6  6F80               	movwf	___rem_pio2f@y& (0+255),b
  2180   0016D8  EC47  F012         	call	___rem_pio2f	;wreg free
  2181   0016DC  0100               	movlb	0	; () banked
  2182   0016DE  517C               	movf	?___rem_pio2f& (0+255),w,b
  2183   0016E0  0B03               	andlw	3
  2184   0016E2  6FA6               	movwf	cosf@n& (0+255),b
  2185   0016E4  EFCC  F00B         	goto	l6087
  2186   0016E8                     l6071:
  2187                           
  2188                           ; BSR set to: 0
  2189   0016E8  C0AC  F051         	movff	cosf@y,___cosdf@x
  2190   0016EC  C0AD  F052         	movff	cosf@y+1,___cosdf@x+1
  2191   0016F0  C0AE  F053         	movff	cosf@y+2,___cosdf@x+2
  2192   0016F4  C0AF  F054         	movff	cosf@y+3,___cosdf@x+3
  2193   0016F8  ECB8  F019         	call	___cosdf	;wreg free
  2194   0016FC  C051  F09A         	movff	?___cosdf,?_cosf
  2195   001700  C052  F09B         	movff	?___cosdf+1,?_cosf+1
  2196   001704  C053  F09C         	movff	?___cosdf+2,?_cosf+2
  2197   001708  C054  F09D         	movff	?___cosdf+3,?_cosf+3
  2198   00170C  EFE5  F00B         	goto	l810
  2199   001710                     l6075:
  2200                           
  2201                           ; BSR set to: 0
  2202   001710  C0AC  F051         	movff	cosf@y,___cosdf@x
  2203   001714  C0AD  F052         	movff	cosf@y+1,___cosdf@x+1
  2204   001718  C0AE  F053         	movff	cosf@y+2,___cosdf@x+2
  2205   00171C  C0AF  F054         	movff	cosf@y+3,___cosdf@x+3
  2206   001720  ECB8  F019         	call	___cosdf	;wreg free
  2207   001724  C051  F078         	movff	?___cosdf,___flneg@f1
  2208   001728  C052  F079         	movff	?___cosdf+1,___flneg@f1+1
  2209   00172C  C053  F07A         	movff	?___cosdf+2,___flneg@f1+2
  2210   001730  C054  F07B         	movff	?___cosdf+3,___flneg@f1+3
  2211   001734  ECCD  F022         	call	___flneg	;wreg free
  2212   001738  C078  F09A         	movff	?___flneg,?_cosf
  2213   00173C  C079  F09B         	movff	?___flneg+1,?_cosf+1
  2214   001740  C07A  F09C         	movff	?___flneg+2,?_cosf+2
  2215   001744  C07B  F09D         	movff	?___flneg+3,?_cosf+3
  2216   001748  EFE5  F00B         	goto	l810
  2217   00174C                     l6079:
  2218                           
  2219                           ; BSR set to: 0
  2220   00174C  C0AC  F078         	movff	cosf@y,___flneg@f1
  2221   001750  C0AD  F079         	movff	cosf@y+1,___flneg@f1+1
  2222   001754  C0AE  F07A         	movff	cosf@y+2,___flneg@f1+2
  2223   001758  C0AF  F07B         	movff	cosf@y+3,___flneg@f1+3
  2224   00175C  ECCD  F022         	call	___flneg	;wreg free
  2225   001760  C078  F0AC         	movff	?___flneg,cosf@y
  2226   001764  C079  F0AD         	movff	?___flneg+1,cosf@y+1
  2227   001768  C07A  F0AE         	movff	?___flneg+2,cosf@y+2
  2228   00176C  C07B  F0AF         	movff	?___flneg+3,cosf@y+3
  2229   001770                     l6081:
  2230   001770  C0AC  F059         	movff	cosf@y,___sindf@x
  2231   001774  C0AD  F05A         	movff	cosf@y+1,___sindf@x+1
  2232   001778  C0AE  F05B         	movff	cosf@y+2,___sindf@x+2
  2233   00177C  C0AF  F05C         	movff	cosf@y+3,___sindf@x+3
  2234   001780  EC96  F017         	call	___sindf	;wreg free
  2235   001784  C059  F09A         	movff	?___sindf,?_cosf
  2236   001788  C05A  F09B         	movff	?___sindf+1,?_cosf+1
  2237   00178C  C05B  F09C         	movff	?___sindf+2,?_cosf+2
  2238   001790  C05C  F09D         	movff	?___sindf+3,?_cosf+3
  2239   001794  EFE5  F00B         	goto	l810
  2240   001798                     l6087:
  2241                           
  2242                           ; BSR set to: 0
  2243   001798  51A6               	movf	cosf@n& (0+255),w,b
  2244   00179A  6E5D               	movwf	??_cosf^0,c
  2245   00179C  6A5E               	clrf	(??_cosf+1)^0,c
  2246                           
  2247                           ; Switch on 2 bytes has been partitioned into a top level switch of size 1, and 1 sub-sw
      +                          itches
  2248                           ; Switch size 1, requested type "simple"
  2249                           ; Number of cases is 1, Range of values is 0 to 0
  2250                           ; switch strategies available:
  2251                           ; Name         Instructions Cycles
  2252                           ; simple_byte            4     3 (average)
  2253                           ;	Chosen strategy is simple_byte
  2254   00179E  505E               	movf	(??_cosf+1)^0,w,c
  2255   0017A0  0A00               	xorlw	0	; case 0
  2256   0017A2  B4D8               	btfsc	status,2,c
  2257   0017A4  EFD6  F00B         	goto	l6349
  2258   0017A8  EFB8  F00B         	goto	l6081
  2259   0017AC                     l6349:
  2260                           
  2261                           ; BSR set to: 0
  2262                           ; Switch size 1, requested type "simple"
  2263                           ; Number of cases is 3, Range of values is 0 to 2
  2264                           ; switch strategies available:
  2265                           ; Name         Instructions Cycles
  2266                           ; simple_byte           10     6 (average)
  2267                           ;	Chosen strategy is simple_byte
  2268   0017AC  505D               	movf	??_cosf^0,w,c
  2269   0017AE  0A00               	xorlw	0	; case 0
  2270   0017B0  B4D8               	btfsc	status,2,c
  2271   0017B2  EF74  F00B         	goto	l6071
  2272   0017B6  0A01               	xorlw	1	; case 1
  2273   0017B8  B4D8               	btfsc	status,2,c
  2274   0017BA  EFA6  F00B         	goto	l6079
  2275   0017BE  0A03               	xorlw	3	; case 2
  2276   0017C0  B4D8               	btfsc	status,2,c
  2277   0017C2  EF88  F00B         	goto	l6075
  2278   0017C6  EFB8  F00B         	goto	l6081
  2279   0017CA                     l810:
  2280   0017CA  0012               	return		;funcret
  2281   0017CC                     __end_of_cosf:
  2282                           	callstack 0
  2283                           
  2284 ;; *************** function ___sindf *****************
  2285 ;; Defined at:
  2286 ;;		line 26 in file "C:\Program Files\Microchip\xc8\v2.45\pic\sources\c99\common\__sindf.c"
  2287 ;; Parameters:    Size  Location     Type
  2288 ;;  x               4   88[COMRAM] float 
  2289 ;; Auto vars:     Size  Location     Type
  2290 ;;  z               4   24[BANK0 ] float 
  2291 ;;  s               4   20[BANK0 ] float 
  2292 ;;  w               4    4[BANK0 ] float 
  2293 ;;  r               4    0[BANK0 ] float 
  2294 ;; Return value:  Size  Location     Type
  2295 ;;                  4   88[COMRAM] float 
  2296 ;; Registers used:
  2297 ;;		wreg, status,2, status,0, prodl, prodh, cstack
  2298 ;; Tracked objects:
  2299 ;;		On entry : 0/0
  2300 ;;		On exit  : 0/0
  2301 ;;		Unchanged: 0/0
  2302 ;; Data sizes:     COMRAM   BANK0   BANK1   BANK2   BANK3   BANK4   BANK5   BANK6   BANK7
  2303 ;;      Params:         4       0       0       0       0       0       0       0       0
  2304 ;;      Locals:         0      28       0       0       0       0       0       0       0
  2305 ;;      Temps:          0       0       0       0       0       0       0       0       0
  2306 ;;      Totals:         4      28       0       0       0       0       0       0       0
  2307 ;;Total ram usage:       32 bytes
  2308 ;; Hardware stack levels used: 1
  2309 ;; Hardware stack levels required when called: 1
  2310 ;; This function calls:
  2311 ;;		___fladd
  2312 ;;		___flmul
  2313 ;; This function is called by:
  2314 ;;		_cosf
  2315 ;; This function uses a non-reentrant model
  2316 ;;
  2317                           
  2318                           	psect	text2
  2319   002F2C                     __ptext2:
  2320                           	callstack 0
  2321   002F2C                     ___sindf:
  2322                           	callstack 28
  2323   002F2C  C059  F028         	movff	___sindf@x,___flmul@b
  2324   002F30  C05A  F029         	movff	___sindf@x+1,___flmul@b+1
  2325   002F34  C05B  F02A         	movff	___sindf@x+2,___flmul@b+2
  2326   002F38  C05C  F02B         	movff	___sindf@x+3,___flmul@b+3
  2327   002F3C  C059  F02C         	movff	___sindf@x,___flmul@a
  2328   002F40  C05A  F02D         	movff	___sindf@x+1,___flmul@a+1
  2329   002F44  C05B  F02E         	movff	___sindf@x+2,___flmul@a+2
  2330   002F48  C05C  F02F         	movff	___sindf@x+3,___flmul@a+3
  2331   002F4C  EC46  F00E         	call	___flmul	;wreg free
  2332   002F50  C028  F078         	movff	?___flmul,___sindf@z
  2333   002F54  C029  F079         	movff	?___flmul+1,___sindf@z+1
  2334   002F58  C02A  F07A         	movff	?___flmul+2,___sindf@z+2
  2335   002F5C  C02B  F07B         	movff	?___flmul+3,___sindf@z+3
  2336   002F60  C078  F028         	movff	___sindf@z,___flmul@b
  2337   002F64  C079  F029         	movff	___sindf@z+1,___flmul@b+1
  2338   002F68  C07A  F02A         	movff	___sindf@z+2,___flmul@b+2
  2339   002F6C  C07B  F02B         	movff	___sindf@z+3,___flmul@b+3
  2340   002F70  C078  F02C         	movff	___sindf@z,___flmul@a
  2341   002F74  C079  F02D         	movff	___sindf@z+1,___flmul@a+1
  2342   002F78  C07A  F02E         	movff	___sindf@z+2,___flmul@a+2
  2343   002F7C  C07B  F02F         	movff	___sindf@z+3,___flmul@a+3
  2344   002F80  EC46  F00E         	call	___flmul	;wreg free
  2345   002F84  C028  F064         	movff	?___flmul,___sindf@w
  2346   002F88  C029  F065         	movff	?___flmul+1,___sindf@w+1
  2347   002F8C  C02A  F066         	movff	?___flmul+2,___sindf@w+2
  2348   002F90  C02B  F067         	movff	?___flmul+3,___sindf@w+3
  2349   002F94  0E3C               	movlw	60
  2350   002F96  6E2C               	movwf	___flmul@a^0,c
  2351   002F98  0E6C               	movlw	108
  2352   002F9A  6E2D               	movwf	(___flmul@a+1)^0,c
  2353   002F9C  0E36               	movlw	54
  2354   002F9E  6E2E               	movwf	(___flmul@a+2)^0,c
  2355   002FA0  0E36               	movlw	54
  2356   002FA2  6E2F               	movwf	(___flmul@a+3)^0,c
  2357   002FA4  C078  F028         	movff	___sindf@z,___flmul@b
  2358   002FA8  C079  F029         	movff	___sindf@z+1,___flmul@b+1
  2359   002FAC  C07A  F02A         	movff	___sindf@z+2,___flmul@b+2
  2360   002FB0  C07B  F02B         	movff	___sindf@z+3,___flmul@b+3
  2361   002FB4  EC46  F00E         	call	___flmul	;wreg free
  2362   002FB8  C028  F041         	movff	?___flmul,___fladd@b
  2363   002FBC  C029  F042         	movff	?___flmul+1,___fladd@b+1
  2364   002FC0  C02A  F043         	movff	?___flmul+2,___fladd@b+2
  2365   002FC4  C02B  F044         	movff	?___flmul+3,___fladd@b+3
  2366   002FC8  0ECF               	movlw	207
  2367   002FCA  6E45               	movwf	___fladd@a^0,c
  2368   002FCC  0E07               	movlw	7
  2369   002FCE  6E46               	movwf	(___fladd@a+1)^0,c
  2370   002FD0  0E50               	movlw	80
  2371   002FD2  6E47               	movwf	(___fladd@a+2)^0,c
  2372   002FD4  0EB9               	movlw	185
  2373   002FD6  6E48               	movwf	(___fladd@a+3)^0,c
  2374   002FD8  ECE6  F00B         	call	___fladd	;wreg free
  2375   002FDC  C041  F060         	movff	?___fladd,___sindf@r
  2376   002FE0  C042  F061         	movff	?___fladd+1,___sindf@r+1
  2377   002FE4  C043  F062         	movff	?___fladd+2,___sindf@r+2
  2378   002FE8  C044  F063         	movff	?___fladd+3,___sindf@r+3
  2379   002FEC  C078  F028         	movff	___sindf@z,___flmul@b
  2380   002FF0  C079  F029         	movff	___sindf@z+1,___flmul@b+1
  2381   002FF4  C07A  F02A         	movff	___sindf@z+2,___flmul@b+2
  2382   002FF8  C07B  F02B         	movff	___sindf@z+3,___flmul@b+3
  2383   002FFC  C059  F02C         	movff	___sindf@x,___flmul@a
  2384   003000  C05A  F02D         	movff	___sindf@x+1,___flmul@a+1
  2385   003004  C05B  F02E         	movff	___sindf@x+2,___flmul@a+2
  2386   003008  C05C  F02F         	movff	___sindf@x+3,___flmul@a+3
  2387   00300C  EC46  F00E         	call	___flmul	;wreg free
  2388   003010  C028  F074         	movff	?___flmul,___sindf@s
  2389   003014  C029  F075         	movff	?___flmul+1,___sindf@s+1
  2390   003018  C02A  F076         	movff	?___flmul+2,___sindf@s+2
  2391   00301C  C02B  F077         	movff	?___flmul+3,___sindf@s+3
  2392   003020  0EAB               	movlw	171
  2393   003022  6E45               	movwf	___fladd@a^0,c
  2394   003024  0EAA               	movlw	170
  2395   003026  6E46               	movwf	(___fladd@a+1)^0,c
  2396   003028  0E2A               	movlw	42
  2397   00302A  6E47               	movwf	(___fladd@a+2)^0,c
  2398   00302C  0EBE               	movlw	190
  2399   00302E  6E48               	movwf	(___fladd@a+3)^0,c
  2400   003030  0E84               	movlw	132
  2401   003032  6E2C               	movwf	___flmul@a^0,c
  2402   003034  0E88               	movlw	136
  2403   003036  6E2D               	movwf	(___flmul@a+1)^0,c
  2404   003038  0E08               	movlw	8
  2405   00303A  6E2E               	movwf	(___flmul@a+2)^0,c
  2406   00303C  0E3C               	movlw	60
  2407   00303E  6E2F               	movwf	(___flmul@a+3)^0,c
  2408   003040  C078  F028         	movff	___sindf@z,___flmul@b
  2409   003044  C079  F029         	movff	___sindf@z+1,___flmul@b+1
  2410   003048  C07A  F02A         	movff	___sindf@z+2,___flmul@b+2
  2411   00304C  C07B  F02B         	movff	___sindf@z+3,___flmul@b+3
  2412   003050  EC46  F00E         	call	___flmul	;wreg free
  2413   003054  C028  F041         	movff	?___flmul,___fladd@b
  2414   003058  C029  F042         	movff	?___flmul+1,___fladd@b+1
  2415   00305C  C02A  F043         	movff	?___flmul+2,___fladd@b+2
  2416   003060  C02B  F044         	movff	?___flmul+3,___fladd@b+3
  2417   003064  ECE6  F00B         	call	___fladd	;wreg free
  2418   003068  C041  F068         	movff	?___fladd,___sindf$1102
  2419   00306C  C042  F069         	movff	?___fladd+1,___sindf$1102+1
  2420   003070  C043  F06A         	movff	?___fladd+2,___sindf$1102+2
  2421   003074  C044  F06B         	movff	?___fladd+3,___sindf$1102+3
  2422   003078  C064  F02C         	movff	___sindf@w,___flmul@a
  2423   00307C  C065  F02D         	movff	___sindf@w+1,___flmul@a+1
  2424   003080  C066  F02E         	movff	___sindf@w+2,___flmul@a+2
  2425   003084  C067  F02F         	movff	___sindf@w+3,___flmul@a+3
  2426   003088  C074  F028         	movff	___sindf@s,___flmul@b
  2427   00308C  C075  F029         	movff	___sindf@s+1,___flmul@b+1
  2428   003090  C076  F02A         	movff	___sindf@s+2,___flmul@b+2
  2429   003094  C077  F02B         	movff	___sindf@s+3,___flmul@b+3
  2430   003098  EC46  F00E         	call	___flmul	;wreg free
  2431   00309C  C028  F06C         	movff	?___flmul,___sindf$1103
  2432   0030A0  C029  F06D         	movff	?___flmul+1,___sindf$1103+1
  2433   0030A4  C02A  F06E         	movff	?___flmul+2,___sindf$1103+2
  2434   0030A8  C02B  F06F         	movff	?___flmul+3,___sindf$1103+3
  2435   0030AC  C059  F045         	movff	___sindf@x,___fladd@a
  2436   0030B0  C05A  F046         	movff	___sindf@x+1,___fladd@a+1
  2437   0030B4  C05B  F047         	movff	___sindf@x+2,___fladd@a+2
  2438   0030B8  C05C  F048         	movff	___sindf@x+3,___fladd@a+3
  2439   0030BC  C074  F02C         	movff	___sindf@s,___flmul@a
  2440   0030C0  C075  F02D         	movff	___sindf@s+1,___flmul@a+1
  2441   0030C4  C076  F02E         	movff	___sindf@s+2,___flmul@a+2
  2442   0030C8  C077  F02F         	movff	___sindf@s+3,___flmul@a+3
  2443   0030CC  C068  F028         	movff	___sindf$1102,___flmul@b
  2444   0030D0  C069  F029         	movff	___sindf$1102+1,___flmul@b+1
  2445   0030D4  C06A  F02A         	movff	___sindf$1102+2,___flmul@b+2
  2446   0030D8  C06B  F02B         	movff	___sindf$1102+3,___flmul@b+3
  2447   0030DC  EC46  F00E         	call	___flmul	;wreg free
  2448   0030E0  C028  F041         	movff	?___flmul,___fladd@b
  2449   0030E4  C029  F042         	movff	?___flmul+1,___fladd@b+1
  2450   0030E8  C02A  F043         	movff	?___flmul+2,___fladd@b+2
  2451   0030EC  C02B  F044         	movff	?___flmul+3,___fladd@b+3
  2452   0030F0  ECE6  F00B         	call	___fladd	;wreg free
  2453   0030F4  C041  F070         	movff	?___fladd,___sindf$1104
  2454   0030F8  C042  F071         	movff	?___fladd+1,___sindf$1104+1
  2455   0030FC  C043  F072         	movff	?___fladd+2,___sindf$1104+2
  2456   003100  C044  F073         	movff	?___fladd+3,___sindf$1104+3
  2457   003104  C070  F041         	movff	___sindf$1104,___fladd@b
  2458   003108  C071  F042         	movff	___sindf$1104+1,___fladd@b+1
  2459   00310C  C072  F043         	movff	___sindf$1104+2,___fladd@b+2
  2460   003110  C073  F044         	movff	___sindf$1104+3,___fladd@b+3
  2461   003114  C060  F02C         	movff	___sindf@r,___flmul@a
  2462   003118  C061  F02D         	movff	___sindf@r+1,___flmul@a+1
  2463   00311C  C062  F02E         	movff	___sindf@r+2,___flmul@a+2
  2464   003120  C063  F02F         	movff	___sindf@r+3,___flmul@a+3
  2465   003124  C06C  F028         	movff	___sindf$1103,___flmul@b
  2466   003128  C06D  F029         	movff	___sindf$1103+1,___flmul@b+1
  2467   00312C  C06E  F02A         	movff	___sindf$1103+2,___flmul@b+2
  2468   003130  C06F  F02B         	movff	___sindf$1103+3,___flmul@b+3
  2469   003134  EC46  F00E         	call	___flmul	;wreg free
  2470   003138  C028  F045         	movff	?___flmul,___fladd@a
  2471   00313C  C029  F046         	movff	?___flmul+1,___fladd@a+1
  2472   003140  C02A  F047         	movff	?___flmul+2,___fladd@a+2
  2473   003144  C02B  F048         	movff	?___flmul+3,___fladd@a+3
  2474   003148  ECE6  F00B         	call	___fladd	;wreg free
  2475   00314C  C041  F059         	movff	?___fladd,?___sindf
  2476   003150  C042  F05A         	movff	?___fladd+1,?___sindf+1
  2477   003154  C043  F05B         	movff	?___fladd+2,?___sindf+2
  2478   003158  C044  F05C         	movff	?___fladd+3,?___sindf+3
  2479   00315C  0012               	return		;funcret
  2480   00315E                     __end_of___sindf:
  2481                           	callstack 0
  2482                           
  2483 ;; *************** function ___rem_pio2f *****************
  2484 ;; Defined at:
  2485 ;;		line 44 in file "C:\Program Files\Microchip\xc8\v2.45\pic\sources\c99\common\__rem_pio2f.c"
  2486 ;; Parameters:    Size  Location     Type
  2487 ;;  x               4   28[BANK0 ] float 
  2488 ;;  y               1   32[BANK0 ] PTR 
  2489 ;;		 -> cosf@y(4), 
  2490 ;; Auto vars:     Size  Location     Type
  2491 ;;  n               4   54[BANK0 ] long 
  2492 ;;  t               4   50[BANK0 ] float 
  2493 ;;  fn              4   46[BANK0 ] float 
  2494 ;;  ux              4   42[BANK0 ] struct .
  2495 ;;  ty              4   33[BANK0 ] [1]
  2496 ;;  sign            1   41[BANK0 ] _Bool 
  2497 ;; Return value:  Size  Location     Type
  2498 ;;                  2   28[BANK0 ] int 
  2499 ;; Registers used:
  2500 ;;		wreg, fsr2l, fsr2h, status,2, status,0, prodl, prodh, cstack
  2501 ;; Tracked objects:
  2502 ;;		On entry : 0/0
  2503 ;;		On exit  : 0/0
  2504 ;;		Unchanged: 0/0
  2505 ;; Data sizes:     COMRAM   BANK0   BANK1   BANK2   BANK3   BANK4   BANK5   BANK6   BANK7
  2506 ;;      Params:         0       5       0       0       0       0       0       0       0
  2507 ;;      Locals:         0      25       0       0       0       0       0       0       0
  2508 ;;      Temps:          2       0       0       0       0       0       0       0       0
  2509 ;;      Totals:         2      30       0       0       0       0       0       0       0
  2510 ;;Total ram usage:       32 bytes
  2511 ;; Hardware stack levels used: 1
  2512 ;; Hardware stack levels required when called: 2
  2513 ;; This function calls:
  2514 ;;		___fladd
  2515 ;;		___flmul
  2516 ;;		___flneg
  2517 ;;		___flsub
  2518 ;;		___fltol
  2519 ;;		___xxtofl
  2520 ;;		_fabsf
  2521 ;; This function is called by:
  2522 ;;		_cosf
  2523 ;; This function uses a non-reentrant model
  2524 ;;
  2525                           
  2526                           	psect	text3
  2527   00248E                     __ptext3:
  2528                           	callstack 0
  2529   00248E                     ___rem_pio2f:
  2530                           	callstack 27
  2531   00248E  C10C  F08A         	movff	___rem_pio2f@F526,___rem_pio2f@ux
  2532   002492  C10D  F08B         	movff	___rem_pio2f@F526+1,___rem_pio2f@ux+1
  2533   002496  C10E  F08C         	movff	___rem_pio2f@F526+2,___rem_pio2f@ux+2
  2534   00249A  C10F  F08D         	movff	___rem_pio2f@F526+3,___rem_pio2f@ux+3
  2535   00249E  C07C  F08A         	movff	___rem_pio2f@x,___rem_pio2f@ux
  2536   0024A2  C07D  F08B         	movff	___rem_pio2f@x+1,___rem_pio2f@ux+1
  2537   0024A6  C07E  F08C         	movff	___rem_pio2f@x+2,___rem_pio2f@ux+2
  2538   0024AA  C07F  F08D         	movff	___rem_pio2f@x+3,___rem_pio2f@ux+3
  2539   0024AE  0100               	movlb	0	; () banked
  2540   0024B0  BF8D               	btfsc	(___rem_pio2f@ux+3)& (0+255),7,b
  2541   0024B2  EF5D  F012         	goto	u7341
  2542   0024B6  EF60  F012         	goto	u7340
  2543   0024BA                     u7341:
  2544   0024BA  0E01               	movlw	1
  2545   0024BC  EF61  F012         	goto	u7350
  2546   0024C0                     u7340:
  2547   0024C0  0E00               	movlw	0
  2548   0024C2                     u7350:
  2549   0024C2  6F89               	movwf	___rem_pio2f@sign& (0+255),b
  2550   0024C4                     
  2551                           ; BSR set to: 0
  2552   0024C4  9F8D               	bcf	(___rem_pio2f@ux+3)& (0+255),7,b
  2553   0024C6                     
  2554                           ; BSR set to: 0
  2555   0024C6  0EDB               	movlw	219
  2556   0024C8  5D8A               	subwf	___rem_pio2f@ux& (0+255),w,b
  2557   0024CA  0E0F               	movlw	15
  2558   0024CC  598B               	subwfb	(___rem_pio2f@ux+1)& (0+255),w,b
  2559   0024CE  0EC9               	movlw	201
  2560   0024D0  598C               	subwfb	(___rem_pio2f@ux+2)& (0+255),w,b
  2561   0024D2  0E4D               	movlw	77
  2562   0024D4  598D               	subwfb	(___rem_pio2f@ux+3)& (0+255),w,b
  2563   0024D6  B0D8               	btfsc	status,0,c
  2564   0024D8  EF70  F012         	goto	u7361
  2565   0024DC  EF72  F012         	goto	u7360
  2566   0024E0                     u7361:
  2567   0024E0  EF5E  F013         	goto	l5959
  2568   0024E4                     u7360:
  2569   0024E4                     
  2570                           ; BSR set to: 0
  2571   0024E4  C07C  F001         	movff	___rem_pio2f@x,fabsf@x
  2572   0024E8  C07D  F002         	movff	___rem_pio2f@x+1,fabsf@x+1
  2573   0024EC  C07E  F003         	movff	___rem_pio2f@x+2,fabsf@x+2
  2574   0024F0  C07F  F004         	movff	___rem_pio2f@x+3,fabsf@x+3
  2575   0024F4  ECEA  F022         	call	_fabsf	;wreg free
  2576   0024F8  C001  F092         	movff	?_fabsf,___rem_pio2f@t
  2577   0024FC  C002  F093         	movff	?_fabsf+1,___rem_pio2f@t+1
  2578   002500  C003  F094         	movff	?_fabsf+2,___rem_pio2f@t+2
  2579   002504  C004  F095         	movff	?_fabsf+3,___rem_pio2f@t+3
  2580   002508  0E00               	movlw	0
  2581   00250A  6E45               	movwf	___fladd@a^0,c
  2582   00250C  0E00               	movlw	0
  2583   00250E  6E46               	movwf	(___fladd@a+1)^0,c
  2584   002510  0E00               	movlw	0
  2585   002512  6E47               	movwf	(___fladd@a+2)^0,c
  2586   002514  0E3F               	movlw	63
  2587   002516  6E48               	movwf	(___fladd@a+3)^0,c
  2588   002518  0E83               	movlw	131
  2589   00251A  6E2C               	movwf	___flmul@a^0,c
  2590   00251C  0EF9               	movlw	249
  2591   00251E  6E2D               	movwf	(___flmul@a+1)^0,c
  2592   002520  0E22               	movlw	34
  2593   002522  6E2E               	movwf	(___flmul@a+2)^0,c
  2594   002524  0E3F               	movlw	63
  2595   002526  6E2F               	movwf	(___flmul@a+3)^0,c
  2596   002528  C092  F028         	movff	___rem_pio2f@t,___flmul@b
  2597   00252C  C093  F029         	movff	___rem_pio2f@t+1,___flmul@b+1
  2598   002530  C094  F02A         	movff	___rem_pio2f@t+2,___flmul@b+2
  2599   002534  C095  F02B         	movff	___rem_pio2f@t+3,___flmul@b+3
  2600   002538  EC46  F00E         	call	___flmul	;wreg free
  2601   00253C  C028  F041         	movff	?___flmul,___fladd@b
  2602   002540  C029  F042         	movff	?___flmul+1,___fladd@b+1
  2603   002544  C02A  F043         	movff	?___flmul+2,___fladd@b+2
  2604   002548  C02B  F044         	movff	?___flmul+3,___fladd@b+3
  2605   00254C  ECE6  F00B         	call	___fladd	;wreg free
  2606   002550  C041  F051         	movff	?___fladd,___fltol@f1
  2607   002554  C042  F052         	movff	?___fladd+1,___fltol@f1+1
  2608   002558  C043  F053         	movff	?___fladd+2,___fltol@f1+2
  2609   00255C  C044  F054         	movff	?___fladd+3,___fltol@f1+3
  2610   002560  ECE4  F01D         	call	___fltol	;wreg free
  2611   002564  C051  F096         	movff	?___fltol,___rem_pio2f@n
  2612   002568  C052  F097         	movff	?___fltol+1,___rem_pio2f@n+1
  2613   00256C  C053  F098         	movff	?___fltol+2,___rem_pio2f@n+2
  2614   002570  C054  F099         	movff	?___fltol+3,___rem_pio2f@n+3
  2615   002574  C096  F001         	movff	___rem_pio2f@n,___xxtofl@val
  2616   002578  C097  F002         	movff	___rem_pio2f@n+1,___xxtofl@val+1
  2617   00257C  C098  F003         	movff	___rem_pio2f@n+2,___xxtofl@val+2
  2618   002580  C099  F004         	movff	___rem_pio2f@n+3,___xxtofl@val+3
  2619   002584  0E01               	movlw	1
  2620   002586  EC94  F01B         	call	___xxtofl
  2621   00258A  C001  F08E         	movff	?___xxtofl,___rem_pio2f@fn
  2622   00258E  C002  F08F         	movff	?___xxtofl+1,___rem_pio2f@fn+1
  2623   002592  C003  F090         	movff	?___xxtofl+2,___rem_pio2f@fn+2
  2624   002596  C004  F091         	movff	?___xxtofl+3,___rem_pio2f@fn+3
  2625   00259A  0EDA               	movlw	218
  2626   00259C  6E2C               	movwf	___flmul@a^0,c
  2627   00259E  0E0F               	movlw	15
  2628   0025A0  6E2D               	movwf	(___flmul@a+1)^0,c
  2629   0025A2  0EC9               	movlw	201
  2630   0025A4  6E2E               	movwf	(___flmul@a+2)^0,c
  2631   0025A6  0E3F               	movlw	63
  2632   0025A8  6E2F               	movwf	(___flmul@a+3)^0,c
  2633   0025AA  C08E  F028         	movff	___rem_pio2f@fn,___flmul@b
  2634   0025AE  C08F  F029         	movff	___rem_pio2f@fn+1,___flmul@b+1
  2635   0025B2  C090  F02A         	movff	___rem_pio2f@fn+2,___flmul@b+2
  2636   0025B6  C091  F02B         	movff	___rem_pio2f@fn+3,___flmul@b+3
  2637   0025BA  EC46  F00E         	call	___flmul	;wreg free
  2638   0025BE  C028  F055         	movff	?___flmul,___flsub@a
  2639   0025C2  C029  F056         	movff	?___flmul+1,___flsub@a+1
  2640   0025C6  C02A  F057         	movff	?___flmul+2,___flsub@a+2
  2641   0025CA  C02B  F058         	movff	?___flmul+3,___flsub@a+3
  2642   0025CE  C092  F051         	movff	___rem_pio2f@t,___flsub@b
  2643   0025D2  C093  F052         	movff	___rem_pio2f@t+1,___flsub@b+1
  2644   0025D6  C094  F053         	movff	___rem_pio2f@t+2,___flsub@b+2
  2645   0025DA  C095  F054         	movff	___rem_pio2f@t+3,___flsub@b+3
  2646   0025DE  EC49  F022         	call	___flsub	;wreg free
  2647   0025E2  C051  F085         	movff	?___flsub,___rem_pio2f$1101
  2648   0025E6  C052  F086         	movff	?___flsub+1,___rem_pio2f$1101+1
  2649   0025EA  C053  F087         	movff	?___flsub+2,___rem_pio2f$1101+2
  2650   0025EE  C054  F088         	movff	?___flsub+3,___rem_pio2f$1101+3
  2651   0025F2  C085  F051         	movff	___rem_pio2f$1101,___flsub@b
  2652   0025F6  C086  F052         	movff	___rem_pio2f$1101+1,___flsub@b+1
  2653   0025FA  C087  F053         	movff	___rem_pio2f$1101+2,___flsub@b+2
  2654   0025FE  C088  F054         	movff	___rem_pio2f$1101+3,___flsub@b+3
  2655   002602  0EA3               	movlw	163
  2656   002604  6E2C               	movwf	___flmul@a^0,c
  2657   002606  0E85               	movlw	133
  2658   002608  6E2D               	movwf	(___flmul@a+1)^0,c
  2659   00260A  0E88               	movlw	136
  2660   00260C  6E2E               	movwf	(___flmul@a+2)^0,c
  2661   00260E  0E32               	movlw	50
  2662   002610  6E2F               	movwf	(___flmul@a+3)^0,c
  2663   002612  C08E  F028         	movff	___rem_pio2f@fn,___flmul@b
  2664   002616  C08F  F029         	movff	___rem_pio2f@fn+1,___flmul@b+1
  2665   00261A  C090  F02A         	movff	___rem_pio2f@fn+2,___flmul@b+2
  2666   00261E  C091  F02B         	movff	___rem_pio2f@fn+3,___flmul@b+3
  2667   002622  EC46  F00E         	call	___flmul	;wreg free
  2668   002626  C028  F055         	movff	?___flmul,___flsub@a
  2669   00262A  C029  F056         	movff	?___flmul+1,___flsub@a+1
  2670   00262E  C02A  F057         	movff	?___flmul+2,___flsub@a+2
  2671   002632  C02B  F058         	movff	?___flmul+3,___flsub@a+3
  2672   002636  EC49  F022         	call	___flsub	;wreg free
  2673   00263A  0100               	movlb	0	; () banked
  2674   00263C  5180               	movf	___rem_pio2f@y& (0+255),w,b
  2675   00263E  6ED9               	movwf	fsr2l,c
  2676   002640  6ADA               	clrf	fsr2h,c
  2677   002642  C051  FFDE         	movff	?___flsub,postinc2
  2678   002646  C052  FFDE         	movff	?___flsub+1,postinc2
  2679   00264A  C053  FFDE         	movff	?___flsub+2,postinc2
  2680   00264E  C054  FFDE         	movff	?___flsub+3,postinc2
  2681   002652                     
  2682                           ; BSR set to: 0
  2683   002652  5189               	movf	___rem_pio2f@sign& (0+255),w,b
  2684   002654  B4D8               	btfsc	status,2,c
  2685   002656  EF2F  F013         	goto	u7371
  2686   00265A  EF31  F013         	goto	u7370
  2687   00265E                     u7371:
  2688   00265E  EF58  F013         	goto	l862
  2689   002662                     u7370:
  2690   002662                     l5953:
  2691                           
  2692                           ; BSR set to: 0
  2693   002662  5180               	movf	___rem_pio2f@y& (0+255),w,b
  2694   002664  6ED9               	movwf	fsr2l,c
  2695   002666  6ADA               	clrf	fsr2h,c
  2696   002668  CFDE F078          	movff	postinc2,___flneg@f1
  2697   00266C  CFDE F079          	movff	postinc2,___flneg@f1+1
  2698   002670  CFDE F07A          	movff	postinc2,___flneg@f1+2
  2699   002674  CFDE F07B          	movff	postinc2,___flneg@f1+3
  2700   002678  ECCD  F022         	call	___flneg	;wreg free
  2701   00267C  0100               	movlb	0	; () banked
  2702   00267E  5180               	movf	___rem_pio2f@y& (0+255),w,b
  2703   002680  6ED9               	movwf	fsr2l,c
  2704   002682  6ADA               	clrf	fsr2h,c
  2705   002684  C078  FFDE         	movff	?___flneg,postinc2
  2706   002688  C079  FFDE         	movff	?___flneg+1,postinc2
  2707   00268C  C07A  FFDE         	movff	?___flneg+2,postinc2
  2708   002690  C07B  FFDE         	movff	?___flneg+3,postinc2
  2709   002694                     
  2710                           ; BSR set to: 0
  2711   002694  C096  F05B         	movff	___rem_pio2f@n,??___rem_pio2f
  2712   002698  C097  F05C         	movff	___rem_pio2f@n+1,??___rem_pio2f+1
  2713   00269C  1E5B               	comf	??___rem_pio2f^0,f,c
  2714   00269E  1E5C               	comf	(??___rem_pio2f+1)^0,f,c
  2715   0026A0  4A5B               	infsnz	??___rem_pio2f^0,f,c
  2716   0026A2  2A5C               	incf	(??___rem_pio2f+1)^0,f,c
  2717   0026A4  C05B  F07C         	movff	??___rem_pio2f,?___rem_pio2f
  2718   0026A8  C05C  F07D         	movff	??___rem_pio2f+1,?___rem_pio2f+1
  2719   0026AC  EF27  F014         	goto	l863
  2720   0026B0                     l862:
  2721                           
  2722                           ; BSR set to: 0
  2723   0026B0  C096  F07C         	movff	___rem_pio2f@n,?___rem_pio2f
  2724   0026B4  C097  F07D         	movff	___rem_pio2f@n+1,?___rem_pio2f+1
  2725   0026B8  EF27  F014         	goto	l863
  2726   0026BC                     l5959:
  2727                           
  2728                           ; BSR set to: 0
  2729   0026BC  C07C  F001         	movff	___rem_pio2f@x,fabsf@x
  2730   0026C0  C07D  F002         	movff	___rem_pio2f@x+1,fabsf@x+1
  2731   0026C4  C07E  F003         	movff	___rem_pio2f@x+2,fabsf@x+2
  2732   0026C8  C07F  F004         	movff	___rem_pio2f@x+3,fabsf@x+3
  2733   0026CC  ECEA  F022         	call	_fabsf	;wreg free
  2734   0026D0  C001  F092         	movff	?_fabsf,___rem_pio2f@t
  2735   0026D4  C002  F093         	movff	?_fabsf+1,___rem_pio2f@t+1
  2736   0026D8  C003  F094         	movff	?_fabsf+2,___rem_pio2f@t+2
  2737   0026DC  C004  F095         	movff	?_fabsf+3,___rem_pio2f@t+3
  2738   0026E0  0E00               	movlw	0
  2739   0026E2  6E45               	movwf	___fladd@a^0,c
  2740   0026E4  0E00               	movlw	0
  2741   0026E6  6E46               	movwf	(___fladd@a+1)^0,c
  2742   0026E8  0E00               	movlw	0
  2743   0026EA  6E47               	movwf	(___fladd@a+2)^0,c
  2744   0026EC  0E3F               	movlw	63
  2745   0026EE  6E48               	movwf	(___fladd@a+3)^0,c
  2746   0026F0  0E83               	movlw	131
  2747   0026F2  6E2C               	movwf	___flmul@a^0,c
  2748   0026F4  0EF9               	movlw	249
  2749   0026F6  6E2D               	movwf	(___flmul@a+1)^0,c
  2750   0026F8  0E22               	movlw	34
  2751   0026FA  6E2E               	movwf	(___flmul@a+2)^0,c
  2752   0026FC  0E3F               	movlw	63
  2753   0026FE  6E2F               	movwf	(___flmul@a+3)^0,c
  2754   002700  C092  F028         	movff	___rem_pio2f@t,___flmul@b
  2755   002704  C093  F029         	movff	___rem_pio2f@t+1,___flmul@b+1
  2756   002708  C094  F02A         	movff	___rem_pio2f@t+2,___flmul@b+2
  2757   00270C  C095  F02B         	movff	___rem_pio2f@t+3,___flmul@b+3
  2758   002710  EC46  F00E         	call	___flmul	;wreg free
  2759   002714  C028  F041         	movff	?___flmul,___fladd@b
  2760   002718  C029  F042         	movff	?___flmul+1,___fladd@b+1
  2761   00271C  C02A  F043         	movff	?___flmul+2,___fladd@b+2
  2762   002720  C02B  F044         	movff	?___flmul+3,___fladd@b+3
  2763   002724  ECE6  F00B         	call	___fladd	;wreg free
  2764   002728  C041  F051         	movff	?___fladd,___fltol@f1
  2765   00272C  C042  F052         	movff	?___fladd+1,___fltol@f1+1
  2766   002730  C043  F053         	movff	?___fladd+2,___fltol@f1+2
  2767   002734  C044  F054         	movff	?___fladd+3,___fltol@f1+3
  2768   002738  ECE4  F01D         	call	___fltol	;wreg free
  2769   00273C  C051  F096         	movff	?___fltol,___rem_pio2f@n
  2770   002740  C052  F097         	movff	?___fltol+1,___rem_pio2f@n+1
  2771   002744  C053  F098         	movff	?___fltol+2,___rem_pio2f@n+2
  2772   002748  C054  F099         	movff	?___fltol+3,___rem_pio2f@n+3
  2773   00274C  C096  F001         	movff	___rem_pio2f@n,___xxtofl@val
  2774   002750  C097  F002         	movff	___rem_pio2f@n+1,___xxtofl@val+1
  2775   002754  C098  F003         	movff	___rem_pio2f@n+2,___xxtofl@val+2
  2776   002758  C099  F004         	movff	___rem_pio2f@n+3,___xxtofl@val+3
  2777   00275C  0E01               	movlw	1
  2778   00275E  EC94  F01B         	call	___xxtofl
  2779   002762  C001  F08E         	movff	?___xxtofl,___rem_pio2f@fn
  2780   002766  C002  F08F         	movff	?___xxtofl+1,___rem_pio2f@fn+1
  2781   00276A  C003  F090         	movff	?___xxtofl+2,___rem_pio2f@fn+2
  2782   00276E  C004  F091         	movff	?___xxtofl+3,___rem_pio2f@fn+3
  2783   002772  0EDA               	movlw	218
  2784   002774  6E2C               	movwf	___flmul@a^0,c
  2785   002776  0E0F               	movlw	15
  2786   002778  6E2D               	movwf	(___flmul@a+1)^0,c
  2787   00277A  0EC9               	movlw	201
  2788   00277C  6E2E               	movwf	(___flmul@a+2)^0,c
  2789   00277E  0E3F               	movlw	63
  2790   002780  6E2F               	movwf	(___flmul@a+3)^0,c
  2791   002782  C08E  F028         	movff	___rem_pio2f@fn,___flmul@b
  2792   002786  C08F  F029         	movff	___rem_pio2f@fn+1,___flmul@b+1
  2793   00278A  C090  F02A         	movff	___rem_pio2f@fn+2,___flmul@b+2
  2794   00278E  C091  F02B         	movff	___rem_pio2f@fn+3,___flmul@b+3
  2795   002792  EC46  F00E         	call	___flmul	;wreg free
  2796   002796  C028  F055         	movff	?___flmul,___flsub@a
  2797   00279A  C029  F056         	movff	?___flmul+1,___flsub@a+1
  2798   00279E  C02A  F057         	movff	?___flmul+2,___flsub@a+2
  2799   0027A2  C02B  F058         	movff	?___flmul+3,___flsub@a+3
  2800   0027A6  C092  F051         	movff	___rem_pio2f@t,___flsub@b
  2801   0027AA  C093  F052         	movff	___rem_pio2f@t+1,___flsub@b+1
  2802   0027AE  C094  F053         	movff	___rem_pio2f@t+2,___flsub@b+2
  2803   0027B2  C095  F054         	movff	___rem_pio2f@t+3,___flsub@b+3
  2804   0027B6  EC49  F022         	call	___flsub	;wreg free
  2805   0027BA  C051  F085         	movff	?___flsub,___rem_pio2f$1101
  2806   0027BE  C052  F086         	movff	?___flsub+1,___rem_pio2f$1101+1
  2807   0027C2  C053  F087         	movff	?___flsub+2,___rem_pio2f$1101+2
  2808   0027C6  C054  F088         	movff	?___flsub+3,___rem_pio2f$1101+3
  2809   0027CA  C085  F051         	movff	___rem_pio2f$1101,___flsub@b
  2810   0027CE  C086  F052         	movff	___rem_pio2f$1101+1,___flsub@b+1
  2811   0027D2  C087  F053         	movff	___rem_pio2f$1101+2,___flsub@b+2
  2812   0027D6  C088  F054         	movff	___rem_pio2f$1101+3,___flsub@b+3
  2813   0027DA  0EA3               	movlw	163
  2814   0027DC  6E2C               	movwf	___flmul@a^0,c
  2815   0027DE  0E85               	movlw	133
  2816   0027E0  6E2D               	movwf	(___flmul@a+1)^0,c
  2817   0027E2  0E88               	movlw	136
  2818   0027E4  6E2E               	movwf	(___flmul@a+2)^0,c
  2819   0027E6  0E32               	movlw	50
  2820   0027E8  6E2F               	movwf	(___flmul@a+3)^0,c
  2821   0027EA  C08E  F028         	movff	___rem_pio2f@fn,___flmul@b
  2822   0027EE  C08F  F029         	movff	___rem_pio2f@fn+1,___flmul@b+1
  2823   0027F2  C090  F02A         	movff	___rem_pio2f@fn+2,___flmul@b+2
  2824   0027F6  C091  F02B         	movff	___rem_pio2f@fn+3,___flmul@b+3
  2825   0027FA  EC46  F00E         	call	___flmul	;wreg free
  2826   0027FE  C028  F055         	movff	?___flmul,___flsub@a
  2827   002802  C029  F056         	movff	?___flmul+1,___flsub@a+1
  2828   002806  C02A  F057         	movff	?___flmul+2,___flsub@a+2
  2829   00280A  C02B  F058         	movff	?___flmul+3,___flsub@a+3
  2830   00280E  EC49  F022         	call	___flsub	;wreg free
  2831   002812  C051  F081         	movff	?___flsub,___rem_pio2f@ty
  2832   002816  C052  F082         	movff	?___flsub+1,___rem_pio2f@ty+1
  2833   00281A  C053  F083         	movff	?___flsub+2,___rem_pio2f@ty+2
  2834   00281E  C054  F084         	movff	?___flsub+3,___rem_pio2f@ty+3
  2835   002822  0100               	movlb	0	; () banked
  2836   002824  5180               	movf	___rem_pio2f@y& (0+255),w,b
  2837   002826  6ED9               	movwf	fsr2l,c
  2838   002828  6ADA               	clrf	fsr2h,c
  2839   00282A  C081  FFDE         	movff	___rem_pio2f@ty,postinc2
  2840   00282E  C082  FFDE         	movff	___rem_pio2f@ty+1,postinc2
  2841   002832  C083  FFDE         	movff	___rem_pio2f@ty+2,postinc2
  2842   002836  C084  FFDE         	movff	___rem_pio2f@ty+3,postinc2
  2843   00283A                     
  2844                           ; BSR set to: 0
  2845   00283A  5189               	movf	___rem_pio2f@sign& (0+255),w,b
  2846   00283C  B4D8               	btfsc	status,2,c
  2847   00283E  EF23  F014         	goto	u7381
  2848   002842  EF25  F014         	goto	u7380
  2849   002846                     u7381:
  2850   002846  EF58  F013         	goto	l862
  2851   00284A                     u7380:
  2852   00284A  EF31  F013         	goto	l5953
  2853   00284E                     l863:
  2854                           
  2855                           ; BSR set to: 0
  2856   00284E  0012               	return		;funcret
  2857   002850                     __end_of___rem_pio2f:
  2858                           	callstack 0
  2859                           
  2860 ;; *************** function _fabsf *****************
  2861 ;; Defined at:
  2862 ;;		line 4 in file "C:\Program Files\Microchip\xc8\v2.45\pic\sources\c99\common\fabsf.c"
  2863 ;; Parameters:    Size  Location     Type
  2864 ;;  x               4    0[COMRAM] float 
  2865 ;; Auto vars:     Size  Location     Type
  2866 ;;  u               4    4[COMRAM] struct .
  2867 ;; Return value:  Size  Location     Type
  2868 ;;                  4    0[COMRAM] float 
  2869 ;; Registers used:
  2870 ;;		status,2, status,0
  2871 ;; Tracked objects:
  2872 ;;		On entry : 0/0
  2873 ;;		On exit  : 0/0
  2874 ;;		Unchanged: 0/0
  2875 ;; Data sizes:     COMRAM   BANK0   BANK1   BANK2   BANK3   BANK4   BANK5   BANK6   BANK7
  2876 ;;      Params:         4       0       0       0       0       0       0       0       0
  2877 ;;      Locals:         4       0       0       0       0       0       0       0       0
  2878 ;;      Temps:          0       0       0       0       0       0       0       0       0
  2879 ;;      Totals:         8       0       0       0       0       0       0       0       0
  2880 ;;Total ram usage:        8 bytes
  2881 ;; Hardware stack levels used: 1
  2882 ;; This function calls:
  2883 ;;		Nothing
  2884 ;; This function is called by:
  2885 ;;		___rem_pio2f
  2886 ;; This function uses a non-reentrant model
  2887 ;;
  2888                           
  2889                           	psect	text4
  2890   0045D4                     __ptext4:
  2891                           	callstack 0
  2892   0045D4                     _fabsf:
  2893                           	callstack 28
  2894   0045D4  C108  F005         	movff	fabsf@F465,fabsf@u
  2895   0045D8  C109  F006         	movff	fabsf@F465+1,fabsf@u+1
  2896   0045DC  C10A  F007         	movff	fabsf@F465+2,fabsf@u+2
  2897   0045E0  C10B  F008         	movff	fabsf@F465+3,fabsf@u+3
  2898   0045E4  C001  F005         	movff	fabsf@x,fabsf@u
  2899   0045E8  C002  F006         	movff	fabsf@x+1,fabsf@u+1
  2900   0045EC  C003  F007         	movff	fabsf@x+2,fabsf@u+2
  2901   0045F0  C004  F008         	movff	fabsf@x+3,fabsf@u+3
  2902   0045F4  9E08               	bcf	(fabsf@u+3)^0,7,c
  2903   0045F6  C005  F001         	movff	fabsf@u,?_fabsf
  2904   0045FA  C006  F002         	movff	fabsf@u+1,?_fabsf+1
  2905   0045FE  C007  F003         	movff	fabsf@u+2,?_fabsf+2
  2906   004602  C008  F004         	movff	fabsf@u+3,?_fabsf+3
  2907   004606  0012               	return		;funcret
  2908   004608                     __end_of_fabsf:
  2909                           	callstack 0
  2910                           
  2911 ;; *************** function ___xxtofl *****************
  2912 ;; Defined at:
  2913 ;;		line 10 in file "C:\Program Files\Microchip\xc8\v2.45\pic\sources\c99\common\xxtofl.c"
  2914 ;; Parameters:    Size  Location     Type
  2915 ;;  sign            1    wreg     unsigned char 
  2916 ;;  val             4    0[COMRAM] long 
  2917 ;; Auto vars:     Size  Location     Type
  2918 ;;  sign            1    8[COMRAM] unsigned char 
  2919 ;;  arg             4   10[COMRAM] unsigned long 
  2920 ;;  exp             1    9[COMRAM] unsigned char 
  2921 ;; Return value:  Size  Location     Type
  2922 ;;                  4    0[COMRAM] unsigned char 
  2923 ;; Registers used:
  2924 ;;		wreg, status,2, status,0
  2925 ;; Tracked objects:
  2926 ;;		On entry : 0/0
  2927 ;;		On exit  : 0/0
  2928 ;;		Unchanged: 0/0
  2929 ;; Data sizes:     COMRAM   BANK0   BANK1   BANK2   BANK3   BANK4   BANK5   BANK6   BANK7
  2930 ;;      Params:         4       0       0       0       0       0       0       0       0
  2931 ;;      Locals:         6       0       0       0       0       0       0       0       0
  2932 ;;      Temps:          4       0       0       0       0       0       0       0       0
  2933 ;;      Totals:        14       0       0       0       0       0       0       0       0
  2934 ;;Total ram usage:       14 bytes
  2935 ;; Hardware stack levels used: 1
  2936 ;; This function calls:
  2937 ;;		Nothing
  2938 ;; This function is called by:
  2939 ;;		_main
  2940 ;;		___rem_pio2f
  2941 ;; This function uses a non-reentrant model
  2942 ;;
  2943                           
  2944                           	psect	text5
  2945   003728                     __ptext5:
  2946                           	callstack 0
  2947   003728                     ___xxtofl:
  2948                           	callstack 28
  2949                           
  2950                           ;incstack = 0
  2951                           ;___xxtofl@sign stored from wreg
  2952   003728  6E09               	movwf	___xxtofl@sign^0,c
  2953   00372A  5009               	movf	___xxtofl@sign^0,w,c
  2954   00372C  B4D8               	btfsc	status,2,c
  2955   00372E  EF9B  F01B         	goto	u4821
  2956   003732  EF9D  F01B         	goto	u4820
  2957   003736                     u4821:
  2958   003736  EFBF  F01B         	goto	l775
  2959   00373A                     u4820:
  2960   00373A  BE04               	btfsc	(___xxtofl@val+3)^0,7,c
  2961   00373C  EFA4  F01B         	goto	u4830
  2962   003740  EFA2  F01B         	goto	u4831
  2963   003744                     u4831:
  2964   003744  EFBF  F01B         	goto	l775
  2965   003748                     u4830:
  2966   003748  C001  F005         	movff	___xxtofl@val,??___xxtofl
  2967   00374C  C002  F006         	movff	___xxtofl@val+1,??___xxtofl+1
  2968   003750  C003  F007         	movff	___xxtofl@val+2,??___xxtofl+2
  2969   003754  C004  F008         	movff	___xxtofl@val+3,??___xxtofl+3
  2970   003758  1E05               	comf	??___xxtofl^0,f,c
  2971   00375A  1E06               	comf	(??___xxtofl+1)^0,f,c
  2972   00375C  1E07               	comf	(??___xxtofl+2)^0,f,c
  2973   00375E  1E08               	comf	(??___xxtofl+3)^0,f,c
  2974   003760  2A05               	incf	??___xxtofl^0,f,c
  2975   003762  0E00               	movlw	0
  2976   003764  2206               	addwfc	(??___xxtofl+1)^0,f,c
  2977   003766  2207               	addwfc	(??___xxtofl+2)^0,f,c
  2978   003768  2208               	addwfc	(??___xxtofl+3)^0,f,c
  2979   00376A  C005  F00B         	movff	??___xxtofl,___xxtofl@arg
  2980   00376E  C006  F00C         	movff	??___xxtofl+1,___xxtofl@arg+1
  2981   003772  C007  F00D         	movff	??___xxtofl+2,___xxtofl@arg+2
  2982   003776  C008  F00E         	movff	??___xxtofl+3,___xxtofl@arg+3
  2983   00377A  EFC7  F01B         	goto	l4159
  2984   00377E                     l775:
  2985   00377E  C001  F00B         	movff	___xxtofl@val,___xxtofl@arg
  2986   003782  C002  F00C         	movff	___xxtofl@val+1,___xxtofl@arg+1
  2987   003786  C003  F00D         	movff	___xxtofl@val+2,___xxtofl@arg+2
  2988   00378A  C004  F00E         	movff	___xxtofl@val+3,___xxtofl@arg+3
  2989   00378E                     l4159:
  2990   00378E  5001               	movf	___xxtofl@val^0,w,c
  2991   003790  1002               	iorwf	(___xxtofl@val+1)^0,w,c
  2992   003792  1003               	iorwf	(___xxtofl@val+2)^0,w,c
  2993   003794  1004               	iorwf	(___xxtofl@val+3)^0,w,c
  2994   003796  A4D8               	btfss	status,2,c
  2995   003798  EFD0  F01B         	goto	u4841
  2996   00379C  EFD2  F01B         	goto	u4840
  2997   0037A0                     u4841:
  2998   0037A0  EFDC  F01B         	goto	l4165
  2999   0037A4                     u4840:
  3000   0037A4  0E00               	movlw	0
  3001   0037A6  6E01               	movwf	?___xxtofl^0,c
  3002   0037A8  0E00               	movlw	0
  3003   0037AA  6E02               	movwf	(?___xxtofl+1)^0,c
  3004   0037AC  0E00               	movlw	0
  3005   0037AE  6E03               	movwf	(?___xxtofl+2)^0,c
  3006   0037B0  0E00               	movlw	0
  3007   0037B2  6E04               	movwf	(?___xxtofl+3)^0,c
  3008   0037B4  EF6D  F01C         	goto	l778
  3009   0037B8                     l4165:
  3010   0037B8  0E96               	movlw	150
  3011   0037BA  6E0A               	movwf	___xxtofl@exp^0,c
  3012   0037BC  EFE6  F01B         	goto	l4169
  3013   0037C0                     l4167:
  3014   0037C0  2A0A               	incf	___xxtofl@exp^0,f,c
  3015   0037C2  90D8               	bcf	status,0,c
  3016   0037C4  320E               	rrcf	(___xxtofl@arg+3)^0,f,c
  3017   0037C6  320D               	rrcf	(___xxtofl@arg+2)^0,f,c
  3018   0037C8  320C               	rrcf	(___xxtofl@arg+1)^0,f,c
  3019   0037CA  320B               	rrcf	___xxtofl@arg^0,f,c
  3020   0037CC                     l4169:
  3021   0037CC  0E00               	movlw	0
  3022   0037CE  140B               	andwf	___xxtofl@arg^0,w,c
  3023   0037D0  6E05               	movwf	??___xxtofl^0,c
  3024   0037D2  0E00               	movlw	0
  3025   0037D4  140C               	andwf	(___xxtofl@arg+1)^0,w,c
  3026   0037D6  6E06               	movwf	(??___xxtofl+1)^0,c
  3027   0037D8  0E00               	movlw	0
  3028   0037DA  140D               	andwf	(___xxtofl@arg+2)^0,w,c
  3029   0037DC  6E07               	movwf	(??___xxtofl+2)^0,c
  3030   0037DE  0EFE               	movlw	254
  3031   0037E0  140E               	andwf	(___xxtofl@arg+3)^0,w,c
  3032   0037E2  6E08               	movwf	(??___xxtofl+3)^0,c
  3033   0037E4  5005               	movf	??___xxtofl^0,w,c
  3034   0037E6  1006               	iorwf	(??___xxtofl+1)^0,w,c
  3035   0037E8  1007               	iorwf	(??___xxtofl+2)^0,w,c
  3036   0037EA  1008               	iorwf	(??___xxtofl+3)^0,w,c
  3037   0037EC  A4D8               	btfss	status,2,c
  3038   0037EE  EFFB  F01B         	goto	u4851
  3039   0037F2  EFFD  F01B         	goto	u4850
  3040   0037F6                     u4851:
  3041   0037F6  EFE0  F01B         	goto	l4167
  3042   0037FA                     u4850:
  3043   0037FA  EF0B  F01C         	goto	l782
  3044   0037FE                     l4171:
  3045   0037FE  2A0A               	incf	___xxtofl@exp^0,f,c
  3046   003800  0E01               	movlw	1
  3047   003802  260B               	addwf	___xxtofl@arg^0,f,c
  3048   003804  0E00               	movlw	0
  3049   003806  220C               	addwfc	(___xxtofl@arg+1)^0,f,c
  3050   003808  220D               	addwfc	(___xxtofl@arg+2)^0,f,c
  3051   00380A  220E               	addwfc	(___xxtofl@arg+3)^0,f,c
  3052   00380C  90D8               	bcf	status,0,c
  3053   00380E  320E               	rrcf	(___xxtofl@arg+3)^0,f,c
  3054   003810  320D               	rrcf	(___xxtofl@arg+2)^0,f,c
  3055   003812  320C               	rrcf	(___xxtofl@arg+1)^0,f,c
  3056   003814  320B               	rrcf	___xxtofl@arg^0,f,c
  3057   003816                     l782:
  3058   003816  0E00               	movlw	0
  3059   003818  140B               	andwf	___xxtofl@arg^0,w,c
  3060   00381A  6E05               	movwf	??___xxtofl^0,c
  3061   00381C  0E00               	movlw	0
  3062   00381E  140C               	andwf	(___xxtofl@arg+1)^0,w,c
  3063   003820  6E06               	movwf	(??___xxtofl+1)^0,c
  3064   003822  0E00               	movlw	0
  3065   003824  140D               	andwf	(___xxtofl@arg+2)^0,w,c
  3066   003826  6E07               	movwf	(??___xxtofl+2)^0,c
  3067   003828  0EFF               	movlw	255
  3068   00382A  140E               	andwf	(___xxtofl@arg+3)^0,w,c
  3069   00382C  6E08               	movwf	(??___xxtofl+3)^0,c
  3070   00382E  5005               	movf	??___xxtofl^0,w,c
  3071   003830  1006               	iorwf	(??___xxtofl+1)^0,w,c
  3072   003832  1007               	iorwf	(??___xxtofl+2)^0,w,c
  3073   003834  1008               	iorwf	(??___xxtofl+3)^0,w,c
  3074   003836  A4D8               	btfss	status,2,c
  3075   003838  EF20  F01C         	goto	u4861
  3076   00383C  EF22  F01C         	goto	u4860
  3077   003840                     u4861:
  3078   003840  EFFF  F01B         	goto	l4171
  3079   003844                     u4860:
  3080   003844  EF2A  F01C         	goto	l4179
  3081   003848                     l4177:
  3082   003848  060A               	decf	___xxtofl@exp^0,f,c
  3083   00384A  90D8               	bcf	status,0,c
  3084   00384C  360B               	rlcf	___xxtofl@arg^0,f,c
  3085   00384E  360C               	rlcf	(___xxtofl@arg+1)^0,f,c
  3086   003850  360D               	rlcf	(___xxtofl@arg+2)^0,f,c
  3087   003852  360E               	rlcf	(___xxtofl@arg+3)^0,f,c
  3088   003854                     l4179:
  3089   003854  BE0D               	btfsc	(___xxtofl@arg+2)^0,7,c
  3090   003856  EF2F  F01C         	goto	u4871
  3091   00385A  EF31  F01C         	goto	u4870
  3092   00385E                     u4871:
  3093   00385E  EF39  F01C         	goto	l789
  3094   003862                     u4870:
  3095   003862  0E02               	movlw	2
  3096   003864  600A               	cpfslt	___xxtofl@exp^0,c
  3097   003866  EF37  F01C         	goto	u4881
  3098   00386A  EF39  F01C         	goto	u4880
  3099   00386E                     u4881:
  3100   00386E  EF24  F01C         	goto	l4177
  3101   003872                     u4880:
  3102   003872                     l789:
  3103   003872  B00A               	btfsc	___xxtofl@exp^0,0,c
  3104   003874  EF3E  F01C         	goto	u4891
  3105   003878  EF40  F01C         	goto	u4890
  3106   00387C                     u4891:
  3107   00387C  EF41  F01C         	goto	l4185
  3108   003880                     u4890:
  3109   003880  9E0D               	bcf	(___xxtofl@arg+2)^0,7,c
  3110   003882                     l4185:
  3111   003882  90D8               	bcf	status,0,c
  3112   003884  320A               	rrcf	___xxtofl@exp^0,f,c
  3113   003886  C00A  F005         	movff	___xxtofl@exp,??___xxtofl
  3114   00388A  6A06               	clrf	(??___xxtofl+1)^0,c
  3115   00388C  6A07               	clrf	(??___xxtofl+2)^0,c
  3116   00388E  6A08               	clrf	(??___xxtofl+3)^0,c
  3117   003890  C005  F008         	movff	??___xxtofl,??___xxtofl+3
  3118   003894  6A07               	clrf	(??___xxtofl+2)^0,c
  3119   003896  6A06               	clrf	(??___xxtofl+1)^0,c
  3120   003898  6A05               	clrf	??___xxtofl^0,c
  3121   00389A  5005               	movf	??___xxtofl^0,w,c
  3122   00389C  120B               	iorwf	___xxtofl@arg^0,f,c
  3123   00389E  5006               	movf	(??___xxtofl+1)^0,w,c
  3124   0038A0  120C               	iorwf	(___xxtofl@arg+1)^0,f,c
  3125   0038A2  5007               	movf	(??___xxtofl+2)^0,w,c
  3126   0038A4  120D               	iorwf	(___xxtofl@arg+2)^0,f,c
  3127   0038A6  5008               	movf	(??___xxtofl+3)^0,w,c
  3128   0038A8  120E               	iorwf	(___xxtofl@arg+3)^0,f,c
  3129   0038AA  5009               	movf	___xxtofl@sign^0,w,c
  3130   0038AC  B4D8               	btfsc	status,2,c
  3131   0038AE  EF5B  F01C         	goto	u4901
  3132   0038B2  EF5D  F01C         	goto	u4900
  3133   0038B6                     u4901:
  3134   0038B6  EF65  F01C         	goto	l4195
  3135   0038BA                     u4900:
  3136   0038BA  BE04               	btfsc	(___xxtofl@val+3)^0,7,c
  3137   0038BC  EF64  F01C         	goto	u4910
  3138   0038C0  EF62  F01C         	goto	u4911
  3139   0038C4                     u4911:
  3140   0038C4  EF65  F01C         	goto	l4195
  3141   0038C8                     u4910:
  3142   0038C8  8E0E               	bsf	(___xxtofl@arg+3)^0,7,c
  3143   0038CA                     l4195:
  3144   0038CA  C00B  F001         	movff	___xxtofl@arg,?___xxtofl
  3145   0038CE  C00C  F002         	movff	___xxtofl@arg+1,?___xxtofl+1
  3146   0038D2  C00D  F003         	movff	___xxtofl@arg+2,?___xxtofl+2
  3147   0038D6  C00E  F004         	movff	___xxtofl@arg+3,?___xxtofl+3
  3148   0038DA                     l778:
  3149   0038DA  0012               	return		;funcret
  3150   0038DC                     __end_of___xxtofl:
  3151                           	callstack 0
  3152                           
  3153 ;; *************** function ___cosdf *****************
  3154 ;; Defined at:
  3155 ;;		line 26 in file "C:\Program Files\Microchip\xc8\v2.45\pic\sources\c99\common\__cosdf.c"
  3156 ;; Parameters:    Size  Location     Type
  3157 ;;  x               4   80[COMRAM] unsigned char 
  3158 ;; Auto vars:     Size  Location     Type
  3159 ;;  z               4   20[BANK0 ] unsigned char 
  3160 ;;  w               4   16[BANK0 ] unsigned char 
  3161 ;;  r               4    0[BANK0 ] unsigned char 
  3162 ;; Return value:  Size  Location     Type
  3163 ;;                  4   80[COMRAM] float 
  3164 ;; Registers used:
  3165 ;;		wreg, status,2, status,0, prodl, prodh, cstack
  3166 ;; Tracked objects:
  3167 ;;		On entry : 0/0
  3168 ;;		On exit  : 0/0
  3169 ;;		Unchanged: 0/0
  3170 ;; Data sizes:     COMRAM   BANK0   BANK1   BANK2   BANK3   BANK4   BANK5   BANK6   BANK7
  3171 ;;      Params:         4       0       0       0       0       0       0       0       0
  3172 ;;      Locals:         0      24       0       0       0       0       0       0       0
  3173 ;;      Temps:          0       0       0       0       0       0       0       0       0
  3174 ;;      Totals:         4      24       0       0       0       0       0       0       0
  3175 ;;Total ram usage:       28 bytes
  3176 ;; Hardware stack levels used: 1
  3177 ;; Hardware stack levels required when called: 1
  3178 ;; This function calls:
  3179 ;;		___fladd
  3180 ;;		___flmul
  3181 ;; This function is called by:
  3182 ;;		_cosf
  3183 ;; This function uses a non-reentrant model
  3184 ;;
  3185                           
  3186                           	psect	text6
  3187   003370                     __ptext6:
  3188                           	callstack 0
  3189   003370                     ___cosdf:
  3190                           	callstack 28
  3191   003370  C051  F028         	movff	___cosdf@x,___flmul@b
  3192   003374  C052  F029         	movff	___cosdf@x+1,___flmul@b+1
  3193   003378  C053  F02A         	movff	___cosdf@x+2,___flmul@b+2
  3194   00337C  C054  F02B         	movff	___cosdf@x+3,___flmul@b+3
  3195   003380  C051  F02C         	movff	___cosdf@x,___flmul@a
  3196   003384  C052  F02D         	movff	___cosdf@x+1,___flmul@a+1
  3197   003388  C053  F02E         	movff	___cosdf@x+2,___flmul@a+2
  3198   00338C  C054  F02F         	movff	___cosdf@x+3,___flmul@a+3
  3199   003390  EC46  F00E         	call	___flmul	;wreg free
  3200   003394  C028  F074         	movff	?___flmul,___cosdf@z
  3201   003398  C029  F075         	movff	?___flmul+1,___cosdf@z+1
  3202   00339C  C02A  F076         	movff	?___flmul+2,___cosdf@z+2
  3203   0033A0  C02B  F077         	movff	?___flmul+3,___cosdf@z+3
  3204   0033A4  C074  F028         	movff	___cosdf@z,___flmul@b
  3205   0033A8  C075  F029         	movff	___cosdf@z+1,___flmul@b+1
  3206   0033AC  C076  F02A         	movff	___cosdf@z+2,___flmul@b+2
  3207   0033B0  C077  F02B         	movff	___cosdf@z+3,___flmul@b+3
  3208   0033B4  C074  F02C         	movff	___cosdf@z,___flmul@a
  3209   0033B8  C075  F02D         	movff	___cosdf@z+1,___flmul@a+1
  3210   0033BC  C076  F02E         	movff	___cosdf@z+2,___flmul@a+2
  3211   0033C0  C077  F02F         	movff	___cosdf@z+3,___flmul@a+3
  3212   0033C4  EC46  F00E         	call	___flmul	;wreg free
  3213   0033C8  C028  F070         	movff	?___flmul,___cosdf@w
  3214   0033CC  C029  F071         	movff	?___flmul+1,___cosdf@w+1
  3215   0033D0  C02A  F072         	movff	?___flmul+2,___cosdf@w+2
  3216   0033D4  C02B  F073         	movff	?___flmul+3,___cosdf@w+3
  3217   0033D8  0E17               	movlw	23
  3218   0033DA  6E2C               	movwf	___flmul@a^0,c
  3219   0033DC  0E9A               	movlw	154
  3220   0033DE  6E2D               	movwf	(___flmul@a+1)^0,c
  3221   0033E0  0ECC               	movlw	204
  3222   0033E2  6E2E               	movwf	(___flmul@a+2)^0,c
  3223   0033E4  0E37               	movlw	55
  3224   0033E6  6E2F               	movwf	(___flmul@a+3)^0,c
  3225   0033E8  C074  F028         	movff	___cosdf@z,___flmul@b
  3226   0033EC  C075  F029         	movff	___cosdf@z+1,___flmul@b+1
  3227   0033F0  C076  F02A         	movff	___cosdf@z+2,___flmul@b+2
  3228   0033F4  C077  F02B         	movff	___cosdf@z+3,___flmul@b+3
  3229   0033F8  EC46  F00E         	call	___flmul	;wreg free
  3230   0033FC  C028  F041         	movff	?___flmul,___fladd@b
  3231   003400  C029  F042         	movff	?___flmul+1,___fladd@b+1
  3232   003404  C02A  F043         	movff	?___flmul+2,___fladd@b+2
  3233   003408  C02B  F044         	movff	?___flmul+3,___fladd@b+3
  3234   00340C  0E3F               	movlw	63
  3235   00340E  6E45               	movwf	___fladd@a^0,c
  3236   003410  0E04               	movlw	4
  3237   003412  6E46               	movwf	(___fladd@a+1)^0,c
  3238   003414  0EB6               	movlw	182
  3239   003416  6E47               	movwf	(___fladd@a+2)^0,c
  3240   003418  0EBA               	movlw	186
  3241   00341A  6E48               	movwf	(___fladd@a+3)^0,c
  3242   00341C  ECE6  F00B         	call	___fladd	;wreg free
  3243   003420  C041  F060         	movff	?___fladd,___cosdf@r
  3244   003424  C042  F061         	movff	?___fladd+1,___cosdf@r+1
  3245   003428  C043  F062         	movff	?___fladd+2,___cosdf@r+2
  3246   00342C  C044  F063         	movff	?___fladd+3,___cosdf@r+3
  3247   003430  0E00               	movlw	0
  3248   003432  6E45               	movwf	___fladd@a^0,c
  3249   003434  0E00               	movlw	0
  3250   003436  6E46               	movwf	(___fladd@a+1)^0,c
  3251   003438  0E80               	movlw	128
  3252   00343A  6E47               	movwf	(___fladd@a+2)^0,c
  3253   00343C  0E3F               	movlw	63
  3254   00343E  6E48               	movwf	(___fladd@a+3)^0,c
  3255   003440  0E00               	movlw	0
  3256   003442  6E2C               	movwf	___flmul@a^0,c
  3257   003444  0E00               	movlw	0
  3258   003446  6E2D               	movwf	(___flmul@a+1)^0,c
  3259   003448  0E00               	movlw	0
  3260   00344A  6E2E               	movwf	(___flmul@a+2)^0,c
  3261   00344C  0EBF               	movlw	191
  3262   00344E  6E2F               	movwf	(___flmul@a+3)^0,c
  3263   003450  C074  F028         	movff	___cosdf@z,___flmul@b
  3264   003454  C075  F029         	movff	___cosdf@z+1,___flmul@b+1
  3265   003458  C076  F02A         	movff	___cosdf@z+2,___flmul@b+2
  3266   00345C  C077  F02B         	movff	___cosdf@z+3,___flmul@b+3
  3267   003460  EC46  F00E         	call	___flmul	;wreg free
  3268   003464  C028  F041         	movff	?___flmul,___fladd@b
  3269   003468  C029  F042         	movff	?___flmul+1,___fladd@b+1
  3270   00346C  C02A  F043         	movff	?___flmul+2,___fladd@b+2
  3271   003470  C02B  F044         	movff	?___flmul+3,___fladd@b+3
  3272   003474  ECE6  F00B         	call	___fladd	;wreg free
  3273   003478  C041  F064         	movff	?___fladd,___cosdf$1098
  3274   00347C  C042  F065         	movff	?___fladd+1,___cosdf$1098+1
  3275   003480  C043  F066         	movff	?___fladd+2,___cosdf$1098+2
  3276   003484  C044  F067         	movff	?___fladd+3,___cosdf$1098+3
  3277   003488  C074  F02C         	movff	___cosdf@z,___flmul@a
  3278   00348C  C075  F02D         	movff	___cosdf@z+1,___flmul@a+1
  3279   003490  C076  F02E         	movff	___cosdf@z+2,___flmul@a+2
  3280   003494  C077  F02F         	movff	___cosdf@z+3,___flmul@a+3
  3281   003498  C070  F028         	movff	___cosdf@w,___flmul@b
  3282   00349C  C071  F029         	movff	___cosdf@w+1,___flmul@b+1
  3283   0034A0  C072  F02A         	movff	___cosdf@w+2,___flmul@b+2
  3284   0034A4  C073  F02B         	movff	___cosdf@w+3,___flmul@b+3
  3285   0034A8  EC46  F00E         	call	___flmul	;wreg free
  3286   0034AC  C028  F068         	movff	?___flmul,___cosdf$1099
  3287   0034B0  C029  F069         	movff	?___flmul+1,___cosdf$1099+1
  3288   0034B4  C02A  F06A         	movff	?___flmul+2,___cosdf$1099+2
  3289   0034B8  C02B  F06B         	movff	?___flmul+3,___cosdf$1099+3
  3290   0034BC  0E9F               	movlw	159
  3291   0034BE  6E2C               	movwf	___flmul@a^0,c
  3292   0034C0  0EAA               	movlw	170
  3293   0034C2  6E2D               	movwf	(___flmul@a+1)^0,c
  3294   0034C4  0E2A               	movlw	42
  3295   0034C6  6E2E               	movwf	(___flmul@a+2)^0,c
  3296   0034C8  0E3D               	movlw	61
  3297   0034CA  6E2F               	movwf	(___flmul@a+3)^0,c
  3298   0034CC  C070  F028         	movff	___cosdf@w,___flmul@b
  3299   0034D0  C071  F029         	movff	___cosdf@w+1,___flmul@b+1
  3300   0034D4  C072  F02A         	movff	___cosdf@w+2,___flmul@b+2
  3301   0034D8  C073  F02B         	movff	___cosdf@w+3,___flmul@b+3
  3302   0034DC  EC46  F00E         	call	___flmul	;wreg free
  3303   0034E0  C028  F045         	movff	?___flmul,___fladd@a
  3304   0034E4  C029  F046         	movff	?___flmul+1,___fladd@a+1
  3305   0034E8  C02A  F047         	movff	?___flmul+2,___fladd@a+2
  3306   0034EC  C02B  F048         	movff	?___flmul+3,___fladd@a+3
  3307   0034F0  C064  F041         	movff	___cosdf$1098,___fladd@b
  3308   0034F4  C065  F042         	movff	___cosdf$1098+1,___fladd@b+1
  3309   0034F8  C066  F043         	movff	___cosdf$1098+2,___fladd@b+2
  3310   0034FC  C067  F044         	movff	___cosdf$1098+3,___fladd@b+3
  3311   003500  ECE6  F00B         	call	___fladd	;wreg free
  3312   003504  C041  F06C         	movff	?___fladd,___cosdf$1100
  3313   003508  C042  F06D         	movff	?___fladd+1,___cosdf$1100+1
  3314   00350C  C043  F06E         	movff	?___fladd+2,___cosdf$1100+2
  3315   003510  C044  F06F         	movff	?___fladd+3,___cosdf$1100+3
  3316   003514  C06C  F041         	movff	___cosdf$1100,___fladd@b
  3317   003518  C06D  F042         	movff	___cosdf$1100+1,___fladd@b+1
  3318   00351C  C06E  F043         	movff	___cosdf$1100+2,___fladd@b+2
  3319   003520  C06F  F044         	movff	___cosdf$1100+3,___fladd@b+3
  3320   003524  C060  F02C         	movff	___cosdf@r,___flmul@a
  3321   003528  C061  F02D         	movff	___cosdf@r+1,___flmul@a+1
  3322   00352C  C062  F02E         	movff	___cosdf@r+2,___flmul@a+2
  3323   003530  C063  F02F         	movff	___cosdf@r+3,___flmul@a+3
  3324   003534  C068  F028         	movff	___cosdf$1099,___flmul@b
  3325   003538  C069  F029         	movff	___cosdf$1099+1,___flmul@b+1
  3326   00353C  C06A  F02A         	movff	___cosdf$1099+2,___flmul@b+2
  3327   003540  C06B  F02B         	movff	___cosdf$1099+3,___flmul@b+3
  3328   003544  EC46  F00E         	call	___flmul	;wreg free
  3329   003548  C028  F045         	movff	?___flmul,___fladd@a
  3330   00354C  C029  F046         	movff	?___flmul+1,___fladd@a+1
  3331   003550  C02A  F047         	movff	?___flmul+2,___fladd@a+2
  3332   003554  C02B  F048         	movff	?___flmul+3,___fladd@a+3
  3333   003558  ECE6  F00B         	call	___fladd	;wreg free
  3334   00355C  C041  F051         	movff	?___fladd,?___cosdf
  3335   003560  C042  F052         	movff	?___fladd+1,?___cosdf+1
  3336   003564  C043  F053         	movff	?___fladd+2,?___cosdf+2
  3337   003568  C044  F054         	movff	?___fladd+3,?___cosdf+3
  3338   00356C  0012               	return		;funcret
  3339   00356E                     __end_of___cosdf:
  3340                           	callstack 0
  3341                           
  3342 ;; *************** function _LCD_value_float *****************
  3343 ;; Defined at:
  3344 ;;		line 251 in file "newmain.c"
  3345 ;; Parameters:    Size  Location     Type
  3346 ;;  a               4   33[BANK1 ] float 
  3347 ;; Auto vars:     Size  Location     Type
  3348 ;;  r              10   37[BANK1 ] unsigned char [10]
  3349 ;; Return value:  Size  Location     Type
  3350 ;;                  1    wreg      void 
  3351 ;; Registers used:
  3352 ;;		wreg, fsr1l, fsr1h, fsr2l, fsr2h, status,2, status,0, tblptrl, tblptrh, tblptru, prodl, prodh, cstack
  3353 ;; Tracked objects:
  3354 ;;		On entry : 0/0
  3355 ;;		On exit  : 0/0
  3356 ;;		Unchanged: 0/0
  3357 ;; Data sizes:     COMRAM   BANK0   BANK1   BANK2   BANK3   BANK4   BANK5   BANK6   BANK7
  3358 ;;      Params:         0       0       4       0       0       0       0       0       0
  3359 ;;      Locals:         0       0      10       0       0       0       0       0       0
  3360 ;;      Temps:          0       0       0       0       0       0       0       0       0
  3361 ;;      Totals:         0       0      14       0       0       0       0       0       0
  3362 ;;Total ram usage:       14 bytes
  3363 ;; Hardware stack levels used: 1
  3364 ;; Hardware stack levels required when called: 8
  3365 ;; This function calls:
  3366 ;;		_LCD_String
  3367 ;;		_sprintf
  3368 ;; This function is called by:
  3369 ;;		_main
  3370 ;; This function uses a non-reentrant model
  3371 ;;
  3372                           
  3373                           	psect	text7
  3374   00463C                     __ptext7:
  3375                           	callstack 0
  3376   00463C                     _LCD_value_float:
  3377                           	callstack 22
  3378   00463C                     
  3379                           ;newmain.c: 252:     char r[10];;newmain.c: 253:     sprintf(r,"%0.2f",a);
  3380   00463C  0E8B               	movlw	low LCD_value_float@r
  3381   00463E  0101               	movlb	1	; () banked
  3382   004640  6F72               	movwf	sprintf@s& (0+255),b
  3383   004642  0E01               	movlw	high LCD_value_float@r
  3384   004644  6F73               	movwf	(sprintf@s+1)& (0+255),b
  3385   004646  0E5E               	movlw	low STR_4
  3386   004648  6F74               	movwf	sprintf@fmt& (0+255),b
  3387   00464A  C187  F175         	movff	LCD_value_float@a,?_sprintf+3
  3388   00464E  C188  F176         	movff	LCD_value_float@a+1,?_sprintf+4
  3389   004652  C189  F177         	movff	LCD_value_float@a+2,?_sprintf+5
  3390   004656  C18A  F178         	movff	LCD_value_float@a+3,?_sprintf+6
  3391   00465A  ECFE  F021         	call	_sprintf	;wreg free
  3392   00465E                     
  3393                           ;newmain.c: 254:     LCD_String(r);
  3394   00465E  0E8B               	movlw	low LCD_value_float@r
  3395   004660  6E04               	movwf	LCD_String@str^0,c
  3396   004662  0E01               	movlw	high LCD_value_float@r
  3397   004664  6E05               	movwf	(LCD_String@str+1)^0,c
  3398   004666  EC38  F021         	call	_LCD_String	;wreg free
  3399   00466A  0012               	return		;funcret
  3400   00466C                     __end_of_LCD_value_float:
  3401                           	callstack 0
  3402                           
  3403 ;; *************** function _sprintf *****************
  3404 ;; Defined at:
  3405 ;;		line 9 in file "C:\Program Files\Microchip\xc8\v2.45\pic\sources\c99\common\nf_sprintf.c"
  3406 ;; Parameters:    Size  Location     Type
  3407 ;;  s               2   12[BANK1 ] PTR unsigned char 
  3408 ;;		 -> LCD_value@r(10), LCD_value_float@r(10), 
  3409 ;;  fmt             1   14[BANK1 ] PTR const unsigned char 
  3410 ;;		 -> STR_5(3), STR_4(6), 
  3411 ;; Auto vars:     Size  Location     Type
  3412 ;;  f              12   21[BANK1 ] struct _IO_FILE
  3413 ;;  ap              2   19[BANK1 ] PTR void [1]
  3414 ;;		 -> ?_sprintf(2), 
  3415 ;;  ret             2    0        int 
  3416 ;; Return value:  Size  Location     Type
  3417 ;;                  2   12[BANK1 ] int 
  3418 ;; Registers used:
  3419 ;;		wreg, fsr1l, fsr1h, fsr2l, fsr2h, status,2, status,0, tblptrl, tblptrh, tblptru, prodl, prodh, cstack
  3420 ;; Tracked objects:
  3421 ;;		On entry : 0/0
  3422 ;;		On exit  : 0/0
  3423 ;;		Unchanged: 0/0
  3424 ;; Data sizes:     COMRAM   BANK0   BANK1   BANK2   BANK3   BANK4   BANK5   BANK6   BANK7
  3425 ;;      Params:         0       0       7       0       0       0       0       0       0
  3426 ;;      Locals:         0       0      14       0       0       0       0       0       0
  3427 ;;      Temps:          0       0       0       0       0       0       0       0       0
  3428 ;;      Totals:         0       0      21       0       0       0       0       0       0
  3429 ;;Total ram usage:       21 bytes
  3430 ;; Hardware stack levels used: 1
  3431 ;; Hardware stack levels required when called: 7
  3432 ;; This function calls:
  3433 ;;		_vfprintf
  3434 ;; This function is called by:
  3435 ;;		_LCD_value_float
  3436 ;;		_LCD_value
  3437 ;; This function uses a non-reentrant model
  3438 ;;
  3439                           
  3440                           	psect	text8
  3441   0043FC                     __ptext8:
  3442                           	callstack 0
  3443   0043FC                     _sprintf:
  3444                           	callstack 22
  3445   0043FC  0E75               	movlw	low (?_sprintf+3)
  3446   0043FE  0101               	movlb	1	; () banked
  3447   004400  6F79               	movwf	sprintf@ap& (0+255),b
  3448   004402  0E01               	movlw	high (?_sprintf+3)
  3449   004404  6F7A               	movwf	(sprintf@ap+1)& (0+255),b
  3450   004406  C172  F17B         	movff	sprintf@s,sprintf@f
  3451   00440A  C173  F17C         	movff	sprintf@s+1,sprintf@f+1
  3452   00440E                     
  3453                           ; BSR set to: 1
  3454   00440E  0E00               	movlw	0
  3455   004410  6F7F               	movwf	(sprintf@f+4)& (0+255),b
  3456   004412  0E00               	movlw	0
  3457   004414  6F7E               	movwf	(sprintf@f+3)& (0+255),b
  3458   004416                     
  3459                           ; BSR set to: 1
  3460   004416  0E00               	movlw	0
  3461   004418  6F86               	movwf	(sprintf@f+11)& (0+255),b
  3462   00441A  0E00               	movlw	0
  3463   00441C  6F85               	movwf	(sprintf@f+10)& (0+255),b
  3464   00441E                     
  3465                           ; BSR set to: 1
  3466   00441E  0E7B               	movlw	low sprintf@f
  3467   004420  6F6D               	movwf	vfprintf@fp& (0+255),b
  3468   004422  0E01               	movlw	high sprintf@f
  3469   004424  6F6E               	movwf	(vfprintf@fp+1)& (0+255),b
  3470   004426  C174  F16F         	movff	sprintf@fmt,vfprintf@fmt
  3471   00442A  0E79               	movlw	low sprintf@ap
  3472   00442C  6F70               	movwf	vfprintf@ap& (0+255),b
  3473   00442E  0E01               	movlw	high sprintf@ap
  3474   004430  6F71               	movwf	(vfprintf@ap+1)& (0+255),b
  3475   004432  EC24  F022         	call	_vfprintf	;wreg free
  3476   004436  0101               	movlb	1	; () banked
  3477   004438  517E               	movf	(sprintf@f+3)& (0+255),w,b
  3478   00443A  2572               	addwf	sprintf@s& (0+255),w,b
  3479   00443C  6ED9               	movwf	fsr2l,c
  3480   00443E  517F               	movf	(sprintf@f+4)& (0+255),w,b
  3481   004440  2173               	addwfc	(sprintf@s+1)& (0+255),w,b
  3482   004442  6EDA               	movwf	fsr2h,c
  3483   004444  6ADF               	clrf	indf2,c
  3484   004446                     
  3485                           ; BSR set to: 1
  3486   004446  0012               	return		;funcret
  3487   004448                     __end_of_sprintf:
  3488                           	callstack 0
  3489                           
  3490 ;; *************** function _vfprintf *****************
  3491 ;; Defined at:
  3492 ;;		line 1817 in file "C:\Program Files\Microchip\xc8\v2.45\pic\sources\c99\common\doprnt.c"
  3493 ;; Parameters:    Size  Location     Type
  3494 ;;  fp              2    7[BANK1 ] PTR struct _IO_FILE
  3495 ;;		 -> sprintf@f(12), 
  3496 ;;  fmt             1    9[BANK1 ] PTR const unsigned char 
  3497 ;;		 -> STR_5(3), STR_4(6), 
  3498 ;;  ap              2   10[BANK1 ] PTR PTR void 
  3499 ;;		 -> sprintf@ap(2), 
  3500 ;; Auto vars:     Size  Location     Type
  3501 ;;  cfmt            1   94[COMRAM] PTR unsigned char 
  3502 ;;		 -> STR_5(3), STR_4(6), 
  3503 ;; Return value:  Size  Location     Type
  3504 ;;                  2    7[BANK1 ] int 
  3505 ;; Registers used:
  3506 ;;		wreg, fsr1l, fsr1h, fsr2l, fsr2h, status,2, status,0, tblptrl, tblptrh, tblptru, prodl, prodh, cstack
  3507 ;; Tracked objects:
  3508 ;;		On entry : 0/0
  3509 ;;		On exit  : 0/0
  3510 ;;		Unchanged: 0/0
  3511 ;; Data sizes:     COMRAM   BANK0   BANK1   BANK2   BANK3   BANK4   BANK5   BANK6   BANK7
  3512 ;;      Params:         0       0       5       0       0       0       0       0       0
  3513 ;;      Locals:         1       0       0       0       0       0       0       0       0
  3514 ;;      Temps:          0       0       0       0       0       0       0       0       0
  3515 ;;      Totals:         1       0       5       0       0       0       0       0       0
  3516 ;;Total ram usage:        6 bytes
  3517 ;; Hardware stack levels used: 1
  3518 ;; Hardware stack levels required when called: 6
  3519 ;; This function calls:
  3520 ;;		_vfpfcnvrt
  3521 ;; This function is called by:
  3522 ;;		_sprintf
  3523 ;; This function uses a non-reentrant model
  3524 ;;
  3525                           
  3526                           	psect	text9
  3527   004448                     __ptext9:
  3528                           	callstack 0
  3529   004448                     _vfprintf:
  3530                           	callstack 22
  3531   004448                     
  3532                           ;C:\Program Files\Microchip\xc8\v2.45\pic\sources\c99\common\doprnt.c: 1817: int vfprint
      +                          f(FILE *fp, const char *fmt, va_list ap);C:\Program Files\Microchip\xc8\v2.45\pic\source
      +                          s\c99\common\doprnt.c: 1818: {;C:\Program Files\Microchip\xc8\v2.45\pic\sources\c99\comm
      +                          on\doprnt.c: 1820:     char *cfmt;;C:\Program Files\Microchip\xc8\v2.45\pic\sources\c99\
      +                          common\doprnt.c: 1822:     cfmt = (char *)fmt;
  3533   004448  C16F  F05F         	movff	vfprintf@fmt,vfprintf@cfmt
  3534                           
  3535                           ;C:\Program Files\Microchip\xc8\v2.45\pic\sources\c99\common\doprnt.c: 1826:     while (
      +                          *cfmt) {
  3536   00444C  EF35  F022         	goto	l5907
  3537   004450                     l5905:
  3538                           
  3539                           ;C:\Program Files\Microchip\xc8\v2.45\pic\sources\c99\common\doprnt.c: 1830:    vfpfcnvr
      +                          t(fp, &cfmt, ap);
  3540   004450  C16D  F0F5         	movff	vfprintf@fp,vfpfcnvrt@fp
  3541   004454  C16E  F0F6         	movff	vfprintf@fp+1,vfpfcnvrt@fp+1
  3542   004458  0E5F               	movlw	low vfprintf@cfmt
  3543   00445A  0100               	movlb	0	; () banked
  3544   00445C  6FF7               	movwf	vfpfcnvrt@fmt& (0+255),b
  3545   00445E  C170  F0F8         	movff	vfprintf@ap,vfpfcnvrt@ap
  3546   004462  C171  F0F9         	movff	vfprintf@ap+1,vfpfcnvrt@ap+1
  3547   004466  ECF5  F015         	call	_vfpfcnvrt	;wreg free
  3548   00446A                     l5907:
  3549                           
  3550                           ;C:\Program Files\Microchip\xc8\v2.45\pic\sources\c99\common\doprnt.c: 1826:     while (
      +                          *cfmt) {
  3551   00446A  C05F  FFF6         	movff	vfprintf@cfmt,tblptrl
  3552   00446E                     	if	1	;There is more than 1 active tblptr byte
  3553   00446E  0E08               	movlw	high __smallconst
  3554   004470  6EF7               	movwf	tblptrh,c
  3555   004472                     	endif
  3556   004472                     	if	0	;tblptru may be non-zero
  3557   004472                     	endif
  3558   004472                     	if	0	;tblptru may be non-zero
  3559   004472                     	endif
  3560   004472  0008               	tblrd		*
  3561   004474  50F5               	movf	tablat,w,c
  3562   004476  0900               	iorlw	0
  3563   004478  A4D8               	btfss	status,2,c
  3564   00447A  EF41  F022         	goto	u7331
  3565   00447E  EF43  F022         	goto	u7330
  3566   004482                     u7331:
  3567   004482  EF28  F022         	goto	l5905
  3568   004486                     u7330:
  3569   004486                     
  3570                           ;C:\Program Files\Microchip\xc8\v2.45\pic\sources\c99\common\doprnt.c: 1835:  return 0;
  3571   004486  0E00               	movlw	0
  3572   004488  0101               	movlb	1	; () banked
  3573   00448A  6F6E               	movwf	(?_vfprintf+1)& (0+255),b
  3574   00448C  0E00               	movlw	0
  3575   00448E  6F6D               	movwf	?_vfprintf& (0+255),b
  3576   004490                     
  3577                           ; BSR set to: 1
  3578   004490  0012               	return		;funcret
  3579   004492                     __end_of_vfprintf:
  3580                           	callstack 0
  3581                           
  3582 ;; *************** function _vfpfcnvrt *****************
  3583 ;; Defined at:
  3584 ;;		line 1177 in file "C:\Program Files\Microchip\xc8\v2.45\pic\sources\c99\common\doprnt.c"
  3585 ;; Parameters:    Size  Location     Type
  3586 ;;  fp              2  149[BANK0 ] PTR struct _IO_FILE
  3587 ;;		 -> sprintf@f(12), 
  3588 ;;  fmt             1  151[BANK0 ] PTR PTR unsigned char 
  3589 ;;		 -> vfprintf@cfmt(1), 
  3590 ;;  ap              2  152[BANK0 ] PTR PTR void 
  3591 ;;		 -> sprintf@ap(2), 
  3592 ;; Auto vars:     Size  Location     Type
  3593 ;;  convarg         4    1[BANK1 ] struct .
  3594 ;;  cp              1    6[BANK1 ] PTR unsigned char 
  3595 ;;		 -> STR_5(3), STR_4(6), 
  3596 ;;  c               1    5[BANK1 ] unsigned char 
  3597 ;;  done            1    0[BANK1 ] _Bool 
  3598 ;; Return value:  Size  Location     Type
  3599 ;;                  1    wreg      void 
  3600 ;; Registers used:
  3601 ;;		wreg, fsr1l, fsr1h, fsr2l, fsr2h, status,2, status,0, tblptrl, tblptrh, tblptru, prodl, prodh, cstack
  3602 ;; Tracked objects:
  3603 ;;		On entry : 0/0
  3604 ;;		On exit  : 0/0
  3605 ;;		Unchanged: 0/0
  3606 ;; Data sizes:     COMRAM   BANK0   BANK1   BANK2   BANK3   BANK4   BANK5   BANK6   BANK7
  3607 ;;      Params:         0       5       0       0       0       0       0       0       0
  3608 ;;      Locals:         0       0       7       0       0       0       0       0       0
  3609 ;;      Temps:          0       2       0       0       0       0       0       0       0
  3610 ;;      Totals:         0       7       7       0       0       0       0       0       0
  3611 ;;Total ram usage:       14 bytes
  3612 ;; Hardware stack levels used: 1
  3613 ;; Hardware stack levels required when called: 5
  3614 ;; This function calls:
  3615 ;;		_dtoa
  3616 ;;		_efgtoa
  3617 ;;		_fputc
  3618 ;;		_read_prec_or_width
  3619 ;; This function is called by:
  3620 ;;		_vfprintf
  3621 ;; This function uses a non-reentrant model
  3622 ;;
  3623                           
  3624                           	psect	text10
  3625   002BEA                     __ptext10:
  3626                           	callstack 0
  3627   002BEA                     _vfpfcnvrt:
  3628                           	callstack 22
  3629   002BEA                     
  3630                           ;C:\Program Files\Microchip\xc8\v2.45\pic\sources\c99\common\doprnt.c: 1177: vfpfcnvrt(F
      +                          ILE *fp, char *fmt[], va_list ap);C:\Program Files\Microchip\xc8\v2.45\pic\sources\c99\c
      +                          ommon\doprnt.c: 1178: {;C:\Program Files\Microchip\xc8\v2.45\pic\sources\c99\common\dopr
      +                          nt.c: 1179:     char c, *cp;;C:\Program Files\Microchip\xc8\v2.45\pic\sources\c99\common
      +                          \doprnt.c: 1180:     _Bool done;;C:\Program Files\Microchip\xc8\v2.45\pic\sources\c99\co
      +                          mmon\doprnt.c: 1188:  } convarg;;C:\Program Files\Microchip\xc8\v2.45\pic\sources\c99\co
      +                          mmon\doprnt.c: 1201:     if ((*fmt)[0] == '%') {
  3631   002BEA  0100               	movlb	0	; () banked
  3632   002BEC  51F7               	movf	vfpfcnvrt@fmt& (0+255),w,b
  3633   002BEE  6ED9               	movwf	fsr2l,c
  3634   002BF0  6ADA               	clrf	fsr2h,c
  3635   002BF2  CFDF FFF6          	movff	indf2,tblptrl
  3636   002BF6                     	if	1	;There is more than 1 active tblptr byte
  3637   002BF6  0E08               	movlw	high __smallconst
  3638   002BF8  6EF7               	movwf	tblptrh,c
  3639   002BFA                     	endif
  3640   002BFA                     	if	0	;tblptru may be non-zero
  3641   002BFA                     	endif
  3642   002BFA                     	if	0	;tblptru may be non-zero
  3643   002BFA                     	endif
  3644   002BFA  0008               	tblrd		*
  3645   002BFC  50F5               	movf	tablat,w,c
  3646   002BFE  0A25               	xorlw	37
  3647   002C00  A4D8               	btfss	status,2,c
  3648   002C02  EF05  F016         	goto	u7271
  3649   002C06  EF07  F016         	goto	u7270
  3650   002C0A                     u7271:
  3651   002C0A  EF82  F017         	goto	l5873
  3652   002C0E                     u7270:
  3653   002C0E                     
  3654                           ; BSR set to: 0
  3655                           ;C:\Program Files\Microchip\xc8\v2.45\pic\sources\c99\common\doprnt.c: 1202:         ++*
      +                          fmt;
  3656   002C0E  51F7               	movf	vfpfcnvrt@fmt& (0+255),w,b
  3657   002C10  6ED9               	movwf	fsr2l,c
  3658   002C12  6ADA               	clrf	fsr2h,c
  3659   002C14  2ADF               	incf	indf2,f,c
  3660   002C16                     
  3661                           ; BSR set to: 0
  3662                           ;C:\Program Files\Microchip\xc8\v2.45\pic\sources\c99\common\doprnt.c: 1204:         fla
      +                          gs = width = 0;
  3663   002C16  0E00               	movlw	0
  3664   002C18  0101               	movlb	1	; () banked
  3665   002C1A  6F11               	movwf	(_width+1)& (0+255),b
  3666   002C1C  0E00               	movlw	0
  3667   002C1E  6F10               	movwf	_width& (0+255),b
  3668   002C20  C110  F0FE         	movff	_width,_flags
  3669   002C24                     
  3670                           ; BSR set to: 1
  3671                           ;C:\Program Files\Microchip\xc8\v2.45\pic\sources\c99\common\doprnt.c: 1205:         pre
      +                          c = -1;
  3672   002C24  6912               	setf	_prec& (0+255),b
  3673   002C26  6913               	setf	(_prec+1)& (0+255),b
  3674   002C28                     
  3675                           ; BSR set to: 1
  3676                           ;C:\Program Files\Microchip\xc8\v2.45\pic\sources\c99\common\doprnt.c: 1209:         don
      +                          e = 0;
  3677   002C28  0E00               	movlw	0
  3678   002C2A  6F66               	movwf	vfpfcnvrt@done& (0+255),b
  3679                           
  3680                           ;C:\Program Files\Microchip\xc8\v2.45\pic\sources\c99\common\doprnt.c: 1210:         whi
      +                          le (!done) {
  3681   002C2C  EF3E  F016         	goto	l5815
  3682   002C30                     l5805:
  3683                           
  3684                           ; BSR set to: 0
  3685                           ;C:\Program Files\Microchip\xc8\v2.45\pic\sources\c99\common\doprnt.c: 1220:            
      +                                   flags |= (1 << 1);
  3686   002C30  83FE               	bsf	_flags& (0+255),1,b
  3687   002C32                     
  3688                           ; BSR set to: 0
  3689                           ;C:\Program Files\Microchip\xc8\v2.45\pic\sources\c99\common\doprnt.c: 1221:            
      +                                   ++*fmt;
  3690   002C32  51F7               	movf	vfpfcnvrt@fmt& (0+255),w,b
  3691   002C34  6ED9               	movwf	fsr2l,c
  3692   002C36  6ADA               	clrf	fsr2h,c
  3693   002C38  2ADF               	incf	indf2,f,c
  3694                           
  3695                           ;C:\Program Files\Microchip\xc8\v2.45\pic\sources\c99\common\doprnt.c: 1222:            
      +                                   break;
  3696   002C3A  EF3E  F016         	goto	l5815
  3697   002C3E                     l5809:
  3698                           
  3699                           ; BSR set to: 0
  3700                           ;C:\Program Files\Microchip\xc8\v2.45\pic\sources\c99\common\doprnt.c: 1243:            
      +                                   done = 1;
  3701   002C3E  0E01               	movlw	1
  3702   002C40  0101               	movlb	1	; () banked
  3703   002C42  6F66               	movwf	vfpfcnvrt@done& (0+255),b
  3704                           
  3705                           ;C:\Program Files\Microchip\xc8\v2.45\pic\sources\c99\common\doprnt.c: 1244:            
      +                                   break;
  3706   002C44  EF3E  F016         	goto	l5815
  3707   002C48                     l5813:
  3708                           
  3709                           ; BSR set to: 1
  3710   002C48  0100               	movlb	0	; () banked
  3711   002C4A  51F7               	movf	vfpfcnvrt@fmt& (0+255),w,b
  3712   002C4C  6ED9               	movwf	fsr2l,c
  3713   002C4E  6ADA               	clrf	fsr2h,c
  3714   002C50  CFDF FFF6          	movff	indf2,tblptrl
  3715   002C54                     	if	1	;There is more than 1 active tblptr byte
  3716   002C54  0E08               	movlw	high __smallconst
  3717   002C56  6EF7               	movwf	tblptrh,c
  3718   002C58                     	endif
  3719   002C58                     	if	0	;tblptru may be non-zero
  3720   002C58                     	endif
  3721   002C58                     	if	0	;tblptru may be non-zero
  3722   002C58                     	endif
  3723   002C58  0008               	tblrd		*
  3724   002C5A  50F5               	movf	tablat,w,c
  3725   002C5C  6FFA               	movwf	??_vfpfcnvrt& (0+255),b
  3726   002C5E  6BFB               	clrf	(??_vfpfcnvrt+1)& (0+255),b
  3727                           
  3728                           ; Switch on 2 bytes has been partitioned into a top level switch of size 1, and 1 sub-sw
      +                          itches
  3729                           ; Switch size 1, requested type "simple"
  3730                           ; Number of cases is 1, Range of values is 0 to 0
  3731                           ; switch strategies available:
  3732                           ; Name         Instructions Cycles
  3733                           ; simple_byte            4     3 (average)
  3734                           ;	Chosen strategy is simple_byte
  3735   002C60  51FB               	movf	(??_vfpfcnvrt+1)& (0+255),w,b
  3736   002C62  0A00               	xorlw	0	; case 0
  3737   002C64  B4D8               	btfsc	status,2,c
  3738   002C66  EF37  F016         	goto	l6351
  3739   002C6A  EF1F  F016         	goto	l5809
  3740   002C6E                     l6351:
  3741                           
  3742                           ; BSR set to: 0
  3743                           ; Switch size 1, requested type "simple"
  3744                           ; Number of cases is 1, Range of values is 48 to 48
  3745                           ; switch strategies available:
  3746                           ; Name         Instructions Cycles
  3747                           ; simple_byte            4     3 (average)
  3748                           ;	Chosen strategy is simple_byte
  3749   002C6E  51FA               	movf	??_vfpfcnvrt& (0+255),w,b
  3750   002C70  0A30               	xorlw	48	; case 48
  3751   002C72  B4D8               	btfsc	status,2,c
  3752   002C74  EF18  F016         	goto	l5805
  3753   002C78  EF1F  F016         	goto	l5809
  3754   002C7C                     l5815:
  3755                           
  3756                           ;C:\Program Files\Microchip\xc8\v2.45\pic\sources\c99\common\doprnt.c: 1210:         whi
      +                          le (!done) {
  3757   002C7C  0101               	movlb	1	; () banked
  3758   002C7E  5166               	movf	vfpfcnvrt@done& (0+255),w,b
  3759   002C80  B4D8               	btfsc	status,2,c
  3760   002C82  EF45  F016         	goto	u7281
  3761   002C86  EF47  F016         	goto	u7280
  3762   002C8A                     u7281:
  3763   002C8A  EF24  F016         	goto	l5813
  3764   002C8E                     u7280:
  3765   002C8E                     
  3766                           ; BSR set to: 1
  3767                           ;C:\Program Files\Microchip\xc8\v2.45\pic\sources\c99\common\doprnt.c: 1265:         if 
      +                          ((*fmt)[0] == '.') {
  3768   002C8E  0100               	movlb	0	; () banked
  3769   002C90  51F7               	movf	vfpfcnvrt@fmt& (0+255),w,b
  3770   002C92  6ED9               	movwf	fsr2l,c
  3771   002C94  6ADA               	clrf	fsr2h,c
  3772   002C96  CFDF FFF6          	movff	indf2,tblptrl
  3773   002C9A                     	if	1	;There is more than 1 active tblptr byte
  3774   002C9A  0E08               	movlw	high __smallconst
  3775   002C9C  6EF7               	movwf	tblptrh,c
  3776   002C9E                     	endif
  3777   002C9E                     	if	0	;tblptru may be non-zero
  3778   002C9E                     	endif
  3779   002C9E                     	if	0	;tblptru may be non-zero
  3780   002C9E                     	endif
  3781   002C9E  0008               	tblrd		*
  3782   002CA0  50F5               	movf	tablat,w,c
  3783   002CA2  0A2E               	xorlw	46
  3784   002CA4  A4D8               	btfss	status,2,c
  3785   002CA6  EF57  F016         	goto	u7291
  3786   002CAA  EF59  F016         	goto	u7290
  3787   002CAE                     u7291:
  3788   002CAE  EF69  F016         	goto	l5823
  3789   002CB2                     u7290:
  3790   002CB2                     
  3791                           ; BSR set to: 0
  3792                           ;C:\Program Files\Microchip\xc8\v2.45\pic\sources\c99\common\doprnt.c: 1266:            
      +                           ++*fmt;
  3793   002CB2  51F7               	movf	vfpfcnvrt@fmt& (0+255),w,b
  3794   002CB4  6ED9               	movwf	fsr2l,c
  3795   002CB6  6ADA               	clrf	fsr2h,c
  3796   002CB8  2ADF               	incf	indf2,f,c
  3797   002CBA                     
  3798                           ; BSR set to: 0
  3799                           ;C:\Program Files\Microchip\xc8\v2.45\pic\sources\c99\common\doprnt.c: 1267:    prec = r
      +                          ead_prec_or_width(fmt, ap);
  3800   002CBA  C0F7  F007         	movff	vfpfcnvrt@fmt,read_prec_or_width@fmt
  3801   002CBE  C0F8  F008         	movff	vfpfcnvrt@ap,read_prec_or_width@ap
  3802   002CC2  C0F9  F009         	movff	vfpfcnvrt@ap+1,read_prec_or_width@ap+1
  3803   002CC6  EC30  F020         	call	_read_prec_or_width	;wreg free
  3804   002CCA  C007  F112         	movff	?_read_prec_or_width,_prec
  3805   002CCE  C008  F113         	movff	?_read_prec_or_width+1,_prec+1
  3806   002CD2                     l5823:
  3807                           
  3808                           ;C:\Program Files\Microchip\xc8\v2.45\pic\sources\c99\common\doprnt.c: 1291:   cp = *fmt
      +                          ;
  3809   002CD2  0100               	movlb	0	; () banked
  3810   002CD4  51F7               	movf	vfpfcnvrt@fmt& (0+255),w,b
  3811   002CD6  6ED9               	movwf	fsr2l,c
  3812   002CD8  6ADA               	clrf	fsr2h,c
  3813   002CDA  50DF               	movf	indf2,w,c
  3814   002CDC  0101               	movlb	1	; () banked
  3815   002CDE  6F6C               	movwf	vfpfcnvrt@cp& (0+255),b
  3816   002CE0                     
  3817                           ; BSR set to: 1
  3818                           ;C:\Program Files\Microchip\xc8\v2.45\pic\sources\c99\common\doprnt.c: 1361:   if (*cp =
      +                          = 'd' || *cp == 'i') {
  3819   002CE0  C16C  FFF6         	movff	vfpfcnvrt@cp,tblptrl
  3820   002CE4                     	if	1	;There is more than 1 active tblptr byte
  3821   002CE4  0E08               	movlw	high __smallconst
  3822   002CE6  6EF7               	movwf	tblptrh,c
  3823   002CE8                     	endif
  3824   002CE8                     	if	0	;tblptru may be non-zero
  3825   002CE8                     	endif
  3826   002CE8                     	if	0	;tblptru may be non-zero
  3827   002CE8                     	endif
  3828   002CE8  0008               	tblrd		*
  3829   002CEA  50F5               	movf	tablat,w,c
  3830   002CEC  0A64               	xorlw	100
  3831   002CEE  B4D8               	btfsc	status,2,c
  3832   002CF0  EF7C  F016         	goto	u7301
  3833   002CF4  EF7E  F016         	goto	u7300
  3834   002CF8                     u7301:
  3835   002CF8  EF8C  F016         	goto	l5829
  3836   002CFC                     u7300:
  3837   002CFC                     
  3838                           ; BSR set to: 1
  3839   002CFC  C16C  FFF6         	movff	vfpfcnvrt@cp,tblptrl
  3840   002D00                     	if	1	;There is more than 1 active tblptr byte
  3841   002D00  0E08               	movlw	high __smallconst
  3842   002D02  6EF7               	movwf	tblptrh,c
  3843   002D04                     	endif
  3844   002D04                     	if	0	;tblptru may be non-zero
  3845   002D04                     	endif
  3846   002D04                     	if	0	;tblptru may be non-zero
  3847   002D04                     	endif
  3848   002D04  0008               	tblrd		*
  3849   002D06  50F5               	movf	tablat,w,c
  3850   002D08  0A69               	xorlw	105
  3851   002D0A  A4D8               	btfss	status,2,c
  3852   002D0C  EF8A  F016         	goto	u7311
  3853   002D10  EF8C  F016         	goto	u7310
  3854   002D14                     u7311:
  3855   002D14  EFB3  F016         	goto	l5835
  3856   002D18                     u7310:
  3857   002D18                     l5829:
  3858                           
  3859                           ; BSR set to: 1
  3860                           ;C:\Program Files\Microchip\xc8\v2.45\pic\sources\c99\common\doprnt.c: 1404:    convarg.
      +                          sint = (vfpf_sint_t)(int)(*(int *)__va_arg(*(int **)ap, (int)0));
  3861   002D18  C0F8  FFD9         	movff	vfpfcnvrt@ap,fsr2l
  3862   002D1C  C0F9  FFDA         	movff	vfpfcnvrt@ap+1,fsr2h
  3863   002D20  CFDF F0FA          	movff	indf2,??_vfpfcnvrt
  3864   002D24  0E02               	movlw	2
  3865   002D26  26DE               	addwf	postinc2,f,c
  3866   002D28  CFDF F0FB          	movff	indf2,??_vfpfcnvrt+1
  3867   002D2C  0E00               	movlw	0
  3868   002D2E  22DD               	addwfc	postdec2,f,c
  3869   002D30  C0FA  FFD9         	movff	??_vfpfcnvrt,fsr2l
  3870   002D34  C0FB  FFDA         	movff	??_vfpfcnvrt+1,fsr2h
  3871   002D38  CFDE F167          	movff	postinc2,vfpfcnvrt@convarg
  3872   002D3C  CFDD F168          	movff	postdec2,vfpfcnvrt@convarg+1
  3873                           
  3874                           ;C:\Program Files\Microchip\xc8\v2.45\pic\sources\c99\common\doprnt.c: 1406:    *fmt = c
      +                          p+1;
  3875   002D40  0100               	movlb	0	; () banked
  3876   002D42  51F7               	movf	vfpfcnvrt@fmt& (0+255),w,b
  3877   002D44  6ED9               	movwf	fsr2l,c
  3878   002D46  6ADA               	clrf	fsr2h,c
  3879   002D48  0101               	movlb	1	; () banked
  3880   002D4A  296C               	incf	vfpfcnvrt@cp& (0+255),w,b
  3881   002D4C  6EDF               	movwf	indf2,c
  3882   002D4E                     
  3883                           ; BSR set to: 1
  3884                           ;C:\Program Files\Microchip\xc8\v2.45\pic\sources\c99\common\doprnt.c: 1432:    return (
      +                          void) dtoa(fp, convarg.sint);;	Return value of _vfpfcnvrt is never used
  3885   002D4E  C0F5  F01A         	movff	vfpfcnvrt@fp,dtoa@fp
  3886   002D52  C0F6  F01B         	movff	vfpfcnvrt@fp+1,dtoa@fp+1
  3887   002D56  C167  F01C         	movff	vfpfcnvrt@convarg,dtoa@d
  3888   002D5A  C168  F01D         	movff	vfpfcnvrt@convarg+1,dtoa@d+1
  3889   002D5E  ECB7  F01A         	call	_dtoa	;wreg free
  3890   002D62  EF95  F017         	goto	l1022
  3891   002D66                     l5835:
  3892                           
  3893                           ; BSR set to: 1
  3894                           ;C:\Program Files\Microchip\xc8\v2.45\pic\sources\c99\common\doprnt.c: 1689:   cp = *fmt
      +                          ;
  3895   002D66  0100               	movlb	0	; () banked
  3896   002D68  51F7               	movf	vfpfcnvrt@fmt& (0+255),w,b
  3897   002D6A  6ED9               	movwf	fsr2l,c
  3898   002D6C  6ADA               	clrf	fsr2h,c
  3899   002D6E  50DF               	movf	indf2,w,c
  3900   002D70  0101               	movlb	1	; () banked
  3901   002D72  6F6C               	movwf	vfpfcnvrt@cp& (0+255),b
  3902   002D74                     
  3903                           ; BSR set to: 1
  3904                           ;C:\Program Files\Microchip\xc8\v2.45\pic\sources\c99\common\doprnt.c: 1690:   c = *cp;
  3905   002D74  C16C  FFF6         	movff	vfpfcnvrt@cp,tblptrl
  3906   002D78                     	if	1	;There is more than 1 active tblptr byte
  3907   002D78  0E08               	movlw	high __smallconst
  3908   002D7A  6EF7               	movwf	tblptrh,c
  3909   002D7C                     	endif
  3910   002D7C                     	if	0	;tblptru may be non-zero
  3911   002D7C                     	endif
  3912   002D7C                     	if	0	;tblptru may be non-zero
  3913   002D7C                     	endif
  3914   002D7C  0008               	tblrd		*
  3915   002D7E  CFF5 F16B          	movff	tablat,vfpfcnvrt@c
  3916                           
  3917                           ;C:\Program Files\Microchip\xc8\v2.45\pic\sources\c99\common\doprnt.c: 1691:   switch(c)
      +                           {
  3918   002D82  EFD1  F016         	goto	l5847
  3919   002D86                     l5839:
  3920                           
  3921                           ; BSR set to: 0
  3922                           ;C:\Program Files\Microchip\xc8\v2.45\pic\sources\c99\common\doprnt.c: 1695:     cp++;
  3923   002D86  0101               	movlb	1	; () banked
  3924   002D88  2B6C               	incf	vfpfcnvrt@cp& (0+255),f,b
  3925                           
  3926                           ;C:\Program Files\Microchip\xc8\v2.45\pic\sources\c99\common\doprnt.c: 1696:     break;
  3927   002D8A  EFEB  F016         	goto	l5849
  3928   002D8E                     l5841:
  3929                           
  3930                           ; BSR set to: 0
  3931                           ;C:\Program Files\Microchip\xc8\v2.45\pic\sources\c99\common\doprnt.c: 1721:     c = 'l'
      +                          ;
  3932   002D8E  0E6C               	movlw	108
  3933   002D90  0101               	movlb	1	; () banked
  3934   002D92  6F6B               	movwf	vfpfcnvrt@c& (0+255),b
  3935                           
  3936                           ;C:\Program Files\Microchip\xc8\v2.45\pic\sources\c99\common\doprnt.c: 1722:     break;
  3937   002D94  EFEB  F016         	goto	l5849
  3938   002D98                     l5843:
  3939                           
  3940                           ; BSR set to: 0
  3941                           ;C:\Program Files\Microchip\xc8\v2.45\pic\sources\c99\common\doprnt.c: 1724:     c = 0;
  3942   002D98  0E00               	movlw	0
  3943   002D9A  0101               	movlb	1	; () banked
  3944   002D9C  6F6B               	movwf	vfpfcnvrt@c& (0+255),b
  3945                           
  3946                           ;C:\Program Files\Microchip\xc8\v2.45\pic\sources\c99\common\doprnt.c: 1725:     break;
  3947   002D9E  EFEB  F016         	goto	l5849
  3948   002DA2                     l5847:
  3949                           
  3950                           ; BSR set to: 1
  3951   002DA2  516B               	movf	vfpfcnvrt@c& (0+255),w,b
  3952   002DA4  0100               	movlb	0	; () banked
  3953   002DA6  6FFA               	movwf	??_vfpfcnvrt& (0+255),b
  3954   002DA8  6BFB               	clrf	(??_vfpfcnvrt+1)& (0+255),b
  3955                           
  3956                           ; Switch on 2 bytes has been partitioned into a top level switch of size 1, and 1 sub-sw
      +                          itches
  3957                           ; Switch size 1, requested type "simple"
  3958                           ; Number of cases is 1, Range of values is 0 to 0
  3959                           ; switch strategies available:
  3960                           ; Name         Instructions Cycles
  3961                           ; simple_byte            4     3 (average)
  3962                           ;	Chosen strategy is simple_byte
  3963   002DAA  51FB               	movf	(??_vfpfcnvrt+1)& (0+255),w,b
  3964   002DAC  0A00               	xorlw	0	; case 0
  3965   002DAE  B4D8               	btfsc	status,2,c
  3966   002DB0  EFDC  F016         	goto	l6353
  3967   002DB4  EFCC  F016         	goto	l5843
  3968   002DB8                     l6353:
  3969                           
  3970                           ; BSR set to: 0
  3971                           ; Switch size 1, requested type "simple"
  3972                           ; Number of cases is 3, Range of values is 76 to 108
  3973                           ; switch strategies available:
  3974                           ; Name         Instructions Cycles
  3975                           ; simple_byte           10     6 (average)
  3976                           ;	Chosen strategy is simple_byte
  3977   002DB8  51FA               	movf	??_vfpfcnvrt& (0+255),w,b
  3978   002DBA  0A4C               	xorlw	76	; case 76
  3979   002DBC  B4D8               	btfsc	status,2,c
  3980   002DBE  EFC3  F016         	goto	l5839
  3981   002DC2  0A2A               	xorlw	42	; case 102
  3982   002DC4  B4D8               	btfsc	status,2,c
  3983   002DC6  EFC7  F016         	goto	l5841
  3984   002DCA  0A0A               	xorlw	10	; case 108
  3985   002DCC  B4D8               	btfsc	status,2,c
  3986   002DCE  EFC3  F016         	goto	l5839
  3987   002DD2  EFCC  F016         	goto	l5843
  3988   002DD6                     l5849:
  3989                           
  3990                           ; BSR set to: 1
  3991   002DD6  C16C  FFF6         	movff	vfpfcnvrt@cp,tblptrl
  3992   002DDA                     	if	1	;There is more than 1 active tblptr byte
  3993   002DDA  0E08               	movlw	high __smallconst
  3994   002DDC  6EF7               	movwf	tblptrh,c
  3995   002DDE                     	endif
  3996   002DDE                     	if	0	;tblptru may be non-zero
  3997   002DDE                     	endif
  3998   002DDE                     	if	0	;tblptru may be non-zero
  3999   002DDE                     	endif
  4000   002DDE  0008               	tblrd		*
  4001   002DE0  50F5               	movf	tablat,w,c
  4002   002DE2  0A66               	xorlw	102
  4003   002DE4  A4D8               	btfss	status,2,c
  4004   002DE6  EFF7  F016         	goto	u7321
  4005   002DEA  EFF9  F016         	goto	u7320
  4006   002DEE                     u7321:
  4007   002DEE  EF7B  F017         	goto	l5869
  4008   002DF2                     u7320:
  4009   002DF2  EF2F  F017         	goto	l5857
  4010   002DF6                     l5851:
  4011                           
  4012                           ; BSR set to: 0
  4013                           ;C:\Program Files\Microchip\xc8\v2.45\pic\sources\c99\common\doprnt.c: 1756:      convar
      +                          g.f = (long double)(*(double *)__va_arg(*(double **)ap, (double)0));
  4014   002DF6  C0F8  FFD9         	movff	vfpfcnvrt@ap,fsr2l
  4015   002DFA  C0F9  FFDA         	movff	vfpfcnvrt@ap+1,fsr2h
  4016   002DFE  CFDF F0FA          	movff	indf2,??_vfpfcnvrt
  4017   002E02  0E04               	movlw	4
  4018   002E04  26DE               	addwf	postinc2,f,c
  4019   002E06  CFDF F0FB          	movff	indf2,??_vfpfcnvrt+1
  4020   002E0A  0E00               	movlw	0
  4021   002E0C  22DD               	addwfc	postdec2,f,c
  4022   002E0E  C0FA  FFD9         	movff	??_vfpfcnvrt,fsr2l
  4023   002E12  C0FB  FFDA         	movff	??_vfpfcnvrt+1,fsr2h
  4024   002E16  CFDE F167          	movff	postinc2,vfpfcnvrt@convarg
  4025   002E1A  CFDE F168          	movff	postinc2,vfpfcnvrt@convarg+1
  4026   002E1E  CFDE F169          	movff	postinc2,vfpfcnvrt@convarg+2
  4027   002E22  CFDE F16A          	movff	postinc2,vfpfcnvrt@convarg+3
  4028                           
  4029                           ;C:\Program Files\Microchip\xc8\v2.45\pic\sources\c99\common\doprnt.c: 1757:      break;
  4030   002E26  EF45  F017         	goto	l5859
  4031   002E2A                     l5853:
  4032                           
  4033                           ; BSR set to: 0
  4034                           ;C:\Program Files\Microchip\xc8\v2.45\pic\sources\c99\common\doprnt.c: 1759:      convar
      +                          g.f = (long double)(*(long double *)__va_arg(*(long double **)ap, (long double)0));
  4035   002E2A  C0F8  FFD9         	movff	vfpfcnvrt@ap,fsr2l
  4036   002E2E  C0F9  FFDA         	movff	vfpfcnvrt@ap+1,fsr2h
  4037   002E32  CFDF F0FA          	movff	indf2,??_vfpfcnvrt
  4038   002E36  0E04               	movlw	4
  4039   002E38  26DE               	addwf	postinc2,f,c
  4040   002E3A  CFDF F0FB          	movff	indf2,??_vfpfcnvrt+1
  4041   002E3E  0E00               	movlw	0
  4042   002E40  22DD               	addwfc	postdec2,f,c
  4043   002E42  C0FA  FFD9         	movff	??_vfpfcnvrt,fsr2l
  4044   002E46  C0FB  FFDA         	movff	??_vfpfcnvrt+1,fsr2h
  4045   002E4A  CFDE F167          	movff	postinc2,vfpfcnvrt@convarg
  4046   002E4E  CFDE F168          	movff	postinc2,vfpfcnvrt@convarg+1
  4047   002E52  CFDE F169          	movff	postinc2,vfpfcnvrt@convarg+2
  4048   002E56  CFDE F16A          	movff	postinc2,vfpfcnvrt@convarg+3
  4049                           
  4050                           ;C:\Program Files\Microchip\xc8\v2.45\pic\sources\c99\common\doprnt.c: 1760:      break;
  4051   002E5A  EF45  F017         	goto	l5859
  4052   002E5E                     l5857:
  4053                           
  4054                           ; BSR set to: 1
  4055   002E5E  516B               	movf	vfpfcnvrt@c& (0+255),w,b
  4056   002E60  0100               	movlb	0	; () banked
  4057   002E62  6FFA               	movwf	??_vfpfcnvrt& (0+255),b
  4058   002E64  6BFB               	clrf	(??_vfpfcnvrt+1)& (0+255),b
  4059                           
  4060                           ; Switch on 2 bytes has been partitioned into a top level switch of size 1, and 1 sub-sw
      +                          itches
  4061                           ; Switch size 1, requested type "simple"
  4062                           ; Number of cases is 1, Range of values is 0 to 0
  4063                           ; switch strategies available:
  4064                           ; Name         Instructions Cycles
  4065                           ; simple_byte            4     3 (average)
  4066                           ;	Chosen strategy is simple_byte
  4067   002E66  51FB               	movf	(??_vfpfcnvrt+1)& (0+255),w,b
  4068   002E68  0A00               	xorlw	0	; case 0
  4069   002E6A  B4D8               	btfsc	status,2,c
  4070   002E6C  EF3A  F017         	goto	l6355
  4071   002E70  EF45  F017         	goto	l5859
  4072   002E74                     l6355:
  4073                           
  4074                           ; BSR set to: 0
  4075                           ; Switch size 1, requested type "simple"
  4076                           ; Number of cases is 2, Range of values is 76 to 108
  4077                           ; switch strategies available:
  4078                           ; Name         Instructions Cycles
  4079                           ; simple_byte            7     4 (average)
  4080                           ;	Chosen strategy is simple_byte
  4081   002E74  51FA               	movf	??_vfpfcnvrt& (0+255),w,b
  4082   002E76  0A4C               	xorlw	76	; case 76
  4083   002E78  B4D8               	btfsc	status,2,c
  4084   002E7A  EF15  F017         	goto	l5853
  4085   002E7E  0A20               	xorlw	32	; case 108
  4086   002E80  B4D8               	btfsc	status,2,c
  4087   002E82  EFFB  F016         	goto	l5851
  4088   002E86  EF45  F017         	goto	l5859
  4089   002E8A                     l5859:
  4090                           
  4091                           ; BSR set to: 0
  4092                           ;C:\Program Files\Microchip\xc8\v2.45\pic\sources\c99\common\doprnt.c: 1762:    *fmt = c
      +                          p+1;
  4093   002E8A  51F7               	movf	vfpfcnvrt@fmt& (0+255),w,b
  4094   002E8C  6ED9               	movwf	fsr2l,c
  4095   002E8E  6ADA               	clrf	fsr2h,c
  4096   002E90  0101               	movlb	1	; () banked
  4097   002E92  296C               	incf	vfpfcnvrt@cp& (0+255),w,b
  4098   002E94  6EDF               	movwf	indf2,c
  4099                           
  4100                           ;C:\Program Files\Microchip\xc8\v2.45\pic\sources\c99\common\doprnt.c: 1763:    switch (
      +                          *cp) {
  4101   002E96  EF64  F017         	goto	l5867
  4102   002E9A                     l5861:
  4103                           
  4104                           ; BSR set to: 0
  4105                           ;C:\Program Files\Microchip\xc8\v2.45\pic\sources\c99\common\doprnt.c: 1790:      return
      +                           (void) efgtoa(fp, convarg.f, *cp);;	Return value of _vfpfcnvrt is never used
  4106   002E9A  C0F5  F0C0         	movff	vfpfcnvrt@fp,efgtoa@fp
  4107   002E9E  C0F6  F0C1         	movff	vfpfcnvrt@fp+1,efgtoa@fp+1
  4108   002EA2  C167  F0C2         	movff	vfpfcnvrt@convarg,efgtoa@f
  4109   002EA6  C168  F0C3         	movff	vfpfcnvrt@convarg+1,efgtoa@f+1
  4110   002EAA  C169  F0C4         	movff	vfpfcnvrt@convarg+2,efgtoa@f+2
  4111   002EAE  C16A  F0C5         	movff	vfpfcnvrt@convarg+3,efgtoa@f+3
  4112   002EB2  C16C  FFF6         	movff	vfpfcnvrt@cp,tblptrl
  4113   002EB6                     	if	1	;There is more than 1 active tblptr byte
  4114   002EB6  0E08               	movlw	high __smallconst
  4115   002EB8  6EF7               	movwf	tblptrh,c
  4116   002EBA                     	endif
  4117   002EBA                     	if	0	;tblptru may be non-zero
  4118   002EBA                     	endif
  4119   002EBA                     	if	0	;tblptru may be non-zero
  4120   002EBA                     	endif
  4121   002EBA  0008               	tblrd		*
  4122   002EBC  CFF5 F0C6          	movff	tablat,efgtoa@c
  4123   002EC0  EC3A  F004         	call	_efgtoa	;wreg free
  4124   002EC4  EF95  F017         	goto	l1022
  4125   002EC8                     l5867:
  4126                           
  4127                           ; BSR set to: 1
  4128   002EC8  C16C  FFF6         	movff	vfpfcnvrt@cp,tblptrl
  4129   002ECC                     	if	1	;There is more than 1 active tblptr byte
  4130   002ECC  0E08               	movlw	high __smallconst
  4131   002ECE  6EF7               	movwf	tblptrh,c
  4132   002ED0                     	endif
  4133   002ED0                     	if	0	;tblptru may be non-zero
  4134   002ED0                     	endif
  4135   002ED0                     	if	0	;tblptru may be non-zero
  4136   002ED0                     	endif
  4137   002ED0  0008               	tblrd		*
  4138   002ED2  50F5               	movf	tablat,w,c
  4139   002ED4  0100               	movlb	0	; () banked
  4140   002ED6  6FFA               	movwf	??_vfpfcnvrt& (0+255),b
  4141   002ED8  6BFB               	clrf	(??_vfpfcnvrt+1)& (0+255),b
  4142                           
  4143                           ; Switch on 2 bytes has been partitioned into a top level switch of size 1, and 1 sub-sw
      +                          itches
  4144                           ; Switch size 1, requested type "simple"
  4145                           ; Number of cases is 1, Range of values is 0 to 0
  4146                           ; switch strategies available:
  4147                           ; Name         Instructions Cycles
  4148                           ; simple_byte            4     3 (average)
  4149                           ;	Chosen strategy is simple_byte
  4150   002EDA  51FB               	movf	(??_vfpfcnvrt+1)& (0+255),w,b
  4151   002EDC  0A00               	xorlw	0	; case 0
  4152   002EDE  B4D8               	btfsc	status,2,c
  4153   002EE0  EF74  F017         	goto	l6357
  4154   002EE4  EF7B  F017         	goto	l5869
  4155   002EE8                     l6357:
  4156                           
  4157                           ; BSR set to: 0
  4158                           ; Switch size 1, requested type "simple"
  4159                           ; Number of cases is 1, Range of values is 102 to 102
  4160                           ; switch strategies available:
  4161                           ; Name         Instructions Cycles
  4162                           ; simple_byte            4     3 (average)
  4163                           ;	Chosen strategy is simple_byte
  4164   002EE8  51FA               	movf	??_vfpfcnvrt& (0+255),w,b
  4165   002EEA  0A66               	xorlw	102	; case 102
  4166   002EEC  B4D8               	btfsc	status,2,c
  4167   002EEE  EF4D  F017         	goto	l5861
  4168   002EF2  EF7B  F017         	goto	l5869
  4169   002EF6                     l5869:
  4170                           
  4171                           ;C:\Program Files\Microchip\xc8\v2.45\pic\sources\c99\common\doprnt.c: 1806:         ++*
      +                          fmt;
  4172   002EF6  0100               	movlb	0	; () banked
  4173   002EF8  51F7               	movf	vfpfcnvrt@fmt& (0+255),w,b
  4174   002EFA  6ED9               	movwf	fsr2l,c
  4175   002EFC  6ADA               	clrf	fsr2h,c
  4176   002EFE  2ADF               	incf	indf2,f,c
  4177   002F00  EF95  F017         	goto	l1022
  4178   002F04                     l5873:
  4179                           
  4180                           ; BSR set to: 0
  4181                           ;C:\Program Files\Microchip\xc8\v2.45\pic\sources\c99\common\doprnt.c: 1811:     fputc((
      +                          int)(*fmt)[0], fp);
  4182   002F04  51F7               	movf	vfpfcnvrt@fmt& (0+255),w,b
  4183   002F06  6ED9               	movwf	fsr2l,c
  4184   002F08  6ADA               	clrf	fsr2h,c
  4185   002F0A  CFDF FFF6          	movff	indf2,tblptrl
  4186   002F0E                     	if	1	;There is more than 1 active tblptr byte
  4187   002F0E  0E08               	movlw	high __smallconst
  4188   002F10  6EF7               	movwf	tblptrh,c
  4189   002F12                     	endif
  4190   002F12                     	if	0	;tblptru may be non-zero
  4191   002F12                     	endif
  4192   002F12                     	if	0	;tblptru may be non-zero
  4193   002F12                     	endif
  4194   002F12  0008               	tblrd		*
  4195   002F14  50F5               	movf	tablat,w,c
  4196   002F16  6E01               	movwf	fputc@c^0,c
  4197   002F18  6A02               	clrf	(fputc@c+1)^0,c
  4198   002F1A  C0F5  F003         	movff	vfpfcnvrt@fp,fputc@fp
  4199   002F1E  C0F6  F004         	movff	vfpfcnvrt@fp+1,fputc@fp+1
  4200   002F22  EC69  F01F         	call	_fputc	;wreg free
  4201   002F26  EF7B  F017         	goto	l5869
  4202   002F2A                     l1022:
  4203   002F2A  0012               	return		;funcret
  4204   002F2C                     __end_of_vfpfcnvrt:
  4205                           	callstack 0
  4206                           
  4207 ;; *************** function _read_prec_or_width *****************
  4208 ;; Defined at:
  4209 ;;		line 1158 in file "C:\Program Files\Microchip\xc8\v2.45\pic\sources\c99\common\doprnt.c"
  4210 ;; Parameters:    Size  Location     Type
  4211 ;;  fmt             1    6[COMRAM] PTR PTR const unsigned c
  4212 ;;		 -> vfprintf@cfmt(1), 
  4213 ;;  ap              2    7[COMRAM] PTR PTR void [1]
  4214 ;;		 -> sprintf@ap(2), 
  4215 ;; Auto vars:     Size  Location     Type
  4216 ;;  c               1   11[COMRAM] unsigned char 
  4217 ;;  n               2   12[COMRAM] int 
  4218 ;; Return value:  Size  Location     Type
  4219 ;;                  2    6[COMRAM] int 
  4220 ;; Registers used:
  4221 ;;		wreg, fsr2l, fsr2h, status,2, status,0, tblptrl, tblptrh, tblptru, prodl, prodh, cstack
  4222 ;; Tracked objects:
  4223 ;;		On entry : 0/0
  4224 ;;		On exit  : 0/0
  4225 ;;		Unchanged: 0/0
  4226 ;; Data sizes:     COMRAM   BANK0   BANK1   BANK2   BANK3   BANK4   BANK5   BANK6   BANK7
  4227 ;;      Params:         3       0       0       0       0       0       0       0       0
  4228 ;;      Locals:         3       0       0       0       0       0       0       0       0
  4229 ;;      Temps:          2       0       0       0       0       0       0       0       0
  4230 ;;      Totals:         8       0       0       0       0       0       0       0       0
  4231 ;;Total ram usage:        8 bytes
  4232 ;; Hardware stack levels used: 1
  4233 ;; Hardware stack levels required when called: 1
  4234 ;; This function calls:
  4235 ;;		___wmul
  4236 ;; This function is called by:
  4237 ;;		_vfpfcnvrt
  4238 ;; This function uses a non-reentrant model
  4239 ;;
  4240                           
  4241                           	psect	text11
  4242   004060                     __ptext11:
  4243                           	callstack 0
  4244   004060                     _read_prec_or_width:
  4245                           	callstack 25
  4246   004060                     
  4247                           ;C:\Program Files\Microchip\xc8\v2.45\pic\sources\c99\common\doprnt.c: 1159:     int n =
      +                           0;
  4248   004060  0E00               	movlw	0
  4249   004062  6E0E               	movwf	(read_prec_or_width@n+1)^0,c
  4250   004064  0E00               	movlw	0
  4251   004066  6E0D               	movwf	read_prec_or_width@n^0,c
  4252   004068                     
  4253                           ;C:\Program Files\Microchip\xc8\v2.45\pic\sources\c99\common\doprnt.c: 1160:     if ((*f
      +                          mt)[0] == '*') {
  4254   004068  5007               	movf	read_prec_or_width@fmt^0,w,c
  4255   00406A  6ED9               	movwf	fsr2l,c
  4256   00406C  6ADA               	clrf	fsr2h,c
  4257   00406E  CFDF FFF6          	movff	indf2,tblptrl
  4258   004072                     	if	1	;There is more than 1 active tblptr byte
  4259   004072  0E08               	movlw	high __smallconst
  4260   004074  6EF7               	movwf	tblptrh,c
  4261   004076                     	endif
  4262   004076                     	if	0	;tblptru may be non-zero
  4263   004076                     	endif
  4264   004076                     	if	0	;tblptru may be non-zero
  4265   004076                     	endif
  4266   004076  0008               	tblrd		*
  4267   004078  50F5               	movf	tablat,w,c
  4268   00407A  0A2A               	xorlw	42
  4269   00407C  A4D8               	btfss	status,2,c
  4270   00407E  EF43  F020         	goto	u7251
  4271   004082  EF45  F020         	goto	u7250
  4272   004086                     u7251:
  4273   004086  EF73  F020         	goto	l5793
  4274   00408A                     u7250:
  4275   00408A                     
  4276                           ;C:\Program Files\Microchip\xc8\v2.45\pic\sources\c99\common\doprnt.c: 1161:         ++*
      +                          fmt;
  4277   00408A  5007               	movf	read_prec_or_width@fmt^0,w,c
  4278   00408C  6ED9               	movwf	fsr2l,c
  4279   00408E  6ADA               	clrf	fsr2h,c
  4280   004090  2ADF               	incf	indf2,f,c
  4281                           
  4282                           ;C:\Program Files\Microchip\xc8\v2.45\pic\sources\c99\common\doprnt.c: 1162:         n =
      +                           (*(int *)__va_arg(*(int **)*ap, (int)0));
  4283   004092  C008  FFD9         	movff	read_prec_or_width@ap,fsr2l
  4284   004096  C009  FFDA         	movff	read_prec_or_width@ap+1,fsr2h
  4285   00409A  CFDF F00A          	movff	indf2,??_read_prec_or_width
  4286   00409E  0E02               	movlw	2
  4287   0040A0  26DE               	addwf	postinc2,f,c
  4288   0040A2  CFDF F00B          	movff	indf2,??_read_prec_or_width+1
  4289   0040A6  0E00               	movlw	0
  4290   0040A8  22DD               	addwfc	postdec2,f,c
  4291   0040AA  C00A  FFD9         	movff	??_read_prec_or_width,fsr2l
  4292   0040AE  C00B  FFDA         	movff	??_read_prec_or_width+1,fsr2h
  4293   0040B2  CFDE F00D          	movff	postinc2,read_prec_or_width@n
  4294   0040B6  CFDD F00E          	movff	postdec2,read_prec_or_width@n+1
  4295                           
  4296                           ;C:\Program Files\Microchip\xc8\v2.45\pic\sources\c99\common\doprnt.c: 1163:     } else 
      +                          {
  4297   0040BA  EF86  F020         	goto	l1003
  4298   0040BE                     l5789:
  4299                           
  4300                           ;C:\Program Files\Microchip\xc8\v2.45\pic\sources\c99\common\doprnt.c: 1166:            
      +                           n = n * 10 + c;
  4301   0040BE  C00D  F001         	movff	read_prec_or_width@n,___wmul@multiplier
  4302   0040C2  C00E  F002         	movff	read_prec_or_width@n+1,___wmul@multiplier+1
  4303   0040C6  0E00               	movlw	0
  4304   0040C8  6E04               	movwf	(___wmul@multiplicand+1)^0,c
  4305   0040CA  0E0A               	movlw	10
  4306   0040CC  6E03               	movwf	___wmul@multiplicand^0,c
  4307   0040CE  EC36  F023         	call	___wmul	;wreg free
  4308   0040D2  500C               	movf	read_prec_or_width@c^0,w,c
  4309   0040D4  2401               	addwf	?___wmul^0,w,c
  4310   0040D6  6E0D               	movwf	read_prec_or_width@n^0,c
  4311   0040D8  0E00               	movlw	0
  4312   0040DA  2002               	addwfc	(?___wmul+1)^0,w,c
  4313   0040DC  6E0E               	movwf	(read_prec_or_width@n+1)^0,c
  4314   0040DE                     
  4315                           ;C:\Program Files\Microchip\xc8\v2.45\pic\sources\c99\common\doprnt.c: 1167:            
      +                           ++*fmt;
  4316   0040DE  5007               	movf	read_prec_or_width@fmt^0,w,c
  4317   0040E0  6ED9               	movwf	fsr2l,c
  4318   0040E2  6ADA               	clrf	fsr2h,c
  4319   0040E4  2ADF               	incf	indf2,f,c
  4320   0040E6                     l5793:
  4321                           
  4322                           ;C:\Program Files\Microchip\xc8\v2.45\pic\sources\c99\common\doprnt.c: 1165:         whi
      +                          le ((c = ((unsigned)(*fmt)[0]) - '0') < 10) {
  4323   0040E6  5007               	movf	read_prec_or_width@fmt^0,w,c
  4324   0040E8  6ED9               	movwf	fsr2l,c
  4325   0040EA  6ADA               	clrf	fsr2h,c
  4326   0040EC  CFDF FFF6          	movff	indf2,tblptrl
  4327   0040F0                     	if	1	;There is more than 1 active tblptr byte
  4328   0040F0  0E08               	movlw	high __smallconst
  4329   0040F2  6EF7               	movwf	tblptrh,c
  4330   0040F4                     	endif
  4331   0040F4                     	if	0	;tblptru may be non-zero
  4332   0040F4                     	endif
  4333   0040F4                     	if	0	;tblptru may be non-zero
  4334   0040F4                     	endif
  4335   0040F4  0008               	tblrd		*
  4336   0040F6  50F5               	movf	tablat,w,c
  4337   0040F8  0FD0               	addlw	208
  4338   0040FA  6E0C               	movwf	read_prec_or_width@c^0,c
  4339   0040FC  0E09               	movlw	9
  4340   0040FE  640C               	cpfsgt	read_prec_or_width@c^0,c
  4341   004100  EF84  F020         	goto	u7261
  4342   004104  EF86  F020         	goto	u7260
  4343   004108                     u7261:
  4344   004108  EF5F  F020         	goto	l5789
  4345   00410C                     u7260:
  4346   00410C                     l1003:
  4347                           
  4348                           ;C:\Program Files\Microchip\xc8\v2.45\pic\sources\c99\common\doprnt.c: 1170:     return 
      +                          n;
  4349   00410C  C00D  F007         	movff	read_prec_or_width@n,?_read_prec_or_width
  4350   004110  C00E  F008         	movff	read_prec_or_width@n+1,?_read_prec_or_width+1
  4351   004114  0012               	return		;funcret
  4352   004116                     __end_of_read_prec_or_width:
  4353                           	callstack 0
  4354                           
  4355 ;; *************** function ___wmul *****************
  4356 ;; Defined at:
  4357 ;;		line 15 in file "C:\Program Files\Microchip\xc8\v2.45\pic\sources\c99\common\Umul16.c"
  4358 ;; Parameters:    Size  Location     Type
  4359 ;;  multiplier      2    0[COMRAM] unsigned int 
  4360 ;;  multiplicand    2    2[COMRAM] unsigned int 
  4361 ;; Auto vars:     Size  Location     Type
  4362 ;;  product         2    4[COMRAM] unsigned int 
  4363 ;; Return value:  Size  Location     Type
  4364 ;;                  2    0[COMRAM] unsigned int 
  4365 ;; Registers used:
  4366 ;;		wreg, status,2, status,0, prodl, prodh
  4367 ;; Tracked objects:
  4368 ;;		On entry : 0/0
  4369 ;;		On exit  : 0/0
  4370 ;;		Unchanged: 0/0
  4371 ;; Data sizes:     COMRAM   BANK0   BANK1   BANK2   BANK3   BANK4   BANK5   BANK6   BANK7
  4372 ;;      Params:         4       0       0       0       0       0       0       0       0
  4373 ;;      Locals:         2       0       0       0       0       0       0       0       0
  4374 ;;      Temps:          0       0       0       0       0       0       0       0       0
  4375 ;;      Totals:         6       0       0       0       0       0       0       0       0
  4376 ;;Total ram usage:        6 bytes
  4377 ;; Hardware stack levels used: 1
  4378 ;; This function calls:
  4379 ;;		Nothing
  4380 ;; This function is called by:
  4381 ;;		_read_prec_or_width
  4382 ;; This function uses a non-reentrant model
  4383 ;;
  4384                           
  4385                           	psect	text12
  4386   00466C                     __ptext12:
  4387                           	callstack 0
  4388   00466C                     ___wmul:
  4389                           	callstack 25
  4390   00466C  5001               	movf	___wmul@multiplier^0,w,c
  4391   00466E  0203               	mulwf	___wmul@multiplicand^0,c
  4392   004670  CFF3 F005          	movff	prodl,___wmul@product
  4393   004674  CFF4 F006          	movff	prodh,___wmul@product+1
  4394   004678  5001               	movf	___wmul@multiplier^0,w,c
  4395   00467A  0204               	mulwf	(___wmul@multiplicand+1)^0,c
  4396   00467C  50F3               	movf	243,w,c
  4397   00467E  2606               	addwf	(___wmul@product+1)^0,f,c
  4398   004680  5002               	movf	(___wmul@multiplier+1)^0,w,c
  4399   004682  0203               	mulwf	___wmul@multiplicand^0,c
  4400   004684  50F3               	movf	243,w,c
  4401   004686  2606               	addwf	(___wmul@product+1)^0,f,c
  4402   004688  C005  F001         	movff	___wmul@product,?___wmul
  4403   00468C  C006  F002         	movff	___wmul@product+1,?___wmul+1
  4404   004690  0012               	return		;funcret
  4405   004692                     __end_of___wmul:
  4406                           	callstack 0
  4407                           
  4408 ;; *************** function _efgtoa *****************
  4409 ;; Defined at:
  4410 ;;		line 587 in file "C:\Program Files\Microchip\xc8\v2.45\pic\sources\c99\common\doprnt.c"
  4411 ;; Parameters:    Size  Location     Type
  4412 ;;  fp              2   96[BANK0 ] PTR struct _IO_FILE
  4413 ;;		 -> sprintf@f(12), 
  4414 ;;  f               4   98[BANK0 ] PTR struct _IO_FILE
  4415 ;;  c               1  102[BANK0 ] unsigned char 
  4416 ;; Auto vars:     Size  Location     Type
  4417 ;;  u               4  145[BANK0 ] struct flui
  4418 ;;  g               4  139[BANK0 ] struct flui
  4419 ;;  l               4  132[BANK0 ] struct flui
  4420 ;;  h               4  128[BANK0 ] struct flui
  4421 ;;  ou              4  122[BANK0 ] struct flui
  4422 ;;  n               2  143[BANK0 ] int 
  4423 ;;  i               2  136[BANK0 ] int 
  4424 ;;  w               2  126[BANK0 ] int 
  4425 ;;  e               2  120[BANK0 ] int 
  4426 ;;  m               2  118[BANK0 ] int 
  4427 ;;  d               2  116[BANK0 ] int 
  4428 ;;  t               2  109[BANK0 ] int 
  4429 ;;  p               2  107[BANK0 ] int 
  4430 ;;  ne              2  105[BANK0 ] int 
  4431 ;;  sign            1  138[BANK0 ] unsigned char 
  4432 ;;  nmode           1  115[BANK0 ] unsigned char 
  4433 ;;  mode            1  114[BANK0 ] unsigned char 
  4434 ;;  pp              1  113[BANK0 ] unsigned char 
  4435 ;;  esign           1    0        unsigned char 
  4436 ;; Return value:  Size  Location     Type
  4437 ;;                  1    wreg      void 
  4438 ;; Registers used:
  4439 ;;		wreg, fsr1l, fsr1h, fsr2l, fsr2h, status,2, status,0, tblptrl, tblptrh, tblptru, prodl, prodh, cstack
  4440 ;; Tracked objects:
  4441 ;;		On entry : 0/0
  4442 ;;		On exit  : 0/0
  4443 ;;		Unchanged: 0/0
  4444 ;; Data sizes:     COMRAM   BANK0   BANK1   BANK2   BANK3   BANK4   BANK5   BANK6   BANK7
  4445 ;;      Params:         0       7       0       0       0       0       0       0       0
  4446 ;;      Locals:         0      44       0       0       0       0       0       0       0
  4447 ;;      Temps:          0       2       0       0       0       0       0       0       0
  4448 ;;      Totals:         0      53       0       0       0       0       0       0       0
  4449 ;;Total ram usage:       53 bytes
  4450 ;; Hardware stack levels used: 1
  4451 ;; Hardware stack levels required when called: 4
  4452 ;; This function calls:
  4453 ;;		___fladd
  4454 ;;		___fldiv
  4455 ;;		___fleq
  4456 ;;		___flge
  4457 ;;		___flmul
  4458 ;;		___flneg
  4459 ;;		___flsub
  4460 ;;		___fltol
  4461 ;;		___fpclassifyf
  4462 ;;		_floorf
  4463 ;;		_labs
  4464 ;;		_memcpy
  4465 ;;		_pad
  4466 ;;		_strcpy
  4467 ;; This function is called by:
  4468 ;;		_vfpfcnvrt
  4469 ;; This function uses a non-reentrant model
  4470 ;;
  4471                           
  4472                           	psect	text13
  4473   000874                     __ptext13:
  4474                           	callstack 0
  4475   000874                     _efgtoa:
  4476                           	callstack 22
  4477   000874                     
  4478                           ;C:\Program Files\Microchip\xc8\v2.45\pic\sources\c99\common\doprnt.c: 587: static void 
      +                          efgtoa(FILE *fp, long double f, char c);C:\Program Files\Microchip\xc8\v2.45\pic\sources
      +                          \c99\common\doprnt.c: 588: {;C:\Program Files\Microchip\xc8\v2.45\pic\sources\c99\common
      +                          \doprnt.c: 589:     char mode, nmode, pp, sign, esign;;C:\Program Files\Microchip\xc8\v2
      +                          .45\pic\sources\c99\common\doprnt.c: 590:     int d, e, i, m, n, ne, p, t, w;;C:\Program
      +                           Files\Microchip\xc8\v2.45\pic\sources\c99\common\doprnt.c: 591:     long double h, l;
  4479   000874  0E00               	movlw	0
  4480   000876  0100               	movlb	0	; () banked
  4481   000878  6FEA               	movwf	efgtoa@sign& (0+255),b
  4482   00087A                     
  4483                           ; BSR set to: 0
  4484                           ;C:\Program Files\Microchip\xc8\v2.45\pic\sources\c99\common\doprnt.c: 596:     g.f = f;
  4485   00087A  C0C2  F0EB         	movff	efgtoa@f,efgtoa@g
  4486   00087E  C0C3  F0EC         	movff	efgtoa@f+1,efgtoa@g+1
  4487   000882  C0C4  F0ED         	movff	efgtoa@f+2,efgtoa@g+2
  4488   000886  C0C5  F0EE         	movff	efgtoa@f+3,efgtoa@g+3
  4489   00088A                     
  4490                           ; BSR set to: 0
  4491                           ;C:\Program Files\Microchip\xc8\v2.45\pic\sources\c99\common\doprnt.c: 597:     if (g.f 
      +                          < 0.0) {
  4492   00088A  BFEE               	btfsc	(efgtoa@g+3)& (0+255),7,b
  4493   00088C  EF4C  F004         	goto	u6900
  4494   000890  EF4A  F004         	goto	u6901
  4495   000894                     u6901:
  4496   000894  EF60  F004         	goto	l5559
  4497   000898                     u6900:
  4498   000898                     
  4499                           ; BSR set to: 0
  4500                           ;C:\Program Files\Microchip\xc8\v2.45\pic\sources\c99\common\doprnt.c: 598:         sign
      +                           = 1;
  4501   000898  0E01               	movlw	1
  4502   00089A  6FEA               	movwf	efgtoa@sign& (0+255),b
  4503   00089C                     
  4504                           ; BSR set to: 0
  4505                           ;C:\Program Files\Microchip\xc8\v2.45\pic\sources\c99\common\doprnt.c: 599:         g.f 
      +                          = -g.f;
  4506   00089C  C0EB  F078         	movff	efgtoa@g,___flneg@f1
  4507   0008A0  C0EC  F079         	movff	efgtoa@g+1,___flneg@f1+1
  4508   0008A4  C0ED  F07A         	movff	efgtoa@g+2,___flneg@f1+2
  4509   0008A8  C0EE  F07B         	movff	efgtoa@g+3,___flneg@f1+3
  4510   0008AC  ECCD  F022         	call	___flneg	;wreg free
  4511   0008B0  C078  F0EB         	movff	?___flneg,efgtoa@g
  4512   0008B4  C079  F0EC         	movff	?___flneg+1,efgtoa@g+1
  4513   0008B8  C07A  F0ED         	movff	?___flneg+2,efgtoa@g+2
  4514   0008BC  C07B  F0EE         	movff	?___flneg+3,efgtoa@g+3
  4515   0008C0                     l5559:
  4516                           
  4517                           ;C:\Program Files\Microchip\xc8\v2.45\pic\sources\c99\common\doprnt.c: 603:     n = 0;
  4518   0008C0  0E00               	movlw	0
  4519   0008C2  0100               	movlb	0	; () banked
  4520   0008C4  6FF0               	movwf	(efgtoa@n+1)& (0+255),b
  4521   0008C6  0E00               	movlw	0
  4522   0008C8  6FEF               	movwf	efgtoa@n& (0+255),b
  4523   0008CA                     
  4524                           ; BSR set to: 0
  4525                           ;C:\Program Files\Microchip\xc8\v2.45\pic\sources\c99\common\doprnt.c: 604:     w = widt
      +                          h;
  4526   0008CA  C110  F0DE         	movff	_width,efgtoa@w
  4527   0008CE  C111  F0DF         	movff	_width+1,efgtoa@w+1
  4528   0008D2                     
  4529                           ; BSR set to: 0
  4530                           ;C:\Program Files\Microchip\xc8\v2.45\pic\sources\c99\common\doprnt.c: 605:     if (sign
  4531   0008D2  51EA               	movf	efgtoa@sign& (0+255),w,b
  4532   0008D4  B4D8               	btfsc	status,2,c
  4533   0008D6  EF6F  F004         	goto	u6911
  4534   0008DA  EF71  F004         	goto	u6910
  4535   0008DE                     u6911:
  4536   0008DE  EF85  F004         	goto	l5573
  4537   0008E2                     u6910:
  4538   0008E2                     
  4539                           ; BSR set to: 0
  4540                           ;C:\Program Files\Microchip\xc8\v2.45\pic\sources\c99\common\doprnt.c: 609:    ) {;C:\Pr
      +                          ogram Files\Microchip\xc8\v2.45\pic\sources\c99\common\doprnt.c: 610:   sign = sign ? '-
      +                          ' : '+';
  4541   0008E2  51EA               	movf	efgtoa@sign& (0+255),w,b
  4542   0008E4  A4D8               	btfss	status,2,c
  4543   0008E6  EF77  F004         	goto	u6921
  4544   0008EA  EF79  F004         	goto	u6920
  4545   0008EE                     u6921:
  4546   0008EE  EF7F  F004         	goto	l5569
  4547   0008F2                     u6920:
  4548   0008F2                     
  4549                           ; BSR set to: 0
  4550   0008F2  0E00               	movlw	0
  4551   0008F4  6FD0               	movwf	(_efgtoa$788+1)& (0+255),b
  4552   0008F6  0E2B               	movlw	43
  4553   0008F8  6FCF               	movwf	_efgtoa$788& (0+255),b
  4554   0008FA  EF83  F004         	goto	l5571
  4555   0008FE                     l5569:
  4556                           
  4557                           ; BSR set to: 0
  4558   0008FE  0E00               	movlw	0
  4559   000900  6FD0               	movwf	(_efgtoa$788+1)& (0+255),b
  4560   000902  0E2D               	movlw	45
  4561   000904  6FCF               	movwf	_efgtoa$788& (0+255),b
  4562   000906                     l5571:
  4563                           
  4564                           ; BSR set to: 0
  4565   000906  C0CF  F0EA         	movff	_efgtoa$788,efgtoa@sign
  4566   00090A                     l5573:
  4567                           
  4568                           ; BSR set to: 0
  4569                           ;C:\Program Files\Microchip\xc8\v2.45\pic\sources\c99\common\doprnt.c: 619:     if (( __
      +                          fpclassifyf(g.f) == 1 )) {
  4570   00090A  C0EB  F001         	movff	efgtoa@g,___fpclassifyf@x
  4571   00090E  C0EC  F002         	movff	efgtoa@g+1,___fpclassifyf@x+1
  4572   000912  C0ED  F003         	movff	efgtoa@g+2,___fpclassifyf@x+2
  4573   000916  C0EE  F004         	movff	efgtoa@g+3,___fpclassifyf@x+3
  4574   00091A  ECEA  F01E         	call	___fpclassifyf	;wreg free
  4575   00091E  0401               	decf	?___fpclassifyf^0,w,c
  4576   000920  1002               	iorwf	(?___fpclassifyf+1)^0,w,c
  4577   000922  A4D8               	btfss	status,2,c
  4578   000924  EF96  F004         	goto	u6931
  4579   000928  EF98  F004         	goto	u6930
  4580   00092C                     u6931:
  4581   00092C  EFC9  F004         	goto	l5591
  4582   000930                     u6930:
  4583   000930                     
  4584                           ;C:\Program Files\Microchip\xc8\v2.45\pic\sources\c99\common\doprnt.c: 620:   if (sign) 
      +                          {
  4585   000930  0100               	movlb	0	; () banked
  4586   000932  51EA               	movf	efgtoa@sign& (0+255),w,b
  4587   000934  B4D8               	btfsc	status,2,c
  4588   000936  EF9F  F004         	goto	u6941
  4589   00093A  EFA1  F004         	goto	u6940
  4590   00093E                     u6941:
  4591   00093E  EFAA  F004         	goto	l5583
  4592   000942                     u6940:
  4593   000942                     
  4594                           ; BSR set to: 0
  4595                           ;C:\Program Files\Microchip\xc8\v2.45\pic\sources\c99\common\doprnt.c: 621:    dbuf[0] =
      +                           sign;
  4596   000942  C0EA  F116         	movff	efgtoa@sign,_dbuf
  4597   000946                     
  4598                           ; BSR set to: 0
  4599                           ;C:\Program Files\Microchip\xc8\v2.45\pic\sources\c99\common\doprnt.c: 622:    w--;
  4600   000946  07DE               	decf	efgtoa@w& (0+255),f,b
  4601   000948  A0D8               	btfss	status,0,c
  4602   00094A  07DF               	decf	(efgtoa@w+1)& (0+255),f,b
  4603   00094C                     
  4604                           ; BSR set to: 0
  4605                           ;C:\Program Files\Microchip\xc8\v2.45\pic\sources\c99\common\doprnt.c: 623:    n = 1;
  4606   00094C  0E00               	movlw	0
  4607   00094E  6FF0               	movwf	(efgtoa@n+1)& (0+255),b
  4608   000950  0E01               	movlw	1
  4609   000952  6FEF               	movwf	efgtoa@n& (0+255),b
  4610   000954                     l5583:
  4611                           
  4612                           ; BSR set to: 0
  4613                           ;C:\Program Files\Microchip\xc8\v2.45\pic\sources\c99\common\doprnt.c: 631:   {;C:\Progr
      +                          am Files\Microchip\xc8\v2.45\pic\sources\c99\common\doprnt.c: 632:             strcpy(&d
      +                          buf[n], "inf");
  4614   000954  0E16               	movlw	low _dbuf
  4615   000956  25EF               	addwf	efgtoa@n& (0+255),w,b
  4616   000958  6E01               	movwf	strcpy@dest^0,c
  4617   00095A  0E01               	movlw	high _dbuf
  4618   00095C  21F0               	addwfc	(efgtoa@n+1)& (0+255),w,b
  4619   00095E  6E02               	movwf	(strcpy@dest+1)^0,c
  4620   000960  0E64               	movlw	low STR_6
  4621   000962  6E03               	movwf	strcpy@src^0,c
  4622   000964  ECB0  F022         	call	_strcpy	;wreg free
  4623   000968                     l5585:
  4624                           
  4625                           ;C:\Program Files\Microchip\xc8\v2.45\pic\sources\c99\common\doprnt.c: 633:         };C:
      +                          \Program Files\Microchip\xc8\v2.45\pic\sources\c99\common\doprnt.c: 634:         w -= ((
      +                          sizeof("inf")/sizeof("inf"[0]))-1);
  4626   000968  0100               	movlb	0	; () banked
  4627   00096A  0EFD               	movlw	253
  4628   00096C  27DE               	addwf	efgtoa@w& (0+255),f,b
  4629   00096E  0EFF               	movlw	255
  4630   000970  23DF               	addwfc	(efgtoa@w+1)& (0+255),f,b
  4631   000972                     
  4632                           ; BSR set to: 0
  4633                           ;C:\Program Files\Microchip\xc8\v2.45\pic\sources\c99\common\doprnt.c: 635:         retu
      +                          rn (void) pad(fp, &dbuf[0], w);
  4634   000972  C0C0  F011         	movff	efgtoa@fp,pad@fp
  4635   000976  C0C1  F012         	movff	efgtoa@fp+1,pad@fp+1
  4636   00097A  0E16               	movlw	low _dbuf
  4637   00097C  6E13               	movwf	pad@buf^0,c
  4638   00097E  0E01               	movlw	high _dbuf
  4639   000980  6E14               	movwf	(pad@buf+1)^0,c
  4640   000982  C0DE  F015         	movff	efgtoa@w,pad@p
  4641   000986  C0DF  F016         	movff	efgtoa@w+1,pad@p+1
  4642   00098A  EC74  F021         	call	_pad	;wreg free
  4643   00098E  EF68  F009         	goto	l952
  4644   000992                     l5591:
  4645                           
  4646                           ;C:\Program Files\Microchip\xc8\v2.45\pic\sources\c99\common\doprnt.c: 637:     if (( __
      +                          fpclassifyf(g.f) == 0 )) {
  4647   000992  C0EB  F001         	movff	efgtoa@g,___fpclassifyf@x
  4648   000996  C0EC  F002         	movff	efgtoa@g+1,___fpclassifyf@x+1
  4649   00099A  C0ED  F003         	movff	efgtoa@g+2,___fpclassifyf@x+2
  4650   00099E  C0EE  F004         	movff	efgtoa@g+3,___fpclassifyf@x+3
  4651   0009A2  ECEA  F01E         	call	___fpclassifyf	;wreg free
  4652   0009A6  5001               	movf	?___fpclassifyf^0,w,c
  4653   0009A8  1002               	iorwf	(?___fpclassifyf+1)^0,w,c
  4654   0009AA  A4D8               	btfss	status,2,c
  4655   0009AC  EFDA  F004         	goto	u6951
  4656   0009B0  EFDC  F004         	goto	u6950
  4657   0009B4                     u6951:
  4658   0009B4  EFFA  F004         	goto	l5609
  4659   0009B8                     u6950:
  4660   0009B8                     
  4661                           ;C:\Program Files\Microchip\xc8\v2.45\pic\sources\c99\common\doprnt.c: 638:   if (sign) 
      +                          {
  4662   0009B8  0100               	movlb	0	; () banked
  4663   0009BA  51EA               	movf	efgtoa@sign& (0+255),w,b
  4664   0009BC  B4D8               	btfsc	status,2,c
  4665   0009BE  EFE3  F004         	goto	u6961
  4666   0009C2  EFE5  F004         	goto	u6960
  4667   0009C6                     u6961:
  4668   0009C6  EFEE  F004         	goto	l5601
  4669   0009CA                     u6960:
  4670   0009CA                     
  4671                           ; BSR set to: 0
  4672                           ;C:\Program Files\Microchip\xc8\v2.45\pic\sources\c99\common\doprnt.c: 639:    dbuf[0] =
      +                           sign;
  4673   0009CA  C0EA  F116         	movff	efgtoa@sign,_dbuf
  4674   0009CE                     
  4675                           ; BSR set to: 0
  4676                           ;C:\Program Files\Microchip\xc8\v2.45\pic\sources\c99\common\doprnt.c: 640:    w--;
  4677   0009CE  07DE               	decf	efgtoa@w& (0+255),f,b
  4678   0009D0  A0D8               	btfss	status,0,c
  4679   0009D2  07DF               	decf	(efgtoa@w+1)& (0+255),f,b
  4680   0009D4                     
  4681                           ; BSR set to: 0
  4682                           ;C:\Program Files\Microchip\xc8\v2.45\pic\sources\c99\common\doprnt.c: 641:    n = 1;
  4683   0009D4  0E00               	movlw	0
  4684   0009D6  6FF0               	movwf	(efgtoa@n+1)& (0+255),b
  4685   0009D8  0E01               	movlw	1
  4686   0009DA  6FEF               	movwf	efgtoa@n& (0+255),b
  4687   0009DC                     l5601:
  4688                           
  4689                           ; BSR set to: 0
  4690                           ;C:\Program Files\Microchip\xc8\v2.45\pic\sources\c99\common\doprnt.c: 649:   {;C:\Progr
      +                          am Files\Microchip\xc8\v2.45\pic\sources\c99\common\doprnt.c: 650:             strcpy(&d
      +                          buf[n], "nan");
  4691   0009DC  0E16               	movlw	low _dbuf
  4692   0009DE  25EF               	addwf	efgtoa@n& (0+255),w,b
  4693   0009E0  6E01               	movwf	strcpy@dest^0,c
  4694   0009E2  0E01               	movlw	high _dbuf
  4695   0009E4  21F0               	addwfc	(efgtoa@n+1)& (0+255),w,b
  4696   0009E6  6E02               	movwf	(strcpy@dest+1)^0,c
  4697   0009E8  0E68               	movlw	low STR_9
  4698   0009EA  6E03               	movwf	strcpy@src^0,c
  4699   0009EC  ECB0  F022         	call	_strcpy	;wreg free
  4700   0009F0  EFB4  F004         	goto	l5585
  4701   0009F4                     l5609:
  4702                           
  4703                           ;C:\Program Files\Microchip\xc8\v2.45\pic\sources\c99\common\doprnt.c: 657:     u.f = 1.
      +                          0;
  4704   0009F4  0E00               	movlw	0
  4705   0009F6  0100               	movlb	0	; () banked
  4706   0009F8  6FF1               	movwf	efgtoa@u& (0+255),b
  4707   0009FA  0E00               	movlw	0
  4708   0009FC  6FF2               	movwf	(efgtoa@u+1)& (0+255),b
  4709   0009FE  0E80               	movlw	128
  4710   000A00  6FF3               	movwf	(efgtoa@u+2)& (0+255),b
  4711   000A02  0E3F               	movlw	63
  4712   000A04  6FF4               	movwf	(efgtoa@u+3)& (0+255),b
  4713                           
  4714                           ;C:\Program Files\Microchip\xc8\v2.45\pic\sources\c99\common\doprnt.c: 658:     e = 0;
  4715   000A06  0E00               	movlw	0
  4716   000A08  6FD9               	movwf	(efgtoa@e+1)& (0+255),b
  4717   000A0A  0E00               	movlw	0
  4718   000A0C  6FD8               	movwf	efgtoa@e& (0+255),b
  4719   000A0E                     
  4720                           ; BSR set to: 0
  4721                           ;C:\Program Files\Microchip\xc8\v2.45\pic\sources\c99\common\doprnt.c: 659:  if (!(g.f =
      +                          = 0.0)) {
  4722   000A0E  C0EB  F001         	movff	efgtoa@g,___fleq@ff1
  4723   000A12  C0EC  F002         	movff	efgtoa@g+1,___fleq@ff1+1
  4724   000A16  C0ED  F003         	movff	efgtoa@g+2,___fleq@ff1+2
  4725   000A1A  C0EE  F004         	movff	efgtoa@g+3,___fleq@ff1+3
  4726   000A1E  0E00               	movlw	0
  4727   000A20  6E05               	movwf	___fleq@ff2^0,c
  4728   000A22  0E00               	movlw	0
  4729   000A24  6E06               	movwf	(___fleq@ff2+1)^0,c
  4730   000A26  0E00               	movlw	0
  4731   000A28  6E07               	movwf	(___fleq@ff2+2)^0,c
  4732   000A2A  0E00               	movlw	0
  4733   000A2C  6E08               	movwf	(___fleq@ff2+3)^0,c
  4734   000A2E  ECE3  F020         	call	___fleq	;wreg free
  4735   000A32  B0D8               	btfsc	status,0,c
  4736   000A34  EF1E  F005         	goto	u6971
  4737   000A38  EF20  F005         	goto	u6970
  4738   000A3C                     u6971:
  4739   000A3C  EF00  F006         	goto	l955
  4740   000A40                     u6970:
  4741   000A40  EF2D  F005         	goto	l5617
  4742   000A44                     l957:
  4743                           
  4744                           ;C:\Program Files\Microchip\xc8\v2.45\pic\sources\c99\common\doprnt.c: 661:    u = ou;
  4745   000A44  C0DA  F0F1         	movff	efgtoa@ou,efgtoa@u
  4746   000A48  C0DB  F0F2         	movff	efgtoa@ou+1,efgtoa@u+1
  4747   000A4C  C0DC  F0F3         	movff	efgtoa@ou+2,efgtoa@u+2
  4748   000A50  C0DD  F0F4         	movff	efgtoa@ou+3,efgtoa@u+3
  4749   000A54                     
  4750                           ;C:\Program Files\Microchip\xc8\v2.45\pic\sources\c99\common\doprnt.c: 662:    ++e;
  4751   000A54  0100               	movlb	0	; () banked
  4752   000A56  4BD8               	infsnz	efgtoa@e& (0+255),f,b
  4753   000A58  2BD9               	incf	(efgtoa@e+1)& (0+255),f,b
  4754   000A5A                     l5617:
  4755                           
  4756                           ;C:\Program Files\Microchip\xc8\v2.45\pic\sources\c99\common\doprnt.c: 660:   while ((la
      +                          bs((g).u-((ou.f = u.f*10.0,ou)).u) <= 1) || g.f > ou.f) {
  4757   000A5A  C0F1  F028         	movff	efgtoa@u,___flmul@b
  4758   000A5E  C0F2  F029         	movff	efgtoa@u+1,___flmul@b+1
  4759   000A62  C0F3  F02A         	movff	efgtoa@u+2,___flmul@b+2
  4760   000A66  C0F4  F02B         	movff	efgtoa@u+3,___flmul@b+3
  4761   000A6A  0E00               	movlw	0
  4762   000A6C  6E2C               	movwf	___flmul@a^0,c
  4763   000A6E  0E00               	movlw	0
  4764   000A70  6E2D               	movwf	(___flmul@a+1)^0,c
  4765   000A72  0E20               	movlw	32
  4766   000A74  6E2E               	movwf	(___flmul@a+2)^0,c
  4767   000A76  0E41               	movlw	65
  4768   000A78  6E2F               	movwf	(___flmul@a+3)^0,c
  4769   000A7A  EC46  F00E         	call	___flmul	;wreg free
  4770   000A7E  C028  F0DA         	movff	?___flmul,efgtoa@ou
  4771   000A82  C029  F0DB         	movff	?___flmul+1,efgtoa@ou+1
  4772   000A86  C02A  F0DC         	movff	?___flmul+2,efgtoa@ou+2
  4773   000A8A  C02B  F0DD         	movff	?___flmul+3,efgtoa@ou+3
  4774   000A8E  0100               	movlb	0	; () banked
  4775   000A90  51DA               	movf	efgtoa@ou& (0+255),w,b
  4776   000A92  5DEB               	subwf	efgtoa@g& (0+255),w,b
  4777   000A94  6E01               	movwf	labs@a^0,c
  4778   000A96  51DB               	movf	(efgtoa@ou+1)& (0+255),w,b
  4779   000A98  59EC               	subwfb	(efgtoa@g+1)& (0+255),w,b
  4780   000A9A  6E02               	movwf	(labs@a+1)^0,c
  4781   000A9C  51DC               	movf	(efgtoa@ou+2)& (0+255),w,b
  4782   000A9E  59ED               	subwfb	(efgtoa@g+2)& (0+255),w,b
  4783   000AA0  6E03               	movwf	(labs@a+2)^0,c
  4784   000AA2  51DD               	movf	(efgtoa@ou+3)& (0+255),w,b
  4785   000AA4  59EE               	subwfb	(efgtoa@g+3)& (0+255),w,b
  4786   000AA6  6E04               	movwf	(labs@a+3)^0,c
  4787   000AA8  ECAB  F021         	call	_labs	;wreg free
  4788   000AAC  BE04               	btfsc	(?_labs+3)^0,7,c
  4789   000AAE  EF64  F005         	goto	u6981
  4790   000AB2  5004               	movf	(?_labs+3)^0,w,c
  4791   000AB4  1003               	iorwf	(?_labs+2)^0,w,c
  4792   000AB6  1002               	iorwf	(?_labs+1)^0,w,c
  4793   000AB8  E109               	bnz	u6980
  4794   000ABA  0E02               	movlw	2
  4795   000ABC  5C01               	subwf	?_labs^0,w,c
  4796   000ABE  A0D8               	btfss	status,0,c
  4797   000AC0  EF64  F005         	goto	u6981
  4798   000AC4  EF66  F005         	goto	u6980
  4799   000AC8                     u6981:
  4800   000AC8  EF22  F005         	goto	l957
  4801   000ACC                     u6980:
  4802   000ACC  C0DA  F0B4         	movff	efgtoa@ou,___flge@ff1
  4803   000AD0  C0DB  F0B5         	movff	efgtoa@ou+1,___flge@ff1+1
  4804   000AD4  C0DC  F0B6         	movff	efgtoa@ou+2,___flge@ff1+2
  4805   000AD8  C0DD  F0B7         	movff	efgtoa@ou+3,___flge@ff1+3
  4806   000ADC  C0EB  F0B8         	movff	efgtoa@g,___flge@ff2
  4807   000AE0  C0EC  F0B9         	movff	efgtoa@g+1,___flge@ff2+1
  4808   000AE4  C0ED  F0BA         	movff	efgtoa@g+2,___flge@ff2+2
  4809   000AE8  C0EE  F0BB         	movff	efgtoa@g+3,___flge@ff2+3
  4810   000AEC  EC67  F01E         	call	___flge	;wreg free
  4811   000AF0  0100               	movlb	0	; () banked
  4812   000AF2  A0D8               	btfss	status,0,c
  4813   000AF4  EF7E  F005         	goto	u6991
  4814   000AF8  EF80  F005         	goto	u6990
  4815   000AFC                     u6991:
  4816   000AFC  EF22  F005         	goto	l957
  4817   000B00                     u6990:
  4818   000B00                     
  4819                           ; BSR set to: 0
  4820                           ;C:\Program Files\Microchip\xc8\v2.45\pic\sources\c99\common\doprnt.c: 664:   if ((labs(
      +                          (g).u-(u).u) <= 1)) {
  4821   000B00  51F1               	movf	efgtoa@u& (0+255),w,b
  4822   000B02  5DEB               	subwf	efgtoa@g& (0+255),w,b
  4823   000B04  6E01               	movwf	labs@a^0,c
  4824   000B06  51F2               	movf	(efgtoa@u+1)& (0+255),w,b
  4825   000B08  59EC               	subwfb	(efgtoa@g+1)& (0+255),w,b
  4826   000B0A  6E02               	movwf	(labs@a+1)^0,c
  4827   000B0C  51F3               	movf	(efgtoa@u+2)& (0+255),w,b
  4828   000B0E  59ED               	subwfb	(efgtoa@g+2)& (0+255),w,b
  4829   000B10  6E03               	movwf	(labs@a+2)^0,c
  4830   000B12  51F4               	movf	(efgtoa@u+3)& (0+255),w,b
  4831   000B14  59EE               	subwfb	(efgtoa@g+3)& (0+255),w,b
  4832   000B16  6E04               	movwf	(labs@a+3)^0,c
  4833   000B18  ECAB  F021         	call	_labs	;wreg free
  4834   000B1C  BE04               	btfsc	(?_labs+3)^0,7,c
  4835   000B1E  EF9E  F005         	goto	u7000
  4836   000B22  5004               	movf	(?_labs+3)^0,w,c
  4837   000B24  1003               	iorwf	(?_labs+2)^0,w,c
  4838   000B26  1002               	iorwf	(?_labs+1)^0,w,c
  4839   000B28  E107               	bnz	u7001
  4840   000B2A  0E02               	movlw	2
  4841   000B2C  5C01               	subwf	?_labs^0,w,c
  4842   000B2E  B0D8               	btfsc	status,0,c
  4843   000B30  EF9C  F005         	goto	u7001
  4844   000B34  EF9E  F005         	goto	u7000
  4845   000B38                     u7001:
  4846   000B38  EFE6  F005         	goto	l5635
  4847   000B3C                     u7000:
  4848   000B3C                     l5625:
  4849                           
  4850                           ;C:\Program Files\Microchip\xc8\v2.45\pic\sources\c99\common\doprnt.c: 665:    g = u;
  4851   000B3C  C0F1  F0EB         	movff	efgtoa@u,efgtoa@g
  4852   000B40  C0F2  F0EC         	movff	efgtoa@u+1,efgtoa@g+1
  4853   000B44  C0F3  F0ED         	movff	efgtoa@u+2,efgtoa@g+2
  4854   000B48  C0F4  F0EE         	movff	efgtoa@u+3,efgtoa@g+3
  4855                           
  4856                           ;C:\Program Files\Microchip\xc8\v2.45\pic\sources\c99\common\doprnt.c: 666:   }
  4857   000B4C  EF00  F006         	goto	l955
  4858   000B50                     l5627:
  4859                           
  4860                           ; BSR set to: 0
  4861                           ;C:\Program Files\Microchip\xc8\v2.45\pic\sources\c99\common\doprnt.c: 669:     u.f = u.
      +                          f/10.0;
  4862   000B50  C0F1  F00F         	movff	efgtoa@u,___fldiv@b
  4863   000B54  C0F2  F010         	movff	efgtoa@u+1,___fldiv@b+1
  4864   000B58  C0F3  F011         	movff	efgtoa@u+2,___fldiv@b+2
  4865   000B5C  C0F4  F012         	movff	efgtoa@u+3,___fldiv@b+3
  4866   000B60  0E00               	movlw	0
  4867   000B62  6E13               	movwf	___fldiv@a^0,c
  4868   000B64  0E00               	movlw	0
  4869   000B66  6E14               	movwf	(___fldiv@a+1)^0,c
  4870   000B68  0E20               	movlw	32
  4871   000B6A  6E15               	movwf	(___fldiv@a+2)^0,c
  4872   000B6C  0E41               	movlw	65
  4873   000B6E  6E16               	movwf	(___fldiv@a+3)^0,c
  4874   000B70  EC28  F014         	call	___fldiv	;wreg free
  4875   000B74  C00F  F0F1         	movff	?___fldiv,efgtoa@u
  4876   000B78  C010  F0F2         	movff	?___fldiv+1,efgtoa@u+1
  4877   000B7C  C011  F0F3         	movff	?___fldiv+2,efgtoa@u+2
  4878   000B80  C012  F0F4         	movff	?___fldiv+3,efgtoa@u+3
  4879   000B84                     
  4880                           ;C:\Program Files\Microchip\xc8\v2.45\pic\sources\c99\common\doprnt.c: 670:     --e;
  4881   000B84  0100               	movlb	0	; () banked
  4882   000B86  07D8               	decf	efgtoa@e& (0+255),f,b
  4883   000B88  A0D8               	btfss	status,0,c
  4884   000B8A  07D9               	decf	(efgtoa@e+1)& (0+255),f,b
  4885   000B8C                     
  4886                           ; BSR set to: 0
  4887                           ;C:\Program Files\Microchip\xc8\v2.45\pic\sources\c99\common\doprnt.c: 671:     if ((lab
      +                          s((g).u-(u).u) <= 1)) {
  4888   000B8C  51F1               	movf	efgtoa@u& (0+255),w,b
  4889   000B8E  5DEB               	subwf	efgtoa@g& (0+255),w,b
  4890   000B90  6E01               	movwf	labs@a^0,c
  4891   000B92  51F2               	movf	(efgtoa@u+1)& (0+255),w,b
  4892   000B94  59EC               	subwfb	(efgtoa@g+1)& (0+255),w,b
  4893   000B96  6E02               	movwf	(labs@a+1)^0,c
  4894   000B98  51F3               	movf	(efgtoa@u+2)& (0+255),w,b
  4895   000B9A  59ED               	subwfb	(efgtoa@g+2)& (0+255),w,b
  4896   000B9C  6E03               	movwf	(labs@a+2)^0,c
  4897   000B9E  51F4               	movf	(efgtoa@u+3)& (0+255),w,b
  4898   000BA0  59EE               	subwfb	(efgtoa@g+3)& (0+255),w,b
  4899   000BA2  6E04               	movwf	(labs@a+3)^0,c
  4900   000BA4  ECAB  F021         	call	_labs	;wreg free
  4901   000BA8  BE04               	btfsc	(?_labs+3)^0,7,c
  4902   000BAA  EFE4  F005         	goto	u7010
  4903   000BAE  5004               	movf	(?_labs+3)^0,w,c
  4904   000BB0  1003               	iorwf	(?_labs+2)^0,w,c
  4905   000BB2  1002               	iorwf	(?_labs+1)^0,w,c
  4906   000BB4  E107               	bnz	u7011
  4907   000BB6  0E02               	movlw	2
  4908   000BB8  5C01               	subwf	?_labs^0,w,c
  4909   000BBA  B0D8               	btfsc	status,0,c
  4910   000BBC  EFE2  F005         	goto	u7011
  4911   000BC0  EFE4  F005         	goto	u7010
  4912   000BC4                     u7011:
  4913   000BC4  EFE6  F005         	goto	l5635
  4914   000BC8                     u7010:
  4915   000BC8  EF9E  F005         	goto	l5625
  4916   000BCC                     l5635:
  4917                           
  4918                           ;C:\Program Files\Microchip\xc8\v2.45\pic\sources\c99\common\doprnt.c: 668:    while (g.
      +                          f < u.f) {
  4919   000BCC  C0EB  F0B4         	movff	efgtoa@g,___flge@ff1
  4920   000BD0  C0EC  F0B5         	movff	efgtoa@g+1,___flge@ff1+1
  4921   000BD4  C0ED  F0B6         	movff	efgtoa@g+2,___flge@ff1+2
  4922   000BD8  C0EE  F0B7         	movff	efgtoa@g+3,___flge@ff1+3
  4923   000BDC  C0F1  F0B8         	movff	efgtoa@u,___flge@ff2
  4924   000BE0  C0F2  F0B9         	movff	efgtoa@u+1,___flge@ff2+1
  4925   000BE4  C0F3  F0BA         	movff	efgtoa@u+2,___flge@ff2+2
  4926   000BE8  C0F4  F0BB         	movff	efgtoa@u+3,___flge@ff2+3
  4927   000BEC  EC67  F01E         	call	___flge	;wreg free
  4928   000BF0  0100               	movlb	0	; () banked
  4929   000BF2  A0D8               	btfss	status,0,c
  4930   000BF4  EFFE  F005         	goto	u7021
  4931   000BF8  EF00  F006         	goto	u7020
  4932   000BFC                     u7021:
  4933   000BFC  EFA8  F005         	goto	l5627
  4934   000C00                     u7020:
  4935   000C00                     l955:
  4936                           
  4937                           ;C:\Program Files\Microchip\xc8\v2.45\pic\sources\c99\common\doprnt.c: 683:  mode = c;
  4938   000C00  C0C6  F0D2         	movff	efgtoa@c,efgtoa@mode
  4939                           
  4940                           ;C:\Program Files\Microchip\xc8\v2.45\pic\sources\c99\common\doprnt.c: 685:     nmode = 
      +                          mode;
  4941   000C04  C0D2  F0D3         	movff	efgtoa@mode,efgtoa@nmode
  4942   000C08                     
  4943                           ;C:\Program Files\Microchip\xc8\v2.45\pic\sources\c99\common\doprnt.c: 695:  {;C:\Progra
      +                          m Files\Microchip\xc8\v2.45\pic\sources\c99\common\doprnt.c: 696:         p = (prec < 0)
      +                           ? 6 : prec;
  4944   000C08  0101               	movlb	1	; () banked
  4945   000C0A  BF13               	btfsc	(_prec+1)& (0+255),7,b
  4946   000C0C  EF0A  F006         	goto	u7031
  4947   000C10  EF0C  F006         	goto	u7030
  4948   000C14                     u7031:
  4949   000C14  EF12  F006         	goto	l5641
  4950   000C18                     u7030:
  4951   000C18                     
  4952                           ; BSR set to: 1
  4953   000C18  C112  F0CB         	movff	_prec,efgtoa@p
  4954   000C1C  C113  F0CC         	movff	_prec+1,efgtoa@p+1
  4955   000C20  EF17  F006         	goto	l5643
  4956   000C24                     l5641:
  4957                           
  4958                           ; BSR set to: 1
  4959   000C24  0E00               	movlw	0
  4960   000C26  0100               	movlb	0	; () banked
  4961   000C28  6FCC               	movwf	(efgtoa@p+1)& (0+255),b
  4962   000C2A  0E06               	movlw	6
  4963   000C2C  6FCB               	movwf	efgtoa@p& (0+255),b
  4964   000C2E                     l5643:
  4965                           
  4966                           ;C:\Program Files\Microchip\xc8\v2.45\pic\sources\c99\common\doprnt.c: 697:     };C:\Pro
      +                          gram Files\Microchip\xc8\v2.45\pic\sources\c99\common\doprnt.c: 711:     m = p;
  4967   000C2E  C0CB  F0D6         	movff	efgtoa@p,efgtoa@m
  4968   000C32  C0CC  F0D7         	movff	efgtoa@p+1,efgtoa@m+1
  4969   000C36                     
  4970                           ;C:\Program Files\Microchip\xc8\v2.45\pic\sources\c99\common\doprnt.c: 715:  {;C:\Progra
      +                          m Files\Microchip\xc8\v2.45\pic\sources\c99\common\doprnt.c: 716:         ++m;
  4971   000C36  0100               	movlb	0	; () banked
  4972   000C38  4BD6               	infsnz	efgtoa@m& (0+255),f,b
  4973   000C3A  2BD7               	incf	(efgtoa@m+1)& (0+255),f,b
  4974   000C3C                     
  4975                           ; BSR set to: 0
  4976                           ;C:\Program Files\Microchip\xc8\v2.45\pic\sources\c99\common\doprnt.c: 717:     };C:\Pro
      +                          gram Files\Microchip\xc8\v2.45\pic\sources\c99\common\doprnt.c: 721:     if (nmode == 'f
      +                          ') {
  4977   000C3C  0E66               	movlw	102
  4978   000C3E  19D3               	xorwf	efgtoa@nmode& (0+255),w,b
  4979   000C40  A4D8               	btfss	status,2,c
  4980   000C42  EF25  F006         	goto	u7041
  4981   000C46  EF27  F006         	goto	u7040
  4982   000C4A                     u7041:
  4983   000C4A  EF47  F006         	goto	l5657
  4984   000C4E                     u7040:
  4985   000C4E                     
  4986                           ; BSR set to: 0
  4987                           ;C:\Program Files\Microchip\xc8\v2.45\pic\sources\c99\common\doprnt.c: 722:         if (
      +                          e < 0) {
  4988   000C4E  BFD9               	btfsc	(efgtoa@e+1)& (0+255),7,b
  4989   000C50  EF2E  F006         	goto	u7050
  4990   000C54  EF2C  F006         	goto	u7051
  4991   000C58                     u7051:
  4992   000C58  EF3A  F006         	goto	l5653
  4993   000C5C                     u7050:
  4994   000C5C                     
  4995                           ; BSR set to: 0
  4996                           ;C:\Program Files\Microchip\xc8\v2.45\pic\sources\c99\common\doprnt.c: 723:             
      +                          u.f = 1.0;
  4997   000C5C  0E00               	movlw	0
  4998   000C5E  6FF1               	movwf	efgtoa@u& (0+255),b
  4999   000C60  0E00               	movlw	0
  5000   000C62  6FF2               	movwf	(efgtoa@u+1)& (0+255),b
  5001   000C64  0E80               	movlw	128
  5002   000C66  6FF3               	movwf	(efgtoa@u+2)& (0+255),b
  5003   000C68  0E3F               	movlw	63
  5004   000C6A  6FF4               	movwf	(efgtoa@u+3)& (0+255),b
  5005                           
  5006                           ;C:\Program Files\Microchip\xc8\v2.45\pic\sources\c99\common\doprnt.c: 724:             
      +                          e = 0;
  5007   000C6C  0E00               	movlw	0
  5008   000C6E  6FD9               	movwf	(efgtoa@e+1)& (0+255),b
  5009   000C70  0E00               	movlw	0
  5010   000C72  6FD8               	movwf	efgtoa@e& (0+255),b
  5011   000C74                     l5653:
  5012                           
  5013                           ; BSR set to: 0
  5014                           ;C:\Program Files\Microchip\xc8\v2.45\pic\sources\c99\common\doprnt.c: 726:         if (
      +                          !(mode == 'g')) {
  5015   000C74  0E67               	movlw	103
  5016   000C76  19D2               	xorwf	efgtoa@mode& (0+255),w,b
  5017   000C78  B4D8               	btfsc	status,2,c
  5018   000C7A  EF41  F006         	goto	u7061
  5019   000C7E  EF43  F006         	goto	u7060
  5020   000C82                     u7061:
  5021   000C82  EF47  F006         	goto	l5657
  5022   000C86                     u7060:
  5023   000C86                     
  5024                           ; BSR set to: 0
  5025                           ;C:\Program Files\Microchip\xc8\v2.45\pic\sources\c99\common\doprnt.c: 727:             
      +                          m += e;
  5026   000C86  51D8               	movf	efgtoa@e& (0+255),w,b
  5027   000C88  27D6               	addwf	efgtoa@m& (0+255),f,b
  5028   000C8A  51D9               	movf	(efgtoa@e+1)& (0+255),w,b
  5029   000C8C  23D7               	addwfc	(efgtoa@m+1)& (0+255),f,b
  5030   000C8E                     l5657:
  5031                           
  5032                           ; BSR set to: 0
  5033                           ;C:\Program Files\Microchip\xc8\v2.45\pic\sources\c99\common\doprnt.c: 733:     i = 0;
  5034   000C8E  0E00               	movlw	0
  5035   000C90  6FE9               	movwf	(efgtoa@i+1)& (0+255),b
  5036   000C92  0E00               	movlw	0
  5037   000C94  6FE8               	movwf	efgtoa@i& (0+255),b
  5038   000C96                     
  5039                           ; BSR set to: 0
  5040                           ;C:\Program Files\Microchip\xc8\v2.45\pic\sources\c99\common\doprnt.c: 734:     h = g.f;
  5041   000C96  C0EB  F0E0         	movff	efgtoa@g,efgtoa@h
  5042   000C9A  C0EC  F0E1         	movff	efgtoa@g+1,efgtoa@h+1
  5043   000C9E  C0ED  F0E2         	movff	efgtoa@g+2,efgtoa@h+2
  5044   000CA2  C0EE  F0E3         	movff	efgtoa@g+3,efgtoa@h+3
  5045   000CA6                     
  5046                           ; BSR set to: 0
  5047                           ;C:\Program Files\Microchip\xc8\v2.45\pic\sources\c99\common\doprnt.c: 735:     ou = u;
  5048   000CA6  C0F1  F0DA         	movff	efgtoa@u,efgtoa@ou
  5049   000CAA  C0F2  F0DB         	movff	efgtoa@u+1,efgtoa@ou+1
  5050   000CAE  C0F3  F0DC         	movff	efgtoa@u+2,efgtoa@ou+2
  5051   000CB2  C0F4  F0DD         	movff	efgtoa@u+3,efgtoa@ou+3
  5052                           
  5053                           ;C:\Program Files\Microchip\xc8\v2.45\pic\sources\c99\common\doprnt.c: 736:     while (i
      +                           < m) {
  5054   000CB6  EFD8  F006         	goto	l5671
  5055   000CBA                     l5663:
  5056                           
  5057                           ; BSR set to: 0
  5058                           ;C:\Program Files\Microchip\xc8\v2.45\pic\sources\c99\common\doprnt.c: 737:         l = 
      +                          floorf(h/u.f);
  5059   000CBA  C0E0  F00F         	movff	efgtoa@h,___fldiv@b
  5060   000CBE  C0E1  F010         	movff	efgtoa@h+1,___fldiv@b+1
  5061   000CC2  C0E2  F011         	movff	efgtoa@h+2,___fldiv@b+2
  5062   000CC6  C0E3  F012         	movff	efgtoa@h+3,___fldiv@b+3
  5063   000CCA  C0F1  F013         	movff	efgtoa@u,___fldiv@a
  5064   000CCE  C0F2  F014         	movff	efgtoa@u+1,___fldiv@a+1
  5065   000CD2  C0F3  F015         	movff	efgtoa@u+2,___fldiv@a+2
  5066   000CD6  C0F4  F016         	movff	efgtoa@u+3,___fldiv@a+3
  5067   000CDA  EC28  F014         	call	___fldiv	;wreg free
  5068   000CDE  C00F  F028         	movff	?___fldiv,floorf@x
  5069   000CE2  C010  F029         	movff	?___fldiv+1,floorf@x+1
  5070   000CE6  C011  F02A         	movff	?___fldiv+2,floorf@x+2
  5071   000CEA  C012  F02B         	movff	?___fldiv+3,floorf@x+3
  5072   000CEE  ECAF  F018         	call	_floorf	;wreg free
  5073   000CF2  C028  F0E4         	movff	?_floorf,efgtoa@l
  5074   000CF6  C029  F0E5         	movff	?_floorf+1,efgtoa@l+1
  5075   000CFA  C02A  F0E6         	movff	?_floorf+2,efgtoa@l+2
  5076   000CFE  C02B  F0E7         	movff	?_floorf+3,efgtoa@l+3
  5077                           
  5078                           ;C:\Program Files\Microchip\xc8\v2.45\pic\sources\c99\common\doprnt.c: 738:         d = 
      +                          (int)l;
  5079   000D02  C0E4  F051         	movff	efgtoa@l,___fltol@f1
  5080   000D06  C0E5  F052         	movff	efgtoa@l+1,___fltol@f1+1
  5081   000D0A  C0E6  F053         	movff	efgtoa@l+2,___fltol@f1+2
  5082   000D0E  C0E7  F054         	movff	efgtoa@l+3,___fltol@f1+3
  5083   000D12  ECE4  F01D         	call	___fltol	;wreg free
  5084   000D16  C051  F0D4         	movff	?___fltol,efgtoa@d
  5085   000D1A  C052  F0D5         	movff	?___fltol+1,efgtoa@d+1
  5086   000D1E                     
  5087                           ;C:\Program Files\Microchip\xc8\v2.45\pic\sources\c99\common\doprnt.c: 739:         h -=
      +                           l*u.f;
  5088   000D1E  C0E0  F051         	movff	efgtoa@h,___flsub@b
  5089   000D22  C0E1  F052         	movff	efgtoa@h+1,___flsub@b+1
  5090   000D26  C0E2  F053         	movff	efgtoa@h+2,___flsub@b+2
  5091   000D2A  C0E3  F054         	movff	efgtoa@h+3,___flsub@b+3
  5092   000D2E  C0E4  F02C         	movff	efgtoa@l,___flmul@a
  5093   000D32  C0E5  F02D         	movff	efgtoa@l+1,___flmul@a+1
  5094   000D36  C0E6  F02E         	movff	efgtoa@l+2,___flmul@a+2
  5095   000D3A  C0E7  F02F         	movff	efgtoa@l+3,___flmul@a+3
  5096   000D3E  C0F1  F028         	movff	efgtoa@u,___flmul@b
  5097   000D42  C0F2  F029         	movff	efgtoa@u+1,___flmul@b+1
  5098   000D46  C0F3  F02A         	movff	efgtoa@u+2,___flmul@b+2
  5099   000D4A  C0F4  F02B         	movff	efgtoa@u+3,___flmul@b+3
  5100   000D4E  EC46  F00E         	call	___flmul	;wreg free
  5101   000D52  C028  F055         	movff	?___flmul,___flsub@a
  5102   000D56  C029  F056         	movff	?___flmul+1,___flsub@a+1
  5103   000D5A  C02A  F057         	movff	?___flmul+2,___flsub@a+2
  5104   000D5E  C02B  F058         	movff	?___flmul+3,___flsub@a+3
  5105   000D62  EC49  F022         	call	___flsub	;wreg free
  5106   000D66  C051  F0E0         	movff	?___flsub,efgtoa@h
  5107   000D6A  C052  F0E1         	movff	?___flsub+1,efgtoa@h+1
  5108   000D6E  C053  F0E2         	movff	?___flsub+2,efgtoa@h+2
  5109   000D72  C054  F0E3         	movff	?___flsub+3,efgtoa@h+3
  5110   000D76                     
  5111                           ;C:\Program Files\Microchip\xc8\v2.45\pic\sources\c99\common\doprnt.c: 740:         u.f 
      +                          = u.f/10.0;
  5112   000D76  C0F1  F00F         	movff	efgtoa@u,___fldiv@b
  5113   000D7A  C0F2  F010         	movff	efgtoa@u+1,___fldiv@b+1
  5114   000D7E  C0F3  F011         	movff	efgtoa@u+2,___fldiv@b+2
  5115   000D82  C0F4  F012         	movff	efgtoa@u+3,___fldiv@b+3
  5116   000D86  0E00               	movlw	0
  5117   000D88  6E13               	movwf	___fldiv@a^0,c
  5118   000D8A  0E00               	movlw	0
  5119   000D8C  6E14               	movwf	(___fldiv@a+1)^0,c
  5120   000D8E  0E20               	movlw	32
  5121   000D90  6E15               	movwf	(___fldiv@a+2)^0,c
  5122   000D92  0E41               	movlw	65
  5123   000D94  6E16               	movwf	(___fldiv@a+3)^0,c
  5124   000D96  EC28  F014         	call	___fldiv	;wreg free
  5125   000D9A  C00F  F0F1         	movff	?___fldiv,efgtoa@u
  5126   000D9E  C010  F0F2         	movff	?___fldiv+1,efgtoa@u+1
  5127   000DA2  C011  F0F3         	movff	?___fldiv+2,efgtoa@u+2
  5128   000DA6  C012  F0F4         	movff	?___fldiv+3,efgtoa@u+3
  5129   000DAA                     
  5130                           ;C:\Program Files\Microchip\xc8\v2.45\pic\sources\c99\common\doprnt.c: 741:         ++i;
  5131   000DAA  0100               	movlb	0	; () banked
  5132   000DAC  4BE8               	infsnz	efgtoa@i& (0+255),f,b
  5133   000DAE  2BE9               	incf	(efgtoa@i+1)& (0+255),f,b
  5134   000DB0                     l5671:
  5135                           
  5136                           ; BSR set to: 0
  5137                           ;C:\Program Files\Microchip\xc8\v2.45\pic\sources\c99\common\doprnt.c: 736:     while (i
      +                           < m) {
  5138   000DB0  51D6               	movf	efgtoa@m& (0+255),w,b
  5139   000DB2  5DE8               	subwf	efgtoa@i& (0+255),w,b
  5140   000DB4  51E9               	movf	(efgtoa@i+1)& (0+255),w,b
  5141   000DB6  0A80               	xorlw	128
  5142   000DB8  6FC7               	movwf	??_efgtoa& (0+255),b
  5143   000DBA  51D7               	movf	(efgtoa@m+1)& (0+255),w,b
  5144   000DBC  0A80               	xorlw	128
  5145   000DBE  59C7               	subwfb	??_efgtoa& (0+255),w,b
  5146   000DC0  A0D8               	btfss	status,0,c
  5147   000DC2  EFE5  F006         	goto	u7071
  5148   000DC6  EFE7  F006         	goto	u7070
  5149   000DCA                     u7071:
  5150   000DCA  EF5D  F006         	goto	l5663
  5151   000DCE                     u7070:
  5152   000DCE                     
  5153                           ; BSR set to: 0
  5154                           ;C:\Program Files\Microchip\xc8\v2.45\pic\sources\c99\common\doprnt.c: 745:     l = u.f*
      +                          5.0;
  5155   000DCE  C0F1  F028         	movff	efgtoa@u,___flmul@b
  5156   000DD2  C0F2  F029         	movff	efgtoa@u+1,___flmul@b+1
  5157   000DD6  C0F3  F02A         	movff	efgtoa@u+2,___flmul@b+2
  5158   000DDA  C0F4  F02B         	movff	efgtoa@u+3,___flmul@b+3
  5159   000DDE  0E00               	movlw	0
  5160   000DE0  6E2C               	movwf	___flmul@a^0,c
  5161   000DE2  0E00               	movlw	0
  5162   000DE4  6E2D               	movwf	(___flmul@a+1)^0,c
  5163   000DE6  0EA0               	movlw	160
  5164   000DE8  6E2E               	movwf	(___flmul@a+2)^0,c
  5165   000DEA  0E40               	movlw	64
  5166   000DEC  6E2F               	movwf	(___flmul@a+3)^0,c
  5167   000DEE  EC46  F00E         	call	___flmul	;wreg free
  5168   000DF2  C028  F0E4         	movff	?___flmul,efgtoa@l
  5169   000DF6  C029  F0E5         	movff	?___flmul+1,efgtoa@l+1
  5170   000DFA  C02A  F0E6         	movff	?___flmul+2,efgtoa@l+2
  5171   000DFE  C02B  F0E7         	movff	?___flmul+3,efgtoa@l+3
  5172   000E02                     
  5173                           ;C:\Program Files\Microchip\xc8\v2.45\pic\sources\c99\common\doprnt.c: 746:     if (h < 
      +                          l) {
  5174   000E02  C0E0  F0B4         	movff	efgtoa@h,___flge@ff1
  5175   000E06  C0E1  F0B5         	movff	efgtoa@h+1,___flge@ff1+1
  5176   000E0A  C0E2  F0B6         	movff	efgtoa@h+2,___flge@ff1+2
  5177   000E0E  C0E3  F0B7         	movff	efgtoa@h+3,___flge@ff1+3
  5178   000E12  C0E4  F0B8         	movff	efgtoa@l,___flge@ff2
  5179   000E16  C0E5  F0B9         	movff	efgtoa@l+1,___flge@ff2+1
  5180   000E1A  C0E6  F0BA         	movff	efgtoa@l+2,___flge@ff2+2
  5181   000E1E  C0E7  F0BB         	movff	efgtoa@l+3,___flge@ff2+3
  5182   000E22  EC67  F01E         	call	___flge	;wreg free
  5183   000E26  0100               	movlb	0	; () banked
  5184   000E28  B0D8               	btfsc	status,0,c
  5185   000E2A  EF19  F007         	goto	u7081
  5186   000E2E  EF1B  F007         	goto	u7080
  5187   000E32                     u7081:
  5188   000E32  EF25  F007         	goto	l5679
  5189   000E36                     u7080:
  5190   000E36                     
  5191                           ; BSR set to: 0
  5192                           ;C:\Program Files\Microchip\xc8\v2.45\pic\sources\c99\common\doprnt.c: 747:         l = 
      +                          0.0;
  5193   000E36  0E00               	movlw	0
  5194   000E38  6FE4               	movwf	efgtoa@l& (0+255),b
  5195   000E3A  0E00               	movlw	0
  5196   000E3C  6FE5               	movwf	(efgtoa@l+1)& (0+255),b
  5197   000E3E  0E00               	movlw	0
  5198   000E40  6FE6               	movwf	(efgtoa@l+2)& (0+255),b
  5199   000E42  0E00               	movlw	0
  5200   000E44  6FE7               	movwf	(efgtoa@l+3)& (0+255),b
  5201                           
  5202                           ;C:\Program Files\Microchip\xc8\v2.45\pic\sources\c99\common\doprnt.c: 748:     } else {
  5203   000E46  EF4E  F007         	goto	l5685
  5204   000E4A                     l5679:
  5205                           
  5206                           ; BSR set to: 0
  5207                           ;C:\Program Files\Microchip\xc8\v2.45\pic\sources\c99\common\doprnt.c: 750:         if (
      +                          (h == l) && !(d % 2)) {
  5208   000E4A  C0E0  F001         	movff	efgtoa@h,___fleq@ff1
  5209   000E4E  C0E1  F002         	movff	efgtoa@h+1,___fleq@ff1+1
  5210   000E52  C0E2  F003         	movff	efgtoa@h+2,___fleq@ff1+2
  5211   000E56  C0E3  F004         	movff	efgtoa@h+3,___fleq@ff1+3
  5212   000E5A  C0E4  F005         	movff	efgtoa@l,___fleq@ff2
  5213   000E5E  C0E5  F006         	movff	efgtoa@l+1,___fleq@ff2+1
  5214   000E62  C0E6  F007         	movff	efgtoa@l+2,___fleq@ff2+2
  5215   000E66  C0E7  F008         	movff	efgtoa@l+3,___fleq@ff2+3
  5216   000E6A  ECE3  F020         	call	___fleq	;wreg free
  5217   000E6E  A0D8               	btfss	status,0,c
  5218   000E70  EF3C  F007         	goto	u7091
  5219   000E74  EF3E  F007         	goto	u7090
  5220   000E78                     u7091:
  5221   000E78  EF4E  F007         	goto	l5685
  5222   000E7C                     u7090:
  5223   000E7C  0100               	movlb	0	; () banked
  5224   000E7E  B1D4               	btfsc	efgtoa@d& (0+255),0,b
  5225   000E80  EF44  F007         	goto	u7101
  5226   000E84  EF46  F007         	goto	u7100
  5227   000E88                     u7101:
  5228   000E88  EF4E  F007         	goto	l5685
  5229   000E8C                     u7100:
  5230   000E8C                     
  5231                           ; BSR set to: 0
  5232                           ;C:\Program Files\Microchip\xc8\v2.45\pic\sources\c99\common\doprnt.c: 751:             
      +                          l = 0.0;
  5233   000E8C  0E00               	movlw	0
  5234   000E8E  6FE4               	movwf	efgtoa@l& (0+255),b
  5235   000E90  0E00               	movlw	0
  5236   000E92  6FE5               	movwf	(efgtoa@l+1)& (0+255),b
  5237   000E94  0E00               	movlw	0
  5238   000E96  6FE6               	movwf	(efgtoa@l+2)& (0+255),b
  5239   000E98  0E00               	movlw	0
  5240   000E9A  6FE7               	movwf	(efgtoa@l+3)& (0+255),b
  5241   000E9C                     l5685:
  5242                           
  5243                           ;C:\Program Files\Microchip\xc8\v2.45\pic\sources\c99\common\doprnt.c: 756:     h = g.f 
      +                          + l;
  5244   000E9C  C0EB  F041         	movff	efgtoa@g,___fladd@b
  5245   000EA0  C0EC  F042         	movff	efgtoa@g+1,___fladd@b+1
  5246   000EA4  C0ED  F043         	movff	efgtoa@g+2,___fladd@b+2
  5247   000EA8  C0EE  F044         	movff	efgtoa@g+3,___fladd@b+3
  5248   000EAC  C0E4  F045         	movff	efgtoa@l,___fladd@a
  5249   000EB0  C0E5  F046         	movff	efgtoa@l+1,___fladd@a+1
  5250   000EB4  C0E6  F047         	movff	efgtoa@l+2,___fladd@a+2
  5251   000EB8  C0E7  F048         	movff	efgtoa@l+3,___fladd@a+3
  5252   000EBC  ECE6  F00B         	call	___fladd	;wreg free
  5253   000EC0  C041  F0E0         	movff	?___fladd,efgtoa@h
  5254   000EC4  C042  F0E1         	movff	?___fladd+1,efgtoa@h+1
  5255   000EC8  C043  F0E2         	movff	?___fladd+2,efgtoa@h+2
  5256   000ECC  C044  F0E3         	movff	?___fladd+3,efgtoa@h+3
  5257   000ED0                     
  5258                           ;C:\Program Files\Microchip\xc8\v2.45\pic\sources\c99\common\doprnt.c: 758:  if (h >= (o
      +                          u.f*10.0)) {
  5259   000ED0  C0E0  F0B4         	movff	efgtoa@h,___flge@ff1
  5260   000ED4  C0E1  F0B5         	movff	efgtoa@h+1,___flge@ff1+1
  5261   000ED8  C0E2  F0B6         	movff	efgtoa@h+2,___flge@ff1+2
  5262   000EDC  C0E3  F0B7         	movff	efgtoa@h+3,___flge@ff1+3
  5263   000EE0  0E00               	movlw	0
  5264   000EE2  6E2C               	movwf	___flmul@a^0,c
  5265   000EE4  0E00               	movlw	0
  5266   000EE6  6E2D               	movwf	(___flmul@a+1)^0,c
  5267   000EE8  0E20               	movlw	32
  5268   000EEA  6E2E               	movwf	(___flmul@a+2)^0,c
  5269   000EEC  0E41               	movlw	65
  5270   000EEE  6E2F               	movwf	(___flmul@a+3)^0,c
  5271   000EF0  C0DA  F028         	movff	efgtoa@ou,___flmul@b
  5272   000EF4  C0DB  F029         	movff	efgtoa@ou+1,___flmul@b+1
  5273   000EF8  C0DC  F02A         	movff	efgtoa@ou+2,___flmul@b+2
  5274   000EFC  C0DD  F02B         	movff	efgtoa@ou+3,___flmul@b+3
  5275   000F00  EC46  F00E         	call	___flmul	;wreg free
  5276   000F04  C028  F0B8         	movff	?___flmul,___flge@ff2
  5277   000F08  C029  F0B9         	movff	?___flmul+1,___flge@ff2+1
  5278   000F0C  C02A  F0BA         	movff	?___flmul+2,___flge@ff2+2
  5279   000F10  C02B  F0BB         	movff	?___flmul+3,___flge@ff2+3
  5280   000F14  EC67  F01E         	call	___flge	;wreg free
  5281   000F18  0100               	movlb	0	; () banked
  5282   000F1A  A0D8               	btfss	status,0,c
  5283   000F1C  EF92  F007         	goto	u7111
  5284   000F20  EF94  F007         	goto	u7110
  5285   000F24                     u7111:
  5286   000F24  EFBC  F007         	goto	l5697
  5287   000F28                     u7110:
  5288   000F28                     
  5289                           ; BSR set to: 0
  5290                           ;C:\Program Files\Microchip\xc8\v2.45\pic\sources\c99\common\doprnt.c: 759:   e++;
  5291   000F28  4BD8               	infsnz	efgtoa@e& (0+255),f,b
  5292   000F2A  2BD9               	incf	(efgtoa@e+1)& (0+255),f,b
  5293   000F2C                     
  5294                           ; BSR set to: 0
  5295                           ;C:\Program Files\Microchip\xc8\v2.45\pic\sources\c99\common\doprnt.c: 760:   ou.f *= 10
      +                          .0;
  5296   000F2C  C0DA  F028         	movff	efgtoa@ou,___flmul@b
  5297   000F30  C0DB  F029         	movff	efgtoa@ou+1,___flmul@b+1
  5298   000F34  C0DC  F02A         	movff	efgtoa@ou+2,___flmul@b+2
  5299   000F38  C0DD  F02B         	movff	efgtoa@ou+3,___flmul@b+3
  5300   000F3C  0E00               	movlw	0
  5301   000F3E  6E2C               	movwf	___flmul@a^0,c
  5302   000F40  0E00               	movlw	0
  5303   000F42  6E2D               	movwf	(___flmul@a+1)^0,c
  5304   000F44  0E20               	movlw	32
  5305   000F46  6E2E               	movwf	(___flmul@a+2)^0,c
  5306   000F48  0E41               	movlw	65
  5307   000F4A  6E2F               	movwf	(___flmul@a+3)^0,c
  5308   000F4C  EC46  F00E         	call	___flmul	;wreg free
  5309   000F50  C028  F0DA         	movff	?___flmul,efgtoa@ou
  5310   000F54  C029  F0DB         	movff	?___flmul+1,efgtoa@ou+1
  5311   000F58  C02A  F0DC         	movff	?___flmul+2,efgtoa@ou+2
  5312   000F5C  C02B  F0DD         	movff	?___flmul+3,efgtoa@ou+3
  5313   000F60                     
  5314                           ;C:\Program Files\Microchip\xc8\v2.45\pic\sources\c99\common\doprnt.c: 762:   if (nmode 
      +                          == 'f') {
  5315   000F60  0E66               	movlw	102
  5316   000F62  0100               	movlb	0	; () banked
  5317   000F64  19D3               	xorwf	efgtoa@nmode& (0+255),w,b
  5318   000F66  A4D8               	btfss	status,2,c
  5319   000F68  EFB8  F007         	goto	u7121
  5320   000F6C  EFBA  F007         	goto	u7120
  5321   000F70                     u7121:
  5322   000F70  EFBC  F007         	goto	l5697
  5323   000F74                     u7120:
  5324   000F74                     
  5325                           ; BSR set to: 0
  5326                           ;C:\Program Files\Microchip\xc8\v2.45\pic\sources\c99\common\doprnt.c: 764:    m++;
  5327   000F74  4BD6               	infsnz	efgtoa@m& (0+255),f,b
  5328   000F76  2BD7               	incf	(efgtoa@m+1)& (0+255),f,b
  5329   000F78                     l5697:
  5330                           
  5331                           ; BSR set to: 0
  5332                           ;C:\Program Files\Microchip\xc8\v2.45\pic\sources\c99\common\doprnt.c: 770:     u = ou;
  5333   000F78  C0DA  F0F1         	movff	efgtoa@ou,efgtoa@u
  5334   000F7C  C0DB  F0F2         	movff	efgtoa@ou+1,efgtoa@u+1
  5335   000F80  C0DC  F0F3         	movff	efgtoa@ou+2,efgtoa@u+2
  5336   000F84  C0DD  F0F4         	movff	efgtoa@ou+3,efgtoa@u+3
  5337   000F88                     
  5338                           ; BSR set to: 0
  5339                           ;C:\Program Files\Microchip\xc8\v2.45\pic\sources\c99\common\doprnt.c: 774:  ne = e;
  5340   000F88  C0D8  F0C9         	movff	efgtoa@e,efgtoa@ne
  5341   000F8C  C0D9  F0CA         	movff	efgtoa@e+1,efgtoa@ne+1
  5342   000F90                     
  5343                           ; BSR set to: 0
  5344                           ;C:\Program Files\Microchip\xc8\v2.45\pic\sources\c99\common\doprnt.c: 776:     pp = 0;
  5345   000F90  0E00               	movlw	0
  5346   000F92  6FD1               	movwf	efgtoa@pp& (0+255),b
  5347   000F94                     
  5348                           ; BSR set to: 0
  5349                           ;C:\Program Files\Microchip\xc8\v2.45\pic\sources\c99\common\doprnt.c: 777:     t = 0;
  5350   000F94  0E00               	movlw	0
  5351   000F96  6FCE               	movwf	(efgtoa@t+1)& (0+255),b
  5352   000F98  0E00               	movlw	0
  5353   000F9A  6FCD               	movwf	efgtoa@t& (0+255),b
  5354   000F9C                     
  5355                           ; BSR set to: 0
  5356                           ;C:\Program Files\Microchip\xc8\v2.45\pic\sources\c99\common\doprnt.c: 778:     i = 0;
  5357   000F9C  0E00               	movlw	0
  5358   000F9E  6FE9               	movwf	(efgtoa@i+1)& (0+255),b
  5359   000FA0  0E00               	movlw	0
  5360   000FA2  6FE8               	movwf	efgtoa@i& (0+255),b
  5361                           
  5362                           ;C:\Program Files\Microchip\xc8\v2.45\pic\sources\c99\common\doprnt.c: 779:     while ((
      +                          i < m) && (n < (80 - 5))) {
  5363   000FA4  EFB9  F008         	goto	l5747
  5364   000FA8                     l5707:
  5365                           
  5366                           ; BSR set to: 0
  5367                           ;C:\Program Files\Microchip\xc8\v2.45\pic\sources\c99\common\doprnt.c: 780:         l = 
      +                          floorf(h/u.f);
  5368   000FA8  C0E0  F00F         	movff	efgtoa@h,___fldiv@b
  5369   000FAC  C0E1  F010         	movff	efgtoa@h+1,___fldiv@b+1
  5370   000FB0  C0E2  F011         	movff	efgtoa@h+2,___fldiv@b+2
  5371   000FB4  C0E3  F012         	movff	efgtoa@h+3,___fldiv@b+3
  5372   000FB8  C0F1  F013         	movff	efgtoa@u,___fldiv@a
  5373   000FBC  C0F2  F014         	movff	efgtoa@u+1,___fldiv@a+1
  5374   000FC0  C0F3  F015         	movff	efgtoa@u+2,___fldiv@a+2
  5375   000FC4  C0F4  F016         	movff	efgtoa@u+3,___fldiv@a+3
  5376   000FC8  EC28  F014         	call	___fldiv	;wreg free
  5377   000FCC  C00F  F028         	movff	?___fldiv,floorf@x
  5378   000FD0  C010  F029         	movff	?___fldiv+1,floorf@x+1
  5379   000FD4  C011  F02A         	movff	?___fldiv+2,floorf@x+2
  5380   000FD8  C012  F02B         	movff	?___fldiv+3,floorf@x+3
  5381   000FDC  ECAF  F018         	call	_floorf	;wreg free
  5382   000FE0  C028  F0E4         	movff	?_floorf,efgtoa@l
  5383   000FE4  C029  F0E5         	movff	?_floorf+1,efgtoa@l+1
  5384   000FE8  C02A  F0E6         	movff	?_floorf+2,efgtoa@l+2
  5385   000FEC  C02B  F0E7         	movff	?_floorf+3,efgtoa@l+3
  5386                           
  5387                           ;C:\Program Files\Microchip\xc8\v2.45\pic\sources\c99\common\doprnt.c: 781:         d = 
      +                          (int)l > 9 ? 9 : (int)l;
  5388   000FF0  C0E4  F051         	movff	efgtoa@l,___fltol@f1
  5389   000FF4  C0E5  F052         	movff	efgtoa@l+1,___fltol@f1+1
  5390   000FF8  C0E6  F053         	movff	efgtoa@l+2,___fltol@f1+2
  5391   000FFC  C0E7  F054         	movff	efgtoa@l+3,___fltol@f1+3
  5392   001000  ECE4  F01D         	call	___fltol	;wreg free
  5393   001004  BE52               	btfsc	(?___fltol+1)^0,7,c
  5394   001006  EF10  F008         	goto	u7130
  5395   00100A  5052               	movf	(?___fltol+1)^0,w,c
  5396   00100C  E107               	bnz	u7131
  5397   00100E  0E0A               	movlw	10
  5398   001010  5C51               	subwf	?___fltol^0,w,c
  5399   001012  B0D8               	btfsc	status,0,c
  5400   001014  EF0E  F008         	goto	u7131
  5401   001018  EF10  F008         	goto	u7130
  5402   00101C                     u7131:
  5403   00101C  EF20  F008         	goto	l5711
  5404   001020                     u7130:
  5405   001020  C0E4  F051         	movff	efgtoa@l,___fltol@f1
  5406   001024  C0E5  F052         	movff	efgtoa@l+1,___fltol@f1+1
  5407   001028  C0E6  F053         	movff	efgtoa@l+2,___fltol@f1+2
  5408   00102C  C0E7  F054         	movff	efgtoa@l+3,___fltol@f1+3
  5409   001030  ECE4  F01D         	call	___fltol	;wreg free
  5410   001034  C051  F0D4         	movff	?___fltol,efgtoa@d
  5411   001038  C052  F0D5         	movff	?___fltol+1,efgtoa@d+1
  5412   00103C  EF25  F008         	goto	l985
  5413   001040                     l5711:
  5414   001040  0E00               	movlw	0
  5415   001042  0100               	movlb	0	; () banked
  5416   001044  6FD5               	movwf	(efgtoa@d+1)& (0+255),b
  5417   001046  0E09               	movlw	9
  5418   001048  6FD4               	movwf	efgtoa@d& (0+255),b
  5419   00104A                     l985:
  5420                           
  5421                           ;C:\Program Files\Microchip\xc8\v2.45\pic\sources\c99\common\doprnt.c: 792:   {;C:\Progr
      +                          am Files\Microchip\xc8\v2.45\pic\sources\c99\common\doprnt.c: 793:             if (!pp &
      +                          & (ne < 0)) {
  5422   00104A  0100               	movlb	0	; () banked
  5423   00104C  51D1               	movf	efgtoa@pp& (0+255),w,b
  5424   00104E  A4D8               	btfss	status,2,c
  5425   001050  EF2C  F008         	goto	u7141
  5426   001054  EF2E  F008         	goto	u7140
  5427   001058                     u7141:
  5428   001058  EF56  F008         	goto	l5731
  5429   00105C                     u7140:
  5430   00105C                     
  5431                           ; BSR set to: 0
  5432   00105C  BFCA               	btfsc	(efgtoa@ne+1)& (0+255),7,b
  5433   00105E  EF35  F008         	goto	u7150
  5434   001062  EF33  F008         	goto	u7151
  5435   001066                     u7151:
  5436   001066  EF56  F008         	goto	l5731
  5437   00106A                     u7150:
  5438   00106A                     
  5439                           ; BSR set to: 0
  5440                           ;C:\Program Files\Microchip\xc8\v2.45\pic\sources\c99\common\doprnt.c: 794:             
      +                              dbuf[n++] = '.';
  5441   00106A  0E16               	movlw	low _dbuf
  5442   00106C  25EF               	addwf	efgtoa@n& (0+255),w,b
  5443   00106E  6ED9               	movwf	fsr2l,c
  5444   001070  0E01               	movlw	high _dbuf
  5445   001072  21F0               	addwfc	(efgtoa@n+1)& (0+255),w,b
  5446   001074  6EDA               	movwf	fsr2h,c
  5447   001076  0E2E               	movlw	46
  5448   001078  6EDF               	movwf	indf2,c
  5449   00107A                     
  5450                           ; BSR set to: 0
  5451   00107A  4BEF               	infsnz	efgtoa@n& (0+255),f,b
  5452   00107C  2BF0               	incf	(efgtoa@n+1)& (0+255),f,b
  5453   00107E                     
  5454                           ; BSR set to: 0
  5455                           ;C:\Program Files\Microchip\xc8\v2.45\pic\sources\c99\common\doprnt.c: 795:             
      +                              --w;
  5456   00107E  07DE               	decf	efgtoa@w& (0+255),f,b
  5457   001080  A0D8               	btfss	status,0,c
  5458   001082  07DF               	decf	(efgtoa@w+1)& (0+255),f,b
  5459   001084                     
  5460                           ; BSR set to: 0
  5461                           ;C:\Program Files\Microchip\xc8\v2.45\pic\sources\c99\common\doprnt.c: 796:             
      +                              pp = 1;
  5462   001084  0E01               	movlw	1
  5463   001086  6FD1               	movwf	efgtoa@pp& (0+255),b
  5464   001088  EF56  F008         	goto	l5731
  5465   00108C                     l5723:
  5466                           
  5467                           ; BSR set to: 0
  5468                           ;C:\Program Files\Microchip\xc8\v2.45\pic\sources\c99\common\doprnt.c: 799:             
      +                              dbuf[n++] = '0';
  5469   00108C  0E16               	movlw	low _dbuf
  5470   00108E  25EF               	addwf	efgtoa@n& (0+255),w,b
  5471   001090  6ED9               	movwf	fsr2l,c
  5472   001092  0E01               	movlw	high _dbuf
  5473   001094  21F0               	addwfc	(efgtoa@n+1)& (0+255),w,b
  5474   001096  6EDA               	movwf	fsr2h,c
  5475   001098  0E30               	movlw	48
  5476   00109A  6EDF               	movwf	indf2,c
  5477   00109C                     
  5478                           ; BSR set to: 0
  5479   00109C  4BEF               	infsnz	efgtoa@n& (0+255),f,b
  5480   00109E  2BF0               	incf	(efgtoa@n+1)& (0+255),f,b
  5481   0010A0                     
  5482                           ; BSR set to: 0
  5483                           ;C:\Program Files\Microchip\xc8\v2.45\pic\sources\c99\common\doprnt.c: 800:             
      +                              --w;
  5484   0010A0  07DE               	decf	efgtoa@w& (0+255),f,b
  5485   0010A2  A0D8               	btfss	status,0,c
  5486   0010A4  07DF               	decf	(efgtoa@w+1)& (0+255),f,b
  5487   0010A6                     
  5488                           ; BSR set to: 0
  5489                           ;C:\Program Files\Microchip\xc8\v2.45\pic\sources\c99\common\doprnt.c: 801:             
      +                              --t;
  5490   0010A6  07CD               	decf	efgtoa@t& (0+255),f,b
  5491   0010A8  A0D8               	btfss	status,0,c
  5492   0010AA  07CE               	decf	(efgtoa@t+1)& (0+255),f,b
  5493   0010AC                     l5731:
  5494                           
  5495                           ; BSR set to: 0
  5496                           ;C:\Program Files\Microchip\xc8\v2.45\pic\sources\c99\common\doprnt.c: 798:             
      +                          while (t) {
  5497   0010AC  51CD               	movf	efgtoa@t& (0+255),w,b
  5498   0010AE  11CE               	iorwf	(efgtoa@t+1)& (0+255),w,b
  5499   0010B0  A4D8               	btfss	status,2,c
  5500   0010B2  EF5D  F008         	goto	u7161
  5501   0010B6  EF5F  F008         	goto	u7160
  5502   0010BA                     u7161:
  5503   0010BA  EF46  F008         	goto	l5723
  5504   0010BE                     u7160:
  5505   0010BE                     
  5506                           ; BSR set to: 0
  5507                           ;C:\Program Files\Microchip\xc8\v2.45\pic\sources\c99\common\doprnt.c: 803:             
      +                          dbuf[n++] = (char)((int)'0' + d);
  5508   0010BE  0E16               	movlw	low _dbuf
  5509   0010C0  25EF               	addwf	efgtoa@n& (0+255),w,b
  5510   0010C2  6ED9               	movwf	fsr2l,c
  5511   0010C4  0E01               	movlw	high _dbuf
  5512   0010C6  21F0               	addwfc	(efgtoa@n+1)& (0+255),w,b
  5513   0010C8  6EDA               	movwf	fsr2h,c
  5514   0010CA  51D4               	movf	efgtoa@d& (0+255),w,b
  5515   0010CC  0F30               	addlw	48
  5516   0010CE  6EDF               	movwf	indf2,c
  5517   0010D0                     
  5518                           ; BSR set to: 0
  5519   0010D0  4BEF               	infsnz	efgtoa@n& (0+255),f,b
  5520   0010D2  2BF0               	incf	(efgtoa@n+1)& (0+255),f,b
  5521   0010D4                     
  5522                           ; BSR set to: 0
  5523                           ;C:\Program Files\Microchip\xc8\v2.45\pic\sources\c99\common\doprnt.c: 804:             
      +                          --w;
  5524   0010D4  07DE               	decf	efgtoa@w& (0+255),f,b
  5525   0010D6  A0D8               	btfss	status,0,c
  5526   0010D8  07DF               	decf	(efgtoa@w+1)& (0+255),f,b
  5527   0010DA                     
  5528                           ; BSR set to: 0
  5529                           ;C:\Program Files\Microchip\xc8\v2.45\pic\sources\c99\common\doprnt.c: 805:         };C:
      +                          \Program Files\Microchip\xc8\v2.45\pic\sources\c99\common\doprnt.c: 806:         h -= l*
      +                          u.f;
  5530   0010DA  C0E0  F051         	movff	efgtoa@h,___flsub@b
  5531   0010DE  C0E1  F052         	movff	efgtoa@h+1,___flsub@b+1
  5532   0010E2  C0E2  F053         	movff	efgtoa@h+2,___flsub@b+2
  5533   0010E6  C0E3  F054         	movff	efgtoa@h+3,___flsub@b+3
  5534   0010EA  C0E4  F02C         	movff	efgtoa@l,___flmul@a
  5535   0010EE  C0E5  F02D         	movff	efgtoa@l+1,___flmul@a+1
  5536   0010F2  C0E6  F02E         	movff	efgtoa@l+2,___flmul@a+2
  5537   0010F6  C0E7  F02F         	movff	efgtoa@l+3,___flmul@a+3
  5538   0010FA  C0F1  F028         	movff	efgtoa@u,___flmul@b
  5539   0010FE  C0F2  F029         	movff	efgtoa@u+1,___flmul@b+1
  5540   001102  C0F3  F02A         	movff	efgtoa@u+2,___flmul@b+2
  5541   001106  C0F4  F02B         	movff	efgtoa@u+3,___flmul@b+3
  5542   00110A  EC46  F00E         	call	___flmul	;wreg free
  5543   00110E  C028  F055         	movff	?___flmul,___flsub@a
  5544   001112  C029  F056         	movff	?___flmul+1,___flsub@a+1
  5545   001116  C02A  F057         	movff	?___flmul+2,___flsub@a+2
  5546   00111A  C02B  F058         	movff	?___flmul+3,___flsub@a+3
  5547   00111E  EC49  F022         	call	___flsub	;wreg free
  5548   001122  C051  F0E0         	movff	?___flsub,efgtoa@h
  5549   001126  C052  F0E1         	movff	?___flsub+1,efgtoa@h+1
  5550   00112A  C053  F0E2         	movff	?___flsub+2,efgtoa@h+2
  5551   00112E  C054  F0E3         	movff	?___flsub+3,efgtoa@h+3
  5552   001132                     
  5553                           ;C:\Program Files\Microchip\xc8\v2.45\pic\sources\c99\common\doprnt.c: 807:         u.f 
      +                          = u.f/10.0;
  5554   001132  C0F1  F00F         	movff	efgtoa@u,___fldiv@b
  5555   001136  C0F2  F010         	movff	efgtoa@u+1,___fldiv@b+1
  5556   00113A  C0F3  F011         	movff	efgtoa@u+2,___fldiv@b+2
  5557   00113E  C0F4  F012         	movff	efgtoa@u+3,___fldiv@b+3
  5558   001142  0E00               	movlw	0
  5559   001144  6E13               	movwf	___fldiv@a^0,c
  5560   001146  0E00               	movlw	0
  5561   001148  6E14               	movwf	(___fldiv@a+1)^0,c
  5562   00114A  0E20               	movlw	32
  5563   00114C  6E15               	movwf	(___fldiv@a+2)^0,c
  5564   00114E  0E41               	movlw	65
  5565   001150  6E16               	movwf	(___fldiv@a+3)^0,c
  5566   001152  EC28  F014         	call	___fldiv	;wreg free
  5567   001156  C00F  F0F1         	movff	?___fldiv,efgtoa@u
  5568   00115A  C010  F0F2         	movff	?___fldiv+1,efgtoa@u+1
  5569   00115E  C011  F0F3         	movff	?___fldiv+2,efgtoa@u+2
  5570   001162  C012  F0F4         	movff	?___fldiv+3,efgtoa@u+3
  5571   001166                     
  5572                           ;C:\Program Files\Microchip\xc8\v2.45\pic\sources\c99\common\doprnt.c: 808:         --ne
      +                          ;
  5573   001166  0100               	movlb	0	; () banked
  5574   001168  07C9               	decf	efgtoa@ne& (0+255),f,b
  5575   00116A  A0D8               	btfss	status,0,c
  5576   00116C  07CA               	decf	(efgtoa@ne+1)& (0+255),f,b
  5577   00116E                     
  5578                           ; BSR set to: 0
  5579                           ;C:\Program Files\Microchip\xc8\v2.45\pic\sources\c99\common\doprnt.c: 809:         ++i;
  5580   00116E  4BE8               	infsnz	efgtoa@i& (0+255),f,b
  5581   001170  2BE9               	incf	(efgtoa@i+1)& (0+255),f,b
  5582   001172                     l5747:
  5583                           
  5584                           ; BSR set to: 0
  5585                           ;C:\Program Files\Microchip\xc8\v2.45\pic\sources\c99\common\doprnt.c: 779:     while ((
      +                          i < m) && (n < (80 - 5))) {
  5586   001172  51D6               	movf	efgtoa@m& (0+255),w,b
  5587   001174  5DE8               	subwf	efgtoa@i& (0+255),w,b
  5588   001176  51E9               	movf	(efgtoa@i+1)& (0+255),w,b
  5589   001178  0A80               	xorlw	128
  5590   00117A  6FC7               	movwf	??_efgtoa& (0+255),b
  5591   00117C  51D7               	movf	(efgtoa@m+1)& (0+255),w,b
  5592   00117E  0A80               	xorlw	128
  5593   001180  59C7               	subwfb	??_efgtoa& (0+255),w,b
  5594   001182  B0D8               	btfsc	status,0,c
  5595   001184  EFC6  F008         	goto	u7171
  5596   001188  EFC8  F008         	goto	u7170
  5597   00118C                     u7171:
  5598   00118C  EFD6  F008         	goto	l5751
  5599   001190                     u7170:
  5600   001190                     
  5601                           ; BSR set to: 0
  5602   001190  BFF0               	btfsc	(efgtoa@n+1)& (0+255),7,b
  5603   001192  EFD4  F008         	goto	u7181
  5604   001196  51F0               	movf	(efgtoa@n+1)& (0+255),w,b
  5605   001198  E109               	bnz	u7180
  5606   00119A  0E4B               	movlw	75
  5607   00119C  5DEF               	subwf	efgtoa@n& (0+255),w,b
  5608   00119E  A0D8               	btfss	status,0,c
  5609   0011A0  EFD4  F008         	goto	u7181
  5610   0011A4  EFD6  F008         	goto	u7180
  5611   0011A8                     u7181:
  5612   0011A8  EFD4  F007         	goto	l5707
  5613   0011AC                     u7180:
  5614   0011AC                     l5751:
  5615                           
  5616                           ; BSR set to: 0
  5617                           ;C:\Program Files\Microchip\xc8\v2.45\pic\sources\c99\common\doprnt.c: 816:  i = sizeof(
      +                          dbuf) - 1;
  5618   0011AC  0E00               	movlw	0
  5619   0011AE  6FE9               	movwf	(efgtoa@i+1)& (0+255),b
  5620   0011B0  0E4F               	movlw	79
  5621   0011B2  6FE8               	movwf	efgtoa@i& (0+255),b
  5622   0011B4                     
  5623                           ; BSR set to: 0
  5624                           ;C:\Program Files\Microchip\xc8\v2.45\pic\sources\c99\common\doprnt.c: 817:     dbuf[i] 
      +                          = '\0';
  5625   0011B4  0E16               	movlw	low _dbuf
  5626   0011B6  25E8               	addwf	efgtoa@i& (0+255),w,b
  5627   0011B8  6ED9               	movwf	fsr2l,c
  5628   0011BA  0E01               	movlw	high _dbuf
  5629   0011BC  21E9               	addwfc	(efgtoa@i+1)& (0+255),w,b
  5630   0011BE  6EDA               	movwf	fsr2h,c
  5631   0011C0  6ADF               	clrf	indf2,c
  5632   0011C2                     
  5633                           ; BSR set to: 0
  5634                           ;C:\Program Files\Microchip\xc8\v2.45\pic\sources\c99\common\doprnt.c: 848:  memcpy(&dbu
      +                          f[i-n], &dbuf[0], (size_t)n);
  5635   0011C2  0E16               	movlw	low _dbuf
  5636   0011C4  6FC7               	movwf	??_efgtoa& (0+255),b
  5637   0011C6  0E01               	movlw	high _dbuf
  5638   0011C8  6FC8               	movwf	(??_efgtoa+1)& (0+255),b
  5639   0011CA  51EF               	movf	efgtoa@n& (0+255),w,b
  5640   0011CC  5FC7               	subwf	??_efgtoa& (0+255),f,b
  5641   0011CE  51F0               	movf	(efgtoa@n+1)& (0+255),w,b
  5642   0011D0  5BC8               	subwfb	(??_efgtoa+1)& (0+255),f,b
  5643   0011D2  51E8               	movf	efgtoa@i& (0+255),w,b
  5644   0011D4  25C7               	addwf	??_efgtoa& (0+255),w,b
  5645   0011D6  6E01               	movwf	memcpy@d1^0,c
  5646   0011D8  51E9               	movf	(efgtoa@i+1)& (0+255),w,b
  5647   0011DA  21C8               	addwfc	(??_efgtoa+1)& (0+255),w,b
  5648   0011DC  6E02               	movwf	(memcpy@d1+1)^0,c
  5649   0011DE  0E16               	movlw	low _dbuf
  5650   0011E0  6E03               	movwf	memcpy@s1^0,c
  5651   0011E2  0E01               	movlw	high _dbuf
  5652   0011E4  6E04               	movwf	(memcpy@s1+1)^0,c
  5653   0011E6  C0EF  F005         	movff	efgtoa@n,memcpy@n
  5654   0011EA  C0F0  F006         	movff	efgtoa@n+1,memcpy@n+1
  5655   0011EE  ECD6  F021         	call	_memcpy	;wreg free
  5656   0011F2                     
  5657                           ;C:\Program Files\Microchip\xc8\v2.45\pic\sources\c99\common\doprnt.c: 849:  n = i-n;
  5658   0011F2  0100               	movlb	0	; () banked
  5659   0011F4  51EF               	movf	efgtoa@n& (0+255),w,b
  5660   0011F6  5DE8               	subwf	efgtoa@i& (0+255),w,b
  5661   0011F8  6FEF               	movwf	efgtoa@n& (0+255),b
  5662   0011FA  51F0               	movf	(efgtoa@n+1)& (0+255),w,b
  5663   0011FC  59E9               	subwfb	(efgtoa@i+1)& (0+255),w,b
  5664   0011FE  6FF0               	movwf	(efgtoa@n+1)& (0+255),b
  5665   001200                     
  5666                           ; BSR set to: 0
  5667                           ;C:\Program Files\Microchip\xc8\v2.45\pic\sources\c99\common\doprnt.c: 850:  i = sign ==
      +                           0 ? 0 : 1;
  5668   001200  51EA               	movf	efgtoa@sign& (0+255),w,b
  5669   001202  A4D8               	btfss	status,2,c
  5670   001204  EF06  F009         	goto	u7191
  5671   001208  EF09  F009         	goto	u7190
  5672   00120C                     u7191:
  5673   00120C  0E01               	movlw	1
  5674   00120E  EF0A  F009         	goto	u7200
  5675   001212                     u7190:
  5676   001212  0E00               	movlw	0
  5677   001214                     u7200:
  5678   001214  6FE8               	movwf	efgtoa@i& (0+255),b
  5679   001216  6BE9               	clrf	(efgtoa@i+1)& (0+255),b
  5680   001218                     
  5681                           ; BSR set to: 0
  5682                           ;C:\Program Files\Microchip\xc8\v2.45\pic\sources\c99\common\doprnt.c: 853:  if (flags &
      +                           (1 << 1)) {
  5683   001218  A3FE               	btfss	_flags& (0+255),1,b
  5684   00121A  EF11  F009         	goto	u7211
  5685   00121E  EF13  F009         	goto	u7210
  5686   001222                     u7211:
  5687   001222  EF41  F009         	goto	l5773
  5688   001226                     u7210:
  5689   001226  EF23  F009         	goto	l5769
  5690   00122A                     l5765:
  5691                           
  5692                           ; BSR set to: 0
  5693                           ;C:\Program Files\Microchip\xc8\v2.45\pic\sources\c99\common\doprnt.c: 855:    dbuf[--n]
      +                           = '0';
  5694   00122A  07EF               	decf	efgtoa@n& (0+255),f,b
  5695   00122C  A0D8               	btfss	status,0,c
  5696   00122E  07F0               	decf	(efgtoa@n+1)& (0+255),f,b
  5697   001230  0E16               	movlw	low _dbuf
  5698   001232  25EF               	addwf	efgtoa@n& (0+255),w,b
  5699   001234  6ED9               	movwf	fsr2l,c
  5700   001236  0E01               	movlw	high _dbuf
  5701   001238  21F0               	addwfc	(efgtoa@n+1)& (0+255),w,b
  5702   00123A  6EDA               	movwf	fsr2h,c
  5703   00123C  0E30               	movlw	48
  5704   00123E  6EDF               	movwf	indf2,c
  5705   001240                     
  5706                           ; BSR set to: 0
  5707                           ;C:\Program Files\Microchip\xc8\v2.45\pic\sources\c99\common\doprnt.c: 856:    w--;
  5708   001240  07DE               	decf	efgtoa@w& (0+255),f,b
  5709   001242  A0D8               	btfss	status,0,c
  5710   001244  07DF               	decf	(efgtoa@w+1)& (0+255),f,b
  5711   001246                     l5769:
  5712                           
  5713                           ; BSR set to: 0
  5714                           ;C:\Program Files\Microchip\xc8\v2.45\pic\sources\c99\common\doprnt.c: 854:   while (w >
      +                           i && n > i) {
  5715   001246  51DE               	movf	efgtoa@w& (0+255),w,b
  5716   001248  5DE8               	subwf	efgtoa@i& (0+255),w,b
  5717   00124A  51E9               	movf	(efgtoa@i+1)& (0+255),w,b
  5718   00124C  0A80               	xorlw	128
  5719   00124E  6FC7               	movwf	??_efgtoa& (0+255),b
  5720   001250  51DF               	movf	(efgtoa@w+1)& (0+255),w,b
  5721   001252  0A80               	xorlw	128
  5722   001254  59C7               	subwfb	??_efgtoa& (0+255),w,b
  5723   001256  B0D8               	btfsc	status,0,c
  5724   001258  EF30  F009         	goto	u7221
  5725   00125C  EF32  F009         	goto	u7220
  5726   001260                     u7221:
  5727   001260  EF41  F009         	goto	l5773
  5728   001264                     u7220:
  5729   001264                     
  5730                           ; BSR set to: 0
  5731   001264  51EF               	movf	efgtoa@n& (0+255),w,b
  5732   001266  5DE8               	subwf	efgtoa@i& (0+255),w,b
  5733   001268  51E9               	movf	(efgtoa@i+1)& (0+255),w,b
  5734   00126A  0A80               	xorlw	128
  5735   00126C  6FC7               	movwf	??_efgtoa& (0+255),b
  5736   00126E  51F0               	movf	(efgtoa@n+1)& (0+255),w,b
  5737   001270  0A80               	xorlw	128
  5738   001272  59C7               	subwfb	??_efgtoa& (0+255),w,b
  5739   001274  A0D8               	btfss	status,0,c
  5740   001276  EF3F  F009         	goto	u7231
  5741   00127A  EF41  F009         	goto	u7230
  5742   00127E                     u7231:
  5743   00127E  EF15  F009         	goto	l5765
  5744   001282                     u7230:
  5745   001282                     l5773:
  5746                           
  5747                           ; BSR set to: 0
  5748                           ;C:\Program Files\Microchip\xc8\v2.45\pic\sources\c99\common\doprnt.c: 861:  if (sign) {
  5749   001282  51EA               	movf	efgtoa@sign& (0+255),w,b
  5750   001284  B4D8               	btfsc	status,2,c
  5751   001286  EF47  F009         	goto	u7241
  5752   00128A  EF49  F009         	goto	u7240
  5753   00128E                     u7241:
  5754   00128E  EF54  F009         	goto	l5777
  5755   001292                     u7240:
  5756   001292                     
  5757                           ; BSR set to: 0
  5758                           ;C:\Program Files\Microchip\xc8\v2.45\pic\sources\c99\common\doprnt.c: 862:   dbuf[--n] 
      +                          = sign;
  5759   001292  07EF               	decf	efgtoa@n& (0+255),f,b
  5760   001294  A0D8               	btfss	status,0,c
  5761   001296  07F0               	decf	(efgtoa@n+1)& (0+255),f,b
  5762   001298  0E16               	movlw	low _dbuf
  5763   00129A  25EF               	addwf	efgtoa@n& (0+255),w,b
  5764   00129C  6ED9               	movwf	fsr2l,c
  5765   00129E  0E01               	movlw	high _dbuf
  5766   0012A0  21F0               	addwfc	(efgtoa@n+1)& (0+255),w,b
  5767   0012A2  6EDA               	movwf	fsr2h,c
  5768   0012A4  C0EA  FFDF         	movff	efgtoa@sign,indf2
  5769   0012A8                     l5777:
  5770                           
  5771                           ; BSR set to: 0
  5772                           ;C:\Program Files\Microchip\xc8\v2.45\pic\sources\c99\common\doprnt.c: 864:  w -= i;
  5773   0012A8  51E8               	movf	efgtoa@i& (0+255),w,b
  5774   0012AA  5FDE               	subwf	efgtoa@w& (0+255),f,b
  5775   0012AC  51E9               	movf	(efgtoa@i+1)& (0+255),w,b
  5776   0012AE  5BDF               	subwfb	(efgtoa@w+1)& (0+255),f,b
  5777   0012B0                     
  5778                           ; BSR set to: 0
  5779                           ;C:\Program Files\Microchip\xc8\v2.45\pic\sources\c99\common\doprnt.c: 867:     return (
      +                          void) pad(fp, &dbuf[n], w);
  5780   0012B0  C0C0  F011         	movff	efgtoa@fp,pad@fp
  5781   0012B4  C0C1  F012         	movff	efgtoa@fp+1,pad@fp+1
  5782   0012B8  0E16               	movlw	low _dbuf
  5783   0012BA  25EF               	addwf	efgtoa@n& (0+255),w,b
  5784   0012BC  6E13               	movwf	pad@buf^0,c
  5785   0012BE  0E01               	movlw	high _dbuf
  5786   0012C0  21F0               	addwfc	(efgtoa@n+1)& (0+255),w,b
  5787   0012C2  6E14               	movwf	(pad@buf+1)^0,c
  5788   0012C4  C0DE  F015         	movff	efgtoa@w,pad@p
  5789   0012C8  C0DF  F016         	movff	efgtoa@w+1,pad@p+1
  5790   0012CC  EC74  F021         	call	_pad	;wreg free
  5791   0012D0                     l952:
  5792   0012D0  0012               	return		;funcret
  5793   0012D2                     __end_of_efgtoa:
  5794                           	callstack 0
  5795                           
  5796 ;; *************** function _strcpy *****************
  5797 ;; Defined at:
  5798 ;;		line 3 in file "C:\Program Files\Microchip\xc8\v2.45\pic\sources\c99\common\strcpy.c"
  5799 ;; Parameters:    Size  Location     Type
  5800 ;;  dest            2    0[COMRAM] PTR unsigned char 
  5801 ;;		 -> dbuf(80), 
  5802 ;;  src             1    2[COMRAM] PTR const unsigned char 
  5803 ;;		 -> STR_9(4), STR_6(4), 
  5804 ;; Auto vars:     Size  Location     Type
  5805 ;;  d               2    4[COMRAM] PTR unsigned char 
  5806 ;;		 -> dbuf(80), 
  5807 ;; Return value:  Size  Location     Type
  5808 ;;                  2    0[COMRAM] PTR unsigned char 
  5809 ;; Registers used:
  5810 ;;		wreg, fsr2l, fsr2h, status,2, status,0, tblptrl, tblptrh, tblptru
  5811 ;; Tracked objects:
  5812 ;;		On entry : 0/0
  5813 ;;		On exit  : 0/0
  5814 ;;		Unchanged: 0/0
  5815 ;; Data sizes:     COMRAM   BANK0   BANK1   BANK2   BANK3   BANK4   BANK5   BANK6   BANK7
  5816 ;;      Params:         3       0       0       0       0       0       0       0       0
  5817 ;;      Locals:         2       0       0       0       0       0       0       0       0
  5818 ;;      Temps:          1       0       0       0       0       0       0       0       0
  5819 ;;      Totals:         6       0       0       0       0       0       0       0       0
  5820 ;;Total ram usage:        6 bytes
  5821 ;; Hardware stack levels used: 1
  5822 ;; This function calls:
  5823 ;;		Nothing
  5824 ;; This function is called by:
  5825 ;;		_efgtoa
  5826 ;; This function uses a non-reentrant model
  5827 ;;
  5828                           
  5829                           	psect	text14
  5830   004560                     __ptext14:
  5831                           	callstack 0
  5832   004560                     _strcpy:
  5833                           	callstack 25
  5834   004560  C001  F005         	movff	strcpy@dest,strcpy@d
  5835   004564  C002  F006         	movff	strcpy@dest+1,strcpy@d+1
  5836   004568                     l5447:
  5837   004568  2A03               	incf	strcpy@src^0,f,c
  5838   00456A  0403               	decf	strcpy@src^0,w,c
  5839   00456C  6E04               	movwf	??_strcpy^0,c
  5840   00456E  C004  FFF6         	movff	??_strcpy,tblptrl
  5841   004572                     	if	1	;There is more than 1 active tblptr byte
  5842   004572  0E08               	movlw	high __smallconst
  5843   004574  6EF7               	movwf	tblptrh,c
  5844   004576                     	endif
  5845   004576                     	if	0	;tblptru may be non-zero
  5846   004576                     	endif
  5847   004576                     	if	0	;tblptru may be non-zero
  5848   004576                     	endif
  5849   004576  C005  FFD9         	movff	strcpy@d,fsr2l
  5850   00457A  C006  FFDA         	movff	strcpy@d+1,fsr2h
  5851   00457E  4A05               	infsnz	strcpy@d^0,f,c
  5852   004580  2A06               	incf	(strcpy@d+1)^0,f,c
  5853   004582  0008               	tblrd		*
  5854   004584  CFF5 FFDF          	movff	tablat,indf2
  5855   004588  50DF               	movf	indf2,w,c
  5856   00458A  A4D8               	btfss	status,2,c
  5857   00458C  EFCA  F022         	goto	u6651
  5858   004590  EFCC  F022         	goto	u6650
  5859   004594                     u6651:
  5860   004594  EFB4  F022         	goto	l5447
  5861   004598                     u6650:
  5862   004598  0012               	return		;funcret
  5863   00459A                     __end_of_strcpy:
  5864                           	callstack 0
  5865                           
  5866 ;; *************** function _memcpy *****************
  5867 ;; Defined at:
  5868 ;;		line 4 in file "C:\Program Files\Microchip\xc8\v2.45\pic\sources\c99\common\memcpy.c"
  5869 ;; Parameters:    Size  Location     Type
  5870 ;;  d1              2    0[COMRAM] PTR void 
  5871 ;;		 -> dbuf(80), 
  5872 ;;  s1              2    2[COMRAM] PTR const void 
  5873 ;;		 -> dbuf(80), 
  5874 ;;  n               2    4[COMRAM] unsigned int 
  5875 ;; Auto vars:     Size  Location     Type
  5876 ;;  s               2    9[COMRAM] PTR const unsigned char 
  5877 ;;		 -> dbuf(80), 
  5878 ;;  d               2    7[COMRAM] PTR unsigned char 
  5879 ;;		 -> dbuf(80), 
  5880 ;;  tmp             1    6[COMRAM] unsigned char 
  5881 ;; Return value:  Size  Location     Type
  5882 ;;                  2    0[COMRAM] PTR void 
  5883 ;; Registers used:
  5884 ;;		wreg, fsr2l, fsr2h, status,2, status,0
  5885 ;; Tracked objects:
  5886 ;;		On entry : 0/0
  5887 ;;		On exit  : 0/0
  5888 ;;		Unchanged: 0/0
  5889 ;; Data sizes:     COMRAM   BANK0   BANK1   BANK2   BANK3   BANK4   BANK5   BANK6   BANK7
  5890 ;;      Params:         6       0       0       0       0       0       0       0       0
  5891 ;;      Locals:         5       0       0       0       0       0       0       0       0
  5892 ;;      Temps:          0       0       0       0       0       0       0       0       0
  5893 ;;      Totals:        11       0       0       0       0       0       0       0       0
  5894 ;;Total ram usage:       11 bytes
  5895 ;; Hardware stack levels used: 1
  5896 ;; This function calls:
  5897 ;;		Nothing
  5898 ;; This function is called by:
  5899 ;;		_efgtoa
  5900 ;; This function uses a non-reentrant model
  5901 ;;
  5902                           
  5903                           	psect	text15
  5904   0043AC                     __ptext15:
  5905                           	callstack 0
  5906   0043AC                     _memcpy:
  5907                           	callstack 25
  5908   0043AC  C003  F00A         	movff	memcpy@s1,memcpy@s
  5909   0043B0  C004  F00B         	movff	memcpy@s1+1,memcpy@s+1
  5910   0043B4  C001  F008         	movff	memcpy@d1,memcpy@d
  5911   0043B8  C002  F009         	movff	memcpy@d1+1,memcpy@d+1
  5912   0043BC  EFF0  F021         	goto	l5495
  5913   0043C0                     l5487:
  5914   0043C0  C00A  FFD9         	movff	memcpy@s,fsr2l
  5915   0043C4  C00B  FFDA         	movff	memcpy@s+1,fsr2h
  5916   0043C8  50DF               	movf	indf2,w,c
  5917   0043CA  6E07               	movwf	memcpy@tmp^0,c
  5918   0043CC  4A0A               	infsnz	memcpy@s^0,f,c
  5919   0043CE  2A0B               	incf	(memcpy@s+1)^0,f,c
  5920   0043D0  C008  FFD9         	movff	memcpy@d,fsr2l
  5921   0043D4  C009  FFDA         	movff	memcpy@d+1,fsr2h
  5922   0043D8  C007  FFDF         	movff	memcpy@tmp,indf2
  5923   0043DC  4A08               	infsnz	memcpy@d^0,f,c
  5924   0043DE  2A09               	incf	(memcpy@d+1)^0,f,c
  5925   0043E0                     l5495:
  5926   0043E0  0605               	decf	memcpy@n^0,f,c
  5927   0043E2  A0D8               	btfss	status,0,c
  5928   0043E4  0606               	decf	(memcpy@n+1)^0,f,c
  5929   0043E6  2805               	incf	memcpy@n^0,w,c
  5930   0043E8  E106               	bnz	u6771
  5931   0043EA  2806               	incf	(memcpy@n+1)^0,w,c
  5932   0043EC  A4D8               	btfss	status,2,c
  5933   0043EE  EFFB  F021         	goto	u6771
  5934   0043F2  EFFD  F021         	goto	u6770
  5935   0043F6                     u6771:
  5936   0043F6  EFE0  F021         	goto	l5487
  5937   0043FA                     u6770:
  5938   0043FA  0012               	return		;funcret
  5939   0043FC                     __end_of_memcpy:
  5940                           	callstack 0
  5941                           
  5942 ;; *************** function _labs *****************
  5943 ;; Defined at:
  5944 ;;		line 1 in file "C:\Program Files\Microchip\xc8\v2.45\pic\sources\c99\common\labs.c"
  5945 ;; Parameters:    Size  Location     Type
  5946 ;;  a               4    0[COMRAM] long 
  5947 ;; Auto vars:     Size  Location     Type
  5948 ;;		None
  5949 ;; Return value:  Size  Location     Type
  5950 ;;                  4    0[COMRAM] long 
  5951 ;; Registers used:
  5952 ;;		wreg, status,2, status,0
  5953 ;; Tracked objects:
  5954 ;;		On entry : 0/0
  5955 ;;		On exit  : 0/0
  5956 ;;		Unchanged: 0/0
  5957 ;; Data sizes:     COMRAM   BANK0   BANK1   BANK2   BANK3   BANK4   BANK5   BANK6   BANK7
  5958 ;;      Params:         4       0       0       0       0       0       0       0       0
  5959 ;;      Locals:         0       0       0       0       0       0       0       0       0
  5960 ;;      Temps:          4       0       0       0       0       0       0       0       0
  5961 ;;      Totals:         8       0       0       0       0       0       0       0       0
  5962 ;;Total ram usage:        8 bytes
  5963 ;; Hardware stack levels used: 1
  5964 ;; This function calls:
  5965 ;;		Nothing
  5966 ;; This function is called by:
  5967 ;;		_efgtoa
  5968 ;; This function uses a non-reentrant model
  5969 ;;
  5970                           
  5971                           	psect	text16
  5972   004356                     __ptext16:
  5973                           	callstack 0
  5974   004356                     _labs:
  5975                           	callstack 25
  5976   004356  BE04               	btfsc	(labs@a+3)^0,7,c
  5977   004358  EFB0  F021         	goto	u6661
  5978   00435C  EFB2  F021         	goto	u6660
  5979   004360                     u6661:
  5980   004360  EFBC  F021         	goto	l5453
  5981   004364                     u6660:
  5982   004364  C001  F001         	movff	labs@a,?_labs
  5983   004368  C002  F002         	movff	labs@a+1,?_labs+1
  5984   00436C  C003  F003         	movff	labs@a+2,?_labs+2
  5985   004370  C004  F004         	movff	labs@a+3,?_labs+3
  5986   004374  EFD5  F021         	goto	l1082
  5987   004378                     l5453:
  5988   004378  C001  F005         	movff	labs@a,??_labs
  5989   00437C  C002  F006         	movff	labs@a+1,??_labs+1
  5990   004380  C003  F007         	movff	labs@a+2,??_labs+2
  5991   004384  C004  F008         	movff	labs@a+3,??_labs+3
  5992   004388  1E05               	comf	??_labs^0,f,c
  5993   00438A  1E06               	comf	(??_labs+1)^0,f,c
  5994   00438C  1E07               	comf	(??_labs+2)^0,f,c
  5995   00438E  1E08               	comf	(??_labs+3)^0,f,c
  5996   004390  2A05               	incf	??_labs^0,f,c
  5997   004392  0E00               	movlw	0
  5998   004394  2206               	addwfc	(??_labs+1)^0,f,c
  5999   004396  2207               	addwfc	(??_labs+2)^0,f,c
  6000   004398  2208               	addwfc	(??_labs+3)^0,f,c
  6001   00439A  C005  F001         	movff	??_labs,?_labs
  6002   00439E  C006  F002         	movff	??_labs+1,?_labs+1
  6003   0043A2  C007  F003         	movff	??_labs+2,?_labs+2
  6004   0043A6  C008  F004         	movff	??_labs+3,?_labs+3
  6005   0043AA                     l1082:
  6006   0043AA  0012               	return		;funcret
  6007   0043AC                     __end_of_labs:
  6008                           	callstack 0
  6009                           
  6010 ;; *************** function _floorf *****************
  6011 ;; Defined at:
  6012 ;;		line 3 in file "C:\Program Files\Microchip\xc8\v2.45\pic\sources\c99\common\floorf.c"
  6013 ;; Parameters:    Size  Location     Type
  6014 ;;  x               4   39[COMRAM] float 
  6015 ;; Auto vars:     Size  Location     Type
  6016 ;;  u               4   55[COMRAM] struct .
  6017 ;;  m               4   49[COMRAM] unsigned long 
  6018 ;;  e               2   53[COMRAM] int 
  6019 ;; Return value:  Size  Location     Type
  6020 ;;                  4   39[COMRAM] float 
  6021 ;; Registers used:
  6022 ;;		wreg, status,2, status,0
  6023 ;; Tracked objects:
  6024 ;;		On entry : 0/0
  6025 ;;		On exit  : 0/0
  6026 ;;		Unchanged: 0/0
  6027 ;; Data sizes:     COMRAM   BANK0   BANK1   BANK2   BANK3   BANK4   BANK5   BANK6   BANK7
  6028 ;;      Params:         4       0       0       0       0       0       0       0       0
  6029 ;;      Locals:        10       0       0       0       0       0       0       0       0
  6030 ;;      Temps:          6       0       0       0       0       0       0       0       0
  6031 ;;      Totals:        20       0       0       0       0       0       0       0       0
  6032 ;;Total ram usage:       20 bytes
  6033 ;; Hardware stack levels used: 1
  6034 ;; This function calls:
  6035 ;;		Nothing
  6036 ;; This function is called by:
  6037 ;;		_efgtoa
  6038 ;; This function uses a non-reentrant model
  6039 ;;
  6040                           
  6041                           	psect	text17
  6042   00315E                     __ptext17:
  6043                           	callstack 0
  6044   00315E                     _floorf:
  6045                           	callstack 25
  6046   00315E  C100  F038         	movff	floorf@F521,floorf@u
  6047   003162  C101  F039         	movff	floorf@F521+1,floorf@u+1
  6048   003166  C102  F03A         	movff	floorf@F521+2,floorf@u+2
  6049   00316A  C103  F03B         	movff	floorf@F521+3,floorf@u+3
  6050   00316E  C028  F038         	movff	floorf@x,floorf@u
  6051   003172  C029  F039         	movff	floorf@x+1,floorf@u+1
  6052   003176  C02A  F03A         	movff	floorf@x+2,floorf@u+2
  6053   00317A  C02B  F03B         	movff	floorf@x+3,floorf@u+3
  6054   00317E  0E81               	movlw	129
  6055   003180  6E2C               	movwf	??_floorf^0,c
  6056   003182  0EFF               	movlw	255
  6057   003184  6E2D               	movwf	(??_floorf+1)^0,c
  6058   003186  C038  F02E         	movff	floorf@u,??_floorf+2
  6059   00318A  C039  F02F         	movff	floorf@u+1,??_floorf+3
  6060   00318E  C03A  F030         	movff	floorf@u+2,??_floorf+4
  6061   003192  C03B  F031         	movff	floorf@u+3,??_floorf+5
  6062   003196  0E18               	movlw	24
  6063   003198  EFD3  F018         	goto	u6670
  6064   00319C                     u6675:
  6065   00319C  90D8               	bcf	status,0,c
  6066   00319E  3231               	rrcf	(??_floorf+5)^0,f,c
  6067   0031A0  3230               	rrcf	(??_floorf+4)^0,f,c
  6068   0031A2  322F               	rrcf	(??_floorf+3)^0,f,c
  6069   0031A4  322E               	rrcf	(??_floorf+2)^0,f,c
  6070   0031A6                     u6670:
  6071   0031A6  2EE8               	decfsz	wreg,f,c
  6072   0031A8  EFCE  F018         	goto	u6675
  6073   0031AC  502E               	movf	(??_floorf+2)^0,w,c
  6074   0031AE  242C               	addwf	??_floorf^0,w,c
  6075   0031B0  6E36               	movwf	floorf@e^0,c
  6076   0031B2  0E00               	movlw	0
  6077   0031B4  202D               	addwfc	(??_floorf+1)^0,w,c
  6078   0031B6  6E37               	movwf	(floorf@e+1)^0,c
  6079   0031B8  BE37               	btfsc	(floorf@e+1)^0,7,c
  6080   0031BA  EFE8  F018         	goto	u6681
  6081   0031BE  5037               	movf	(floorf@e+1)^0,w,c
  6082   0031C0  E109               	bnz	u6680
  6083   0031C2  0E17               	movlw	23
  6084   0031C4  5C36               	subwf	floorf@e^0,w,c
  6085   0031C6  A0D8               	btfss	status,0,c
  6086   0031C8  EFE8  F018         	goto	u6681
  6087   0031CC  EFEA  F018         	goto	u6680
  6088   0031D0                     u6681:
  6089   0031D0  EFF4  F018         	goto	l5463
  6090   0031D4                     u6680:
  6091   0031D4                     l5461:
  6092   0031D4  C028  F028         	movff	floorf@x,?_floorf
  6093   0031D8  C029  F029         	movff	floorf@x+1,?_floorf+1
  6094   0031DC  C02A  F02A         	movff	floorf@x+2,?_floorf+2
  6095   0031E0  C02B  F02B         	movff	floorf@x+3,?_floorf+3
  6096   0031E4  EFB7  F019         	goto	l1068
  6097   0031E8                     l5463:
  6098   0031E8  BE37               	btfsc	(floorf@e+1)^0,7,c
  6099   0031EA  EFF9  F018         	goto	u6691
  6100   0031EE  EFFB  F018         	goto	u6690
  6101   0031F2                     u6691:
  6102   0031F2  EF6B  F019         	goto	l5473
  6103   0031F6                     u6690:
  6104   0031F6  C036  F02C         	movff	floorf@e,??_floorf
  6105   0031FA  0EFF               	movlw	255
  6106   0031FC  6E2D               	movwf	(??_floorf+1)^0,c
  6107   0031FE  0EFF               	movlw	255
  6108   003200  6E2E               	movwf	(??_floorf+2)^0,c
  6109   003202  0E7F               	movlw	127
  6110   003204  6E2F               	movwf	(??_floorf+3)^0,c
  6111   003206  0E00               	movlw	0
  6112   003208  6E30               	movwf	(??_floorf+4)^0,c
  6113   00320A                     u6705:
  6114   00320A  662C               	tstfsz	??_floorf^0,c
  6115   00320C  EF0A  F019         	goto	u6706
  6116   003210  EF12  F019         	goto	u6707
  6117   003214                     u6706:
  6118   003214  3430               	rlcf	(??_floorf+4)^0,w,c
  6119   003216  3230               	rrcf	(??_floorf+4)^0,f,c
  6120   003218  322F               	rrcf	(??_floorf+3)^0,f,c
  6121   00321A  322E               	rrcf	(??_floorf+2)^0,f,c
  6122   00321C  322D               	rrcf	(??_floorf+1)^0,f,c
  6123   00321E  2E2C               	decfsz	??_floorf^0,f,c
  6124   003220  EF05  F019         	goto	u6705
  6125   003224                     u6707:
  6126   003224  C02D  F032         	movff	??_floorf+1,floorf@m
  6127   003228  C02E  F033         	movff	??_floorf+2,floorf@m+1
  6128   00322C  C02F  F034         	movff	??_floorf+3,floorf@m+2
  6129   003230  C030  F035         	movff	??_floorf+4,floorf@m+3
  6130   003234  5032               	movf	floorf@m^0,w,c
  6131   003236  1438               	andwf	floorf@u^0,w,c
  6132   003238  6E2C               	movwf	??_floorf^0,c
  6133   00323A  5033               	movf	(floorf@m+1)^0,w,c
  6134   00323C  1439               	andwf	(floorf@u+1)^0,w,c
  6135   00323E  6E2D               	movwf	(??_floorf+1)^0,c
  6136   003240  5034               	movf	(floorf@m+2)^0,w,c
  6137   003242  143A               	andwf	(floorf@u+2)^0,w,c
  6138   003244  6E2E               	movwf	(??_floorf+2)^0,c
  6139   003246  5035               	movf	(floorf@m+3)^0,w,c
  6140   003248  143B               	andwf	(floorf@u+3)^0,w,c
  6141   00324A  6E2F               	movwf	(??_floorf+3)^0,c
  6142   00324C  502C               	movf	??_floorf^0,w,c
  6143   00324E  102D               	iorwf	(??_floorf+1)^0,w,c
  6144   003250  102E               	iorwf	(??_floorf+2)^0,w,c
  6145   003252  102F               	iorwf	(??_floorf+3)^0,w,c
  6146   003254  A4D8               	btfss	status,2,c
  6147   003256  EF2F  F019         	goto	u6711
  6148   00325A  EF31  F019         	goto	u6710
  6149   00325E                     u6711:
  6150   00325E  EF33  F019         	goto	l5469
  6151   003262                     u6710:
  6152   003262  EFEA  F018         	goto	l5461
  6153   003266                     l5469:
  6154   003266  C038  F02C         	movff	floorf@u,??_floorf
  6155   00326A  C039  F02D         	movff	floorf@u+1,??_floorf+1
  6156   00326E  C03A  F02E         	movff	floorf@u+2,??_floorf+2
  6157   003272  C03B  F02F         	movff	floorf@u+3,??_floorf+3
  6158   003276  0E20               	movlw	32
  6159   003278  EF43  F019         	goto	u6720
  6160   00327C                     u6725:
  6161   00327C  90D8               	bcf	status,0,c
  6162   00327E  322F               	rrcf	(??_floorf+3)^0,f,c
  6163   003280  322E               	rrcf	(??_floorf+2)^0,f,c
  6164   003282  322D               	rrcf	(??_floorf+1)^0,f,c
  6165   003284  322C               	rrcf	??_floorf^0,f,c
  6166   003286                     u6720:
  6167   003286  2EE8               	decfsz	wreg,f,c
  6168   003288  EF3E  F019         	goto	u6725
  6169   00328C  502C               	movf	??_floorf^0,w,c
  6170   00328E  102D               	iorwf	(??_floorf+1)^0,w,c
  6171   003290  102E               	iorwf	(??_floorf+2)^0,w,c
  6172   003292  102F               	iorwf	(??_floorf+3)^0,w,c
  6173   003294  B4D8               	btfsc	status,2,c
  6174   003296  EF4F  F019         	goto	u6731
  6175   00329A  EF51  F019         	goto	u6730
  6176   00329E                     u6731:
  6177   00329E  EF59  F019         	goto	l1071
  6178   0032A2                     u6730:
  6179   0032A2  5032               	movf	floorf@m^0,w,c
  6180   0032A4  2638               	addwf	floorf@u^0,f,c
  6181   0032A6  5033               	movf	(floorf@m+1)^0,w,c
  6182   0032A8  2239               	addwfc	(floorf@u+1)^0,f,c
  6183   0032AA  5034               	movf	(floorf@m+2)^0,w,c
  6184   0032AC  223A               	addwfc	(floorf@u+2)^0,f,c
  6185   0032AE  5035               	movf	(floorf@m+3)^0,w,c
  6186   0032B0  223B               	addwfc	(floorf@u+3)^0,f,c
  6187   0032B2                     l1071:
  6188   0032B2  1C32               	comf	floorf@m^0,w,c
  6189   0032B4  6E2C               	movwf	??_floorf^0,c
  6190   0032B6  1C33               	comf	(floorf@m+1)^0,w,c
  6191   0032B8  6E2D               	movwf	(??_floorf+1)^0,c
  6192   0032BA  1C34               	comf	(floorf@m+2)^0,w,c
  6193   0032BC  6E2E               	movwf	(??_floorf+2)^0,c
  6194   0032BE  1C35               	comf	(floorf@m+3)^0,w,c
  6195   0032C0  6E2F               	movwf	(??_floorf+3)^0,c
  6196   0032C2  502C               	movf	??_floorf^0,w,c
  6197   0032C4  1638               	andwf	floorf@u^0,f,c
  6198   0032C6  502D               	movf	(??_floorf+1)^0,w,c
  6199   0032C8  1639               	andwf	(floorf@u+1)^0,f,c
  6200   0032CA  502E               	movf	(??_floorf+2)^0,w,c
  6201   0032CC  163A               	andwf	(floorf@u+2)^0,f,c
  6202   0032CE  502F               	movf	(??_floorf+3)^0,w,c
  6203   0032D0  163B               	andwf	(floorf@u+3)^0,f,c
  6204   0032D2  EFAF  F019         	goto	l5481
  6205   0032D6                     l5473:
  6206   0032D6  C038  F02C         	movff	floorf@u,??_floorf
  6207   0032DA  C039  F02D         	movff	floorf@u+1,??_floorf+1
  6208   0032DE  C03A  F02E         	movff	floorf@u+2,??_floorf+2
  6209   0032E2  C03B  F02F         	movff	floorf@u+3,??_floorf+3
  6210   0032E6  0E20               	movlw	32
  6211   0032E8  EF7B  F019         	goto	u6740
  6212   0032EC                     u6745:
  6213   0032EC  90D8               	bcf	status,0,c
  6214   0032EE  322F               	rrcf	(??_floorf+3)^0,f,c
  6215   0032F0  322E               	rrcf	(??_floorf+2)^0,f,c
  6216   0032F2  322D               	rrcf	(??_floorf+1)^0,f,c
  6217   0032F4  322C               	rrcf	??_floorf^0,f,c
  6218   0032F6                     u6740:
  6219   0032F6  2EE8               	decfsz	wreg,f,c
  6220   0032F8  EF76  F019         	goto	u6745
  6221   0032FC  502C               	movf	??_floorf^0,w,c
  6222   0032FE  102D               	iorwf	(??_floorf+1)^0,w,c
  6223   003300  102E               	iorwf	(??_floorf+2)^0,w,c
  6224   003302  102F               	iorwf	(??_floorf+3)^0,w,c
  6225   003304  A4D8               	btfss	status,2,c
  6226   003306  EF87  F019         	goto	u6751
  6227   00330A  EF89  F019         	goto	u6750
  6228   00330E                     u6751:
  6229   00330E  EF93  F019         	goto	l5477
  6230   003312                     u6750:
  6231   003312  0E00               	movlw	0
  6232   003314  6E38               	movwf	floorf@u^0,c
  6233   003316  0E00               	movlw	0
  6234   003318  6E39               	movwf	(floorf@u+1)^0,c
  6235   00331A  0E00               	movlw	0
  6236   00331C  6E3A               	movwf	(floorf@u+2)^0,c
  6237   00331E  0E00               	movlw	0
  6238   003320  6E3B               	movwf	(floorf@u+3)^0,c
  6239   003322  EFAF  F019         	goto	l5481
  6240   003326                     l5477:
  6241   003326  90D8               	bcf	status,0,c
  6242   003328  3438               	rlcf	floorf@u^0,w,c
  6243   00332A  6E2C               	movwf	??_floorf^0,c
  6244   00332C  3439               	rlcf	(floorf@u+1)^0,w,c
  6245   00332E  6E2D               	movwf	(??_floorf+1)^0,c
  6246   003330  343A               	rlcf	(floorf@u+2)^0,w,c
  6247   003332  6E2E               	movwf	(??_floorf+2)^0,c
  6248   003334  343B               	rlcf	(floorf@u+3)^0,w,c
  6249   003336  6E2F               	movwf	(??_floorf+3)^0,c
  6250   003338  502C               	movf	??_floorf^0,w,c
  6251   00333A  102D               	iorwf	(??_floorf+1)^0,w,c
  6252   00333C  102E               	iorwf	(??_floorf+2)^0,w,c
  6253   00333E  102F               	iorwf	(??_floorf+3)^0,w,c
  6254   003340  B4D8               	btfsc	status,2,c
  6255   003342  EFA5  F019         	goto	u6761
  6256   003346  EFA7  F019         	goto	u6760
  6257   00334A                     u6761:
  6258   00334A  EFAF  F019         	goto	l5481
  6259   00334E                     u6760:
  6260   00334E  0E00               	movlw	0
  6261   003350  6E38               	movwf	floorf@u^0,c
  6262   003352  0E00               	movlw	0
  6263   003354  6E39               	movwf	(floorf@u+1)^0,c
  6264   003356  0E80               	movlw	128
  6265   003358  6E3A               	movwf	(floorf@u+2)^0,c
  6266   00335A  0EBF               	movlw	191
  6267   00335C  6E3B               	movwf	(floorf@u+3)^0,c
  6268   00335E                     l5481:
  6269   00335E  C038  F028         	movff	floorf@u,?_floorf
  6270   003362  C039  F029         	movff	floorf@u+1,?_floorf+1
  6271   003366  C03A  F02A         	movff	floorf@u+2,?_floorf+2
  6272   00336A  C03B  F02B         	movff	floorf@u+3,?_floorf+3
  6273   00336E                     l1068:
  6274   00336E  0012               	return		;funcret
  6275   003370                     __end_of_floorf:
  6276                           	callstack 0
  6277                           
  6278 ;; *************** function ___fpclassifyf *****************
  6279 ;; Defined at:
  6280 ;;		line 4 in file "C:\Program Files\Microchip\xc8\v2.45\pic\sources\c99\common\__fpclassifyf.c"
  6281 ;; Parameters:    Size  Location     Type
  6282 ;;  x               4    0[COMRAM] float 
  6283 ;; Auto vars:     Size  Location     Type
  6284 ;;  u               4   10[COMRAM] struct .
  6285 ;;  e               2    8[COMRAM] int 
  6286 ;; Return value:  Size  Location     Type
  6287 ;;                  2    0[COMRAM] int 
  6288 ;; Registers used:
  6289 ;;		wreg, status,2, status,0
  6290 ;; Tracked objects:
  6291 ;;		On entry : 0/0
  6292 ;;		On exit  : 0/0
  6293 ;;		Unchanged: 0/0
  6294 ;; Data sizes:     COMRAM   BANK0   BANK1   BANK2   BANK3   BANK4   BANK5   BANK6   BANK7
  6295 ;;      Params:         4       0       0       0       0       0       0       0       0
  6296 ;;      Locals:         6       0       0       0       0       0       0       0       0
  6297 ;;      Temps:          4       0       0       0       0       0       0       0       0
  6298 ;;      Totals:        14       0       0       0       0       0       0       0       0
  6299 ;;Total ram usage:       14 bytes
  6300 ;; Hardware stack levels used: 1
  6301 ;; This function calls:
  6302 ;;		Nothing
  6303 ;; This function is called by:
  6304 ;;		_efgtoa
  6305 ;; This function uses a non-reentrant model
  6306 ;;
  6307                           
  6308                           	psect	text18
  6309   003DD4                     __ptext18:
  6310                           	callstack 0
  6311   003DD4                     ___fpclassifyf:
  6312                           	callstack 25
  6313   003DD4  C104  F00B         	movff	___fpclassifyf@F465,___fpclassifyf@u
  6314   003DD8  C105  F00C         	movff	___fpclassifyf@F465+1,___fpclassifyf@u+1
  6315   003DDC  C106  F00D         	movff	___fpclassifyf@F465+2,___fpclassifyf@u+2
  6316   003DE0  C107  F00E         	movff	___fpclassifyf@F465+3,___fpclassifyf@u+3
  6317   003DE4  C001  F00B         	movff	___fpclassifyf@x,___fpclassifyf@u
  6318   003DE8  C002  F00C         	movff	___fpclassifyf@x+1,___fpclassifyf@u+1
  6319   003DEC  C003  F00D         	movff	___fpclassifyf@x+2,___fpclassifyf@u+2
  6320   003DF0  C004  F00E         	movff	___fpclassifyf@x+3,___fpclassifyf@u+3
  6321   003DF4  C00B  F005         	movff	___fpclassifyf@u,??___fpclassifyf
  6322   003DF8  C00C  F006         	movff	___fpclassifyf@u+1,??___fpclassifyf+1
  6323   003DFC  C00D  F007         	movff	___fpclassifyf@u+2,??___fpclassifyf+2
  6324   003E00  C00E  F008         	movff	___fpclassifyf@u+3,??___fpclassifyf+3
  6325   003E04  0E18               	movlw	24
  6326   003E06  EF0A  F01F         	goto	u6580
  6327   003E0A                     u6585:
  6328   003E0A  90D8               	bcf	status,0,c
  6329   003E0C  3208               	rrcf	(??___fpclassifyf+3)^0,f,c
  6330   003E0E  3207               	rrcf	(??___fpclassifyf+2)^0,f,c
  6331   003E10  3206               	rrcf	(??___fpclassifyf+1)^0,f,c
  6332   003E12  3205               	rrcf	??___fpclassifyf^0,f,c
  6333   003E14                     u6580:
  6334   003E14  2EE8               	decfsz	wreg,f,c
  6335   003E16  EF05  F01F         	goto	u6585
  6336   003E1A  5005               	movf	??___fpclassifyf^0,w,c
  6337   003E1C  6E09               	movwf	___fpclassifyf@e^0,c
  6338   003E1E  6A0A               	clrf	(___fpclassifyf@e+1)^0,c
  6339   003E20  5009               	movf	___fpclassifyf@e^0,w,c
  6340   003E22  100A               	iorwf	(___fpclassifyf@e+1)^0,w,c
  6341   003E24  A4D8               	btfss	status,2,c
  6342   003E26  EF17  F01F         	goto	u6591
  6343   003E2A  EF19  F01F         	goto	u6590
  6344   003E2E                     u6591:
  6345   003E2E  EF39  F01F         	goto	l5435
  6346   003E32                     u6590:
  6347   003E32  90D8               	bcf	status,0,c
  6348   003E34  340B               	rlcf	___fpclassifyf@u^0,w,c
  6349   003E36  6E05               	movwf	??___fpclassifyf^0,c
  6350   003E38  340C               	rlcf	(___fpclassifyf@u+1)^0,w,c
  6351   003E3A  6E06               	movwf	(??___fpclassifyf+1)^0,c
  6352   003E3C  340D               	rlcf	(___fpclassifyf@u+2)^0,w,c
  6353   003E3E  6E07               	movwf	(??___fpclassifyf+2)^0,c
  6354   003E40  340E               	rlcf	(___fpclassifyf@u+3)^0,w,c
  6355   003E42  6E08               	movwf	(??___fpclassifyf+3)^0,c
  6356   003E44  5005               	movf	??___fpclassifyf^0,w,c
  6357   003E46  1006               	iorwf	(??___fpclassifyf+1)^0,w,c
  6358   003E48  1007               	iorwf	(??___fpclassifyf+2)^0,w,c
  6359   003E4A  1008               	iorwf	(??___fpclassifyf+3)^0,w,c
  6360   003E4C  A4D8               	btfss	status,2,c
  6361   003E4E  EF2B  F01F         	goto	u6601
  6362   003E52  EF2D  F01F         	goto	u6600
  6363   003E56                     u6601:
  6364   003E56  EF33  F01F         	goto	l5431
  6365   003E5A                     u6600:
  6366   003E5A  0E00               	movlw	0
  6367   003E5C  6E02               	movwf	(?___fpclassifyf+1)^0,c
  6368   003E5E  0E02               	movlw	2
  6369   003E60  6E01               	movwf	?___fpclassifyf^0,c
  6370   003E62  EF68  F01F         	goto	l1054
  6371   003E66                     l5431:
  6372   003E66  0E00               	movlw	0
  6373   003E68  6E02               	movwf	(?___fpclassifyf+1)^0,c
  6374   003E6A  0E03               	movlw	3
  6375   003E6C  6E01               	movwf	?___fpclassifyf^0,c
  6376   003E6E  EF68  F01F         	goto	l1054
  6377   003E72                     l5435:
  6378   003E72  2809               	incf	___fpclassifyf@e^0,w,c
  6379   003E74  100A               	iorwf	(___fpclassifyf@e+1)^0,w,c
  6380   003E76  A4D8               	btfss	status,2,c
  6381   003E78  EF40  F01F         	goto	u6611
  6382   003E7C  EF42  F01F         	goto	u6610
  6383   003E80                     u6611:
  6384   003E80  EF64  F01F         	goto	l5441
  6385   003E84                     u6610:
  6386   003E84  C00B  F005         	movff	___fpclassifyf@u,??___fpclassifyf
  6387   003E88  C00C  F006         	movff	___fpclassifyf@u+1,??___fpclassifyf+1
  6388   003E8C  C00D  F007         	movff	___fpclassifyf@u+2,??___fpclassifyf+2
  6389   003E90  C00E  F008         	movff	___fpclassifyf@u+3,??___fpclassifyf+3
  6390   003E94  0E09               	movlw	9
  6391   003E96                     u6625:
  6392   003E96  90D8               	bcf	status,0,c
  6393   003E98  3605               	rlcf	??___fpclassifyf^0,f,c
  6394   003E9A  3606               	rlcf	(??___fpclassifyf+1)^0,f,c
  6395   003E9C  3607               	rlcf	(??___fpclassifyf+2)^0,f,c
  6396   003E9E  3608               	rlcf	(??___fpclassifyf+3)^0,f,c
  6397   003EA0  2EE8               	decfsz	wreg,f,c
  6398   003EA2  EF4B  F01F         	goto	u6625
  6399   003EA6  5005               	movf	??___fpclassifyf^0,w,c
  6400   003EA8  1006               	iorwf	(??___fpclassifyf+1)^0,w,c
  6401   003EAA  1007               	iorwf	(??___fpclassifyf+2)^0,w,c
  6402   003EAC  1008               	iorwf	(??___fpclassifyf+3)^0,w,c
  6403   003EAE  B4D8               	btfsc	status,2,c
  6404   003EB0  EF5C  F01F         	goto	u6631
  6405   003EB4  EF5F  F01F         	goto	u6630
  6406   003EB8                     u6631:
  6407   003EB8  0E01               	movlw	1
  6408   003EBA  EF60  F01F         	goto	u6640
  6409   003EBE                     u6630:
  6410   003EBE  0E00               	movlw	0
  6411   003EC0                     u6640:
  6412   003EC0  6E01               	movwf	?___fpclassifyf^0,c
  6413   003EC2  6A02               	clrf	(?___fpclassifyf+1)^0,c
  6414   003EC4  EF68  F01F         	goto	l1054
  6415   003EC8                     l5441:
  6416   003EC8  0E00               	movlw	0
  6417   003ECA  6E02               	movwf	(?___fpclassifyf+1)^0,c
  6418   003ECC  0E04               	movlw	4
  6419   003ECE  6E01               	movwf	?___fpclassifyf^0,c
  6420   003ED0                     l1054:
  6421   003ED0  0012               	return		;funcret
  6422   003ED2                     __end_of___fpclassifyf:
  6423                           	callstack 0
  6424                           
  6425 ;; *************** function ___fltol *****************
  6426 ;; Defined at:
  6427 ;;		line 43 in file "C:\Program Files\Microchip\xc8\v2.45\pic\sources\c99\common\fltol.c"
  6428 ;; Parameters:    Size  Location     Type
  6429 ;;  f1              4   80[COMRAM] int 
  6430 ;; Auto vars:     Size  Location     Type
  6431 ;;  exp1            1   89[COMRAM] unsigned char 
  6432 ;;  sign1           1   88[COMRAM] unsigned char 
  6433 ;; Return value:  Size  Location     Type
  6434 ;;                  4   80[COMRAM] long 
  6435 ;; Registers used:
  6436 ;;		wreg, status,2, status,0
  6437 ;; Tracked objects:
  6438 ;;		On entry : 0/0
  6439 ;;		On exit  : 0/0
  6440 ;;		Unchanged: 0/0
  6441 ;; Data sizes:     COMRAM   BANK0   BANK1   BANK2   BANK3   BANK4   BANK5   BANK6   BANK7
  6442 ;;      Params:         4       0       0       0       0       0       0       0       0
  6443 ;;      Locals:         2       0       0       0       0       0       0       0       0
  6444 ;;      Temps:          4       0       0       0       0       0       0       0       0
  6445 ;;      Totals:        10       0       0       0       0       0       0       0       0
  6446 ;;Total ram usage:       10 bytes
  6447 ;; Hardware stack levels used: 1
  6448 ;; This function calls:
  6449 ;;		Nothing
  6450 ;; This function is called by:
  6451 ;;		___rem_pio2f
  6452 ;;		_efgtoa
  6453 ;; This function uses a non-reentrant model
  6454 ;;
  6455                           
  6456                           	psect	text19
  6457   003BC8                     __ptext19:
  6458                           	callstack 0
  6459   003BC8                     ___fltol:
  6460                           	callstack 28
  6461   003BC8  3453               	rlcf	(___fltol@f1+2)^0,w,c
  6462   003BCA  3454               	rlcf	(___fltol@f1+3)^0,w,c
  6463   003BCC  6E5A               	movwf	___fltol@exp1^0,c
  6464   003BCE  505A               	movf	___fltol@exp1^0,w,c
  6465   003BD0  A4D8               	btfss	status,2,c
  6466   003BD2  EFED  F01D         	goto	u6481
  6467   003BD6  EFEF  F01D         	goto	u6480
  6468   003BDA                     u6481:
  6469   003BDA  EFF9  F01D         	goto	l5369
  6470   003BDE                     u6480:
  6471   003BDE                     l5365:
  6472   003BDE  0E00               	movlw	0
  6473   003BE0  6E51               	movwf	?___fltol^0,c
  6474   003BE2  0E00               	movlw	0
  6475   003BE4  6E52               	movwf	(?___fltol+1)^0,c
  6476   003BE6  0E00               	movlw	0
  6477   003BE8  6E53               	movwf	(?___fltol+2)^0,c
  6478   003BEA  0E00               	movlw	0
  6479   003BEC  6E54               	movwf	(?___fltol+3)^0,c
  6480   003BEE  EF66  F01E         	goto	l417
  6481   003BF2                     l5369:
  6482   003BF2  C051  F055         	movff	___fltol@f1,??___fltol
  6483   003BF6  C052  F056         	movff	___fltol@f1+1,??___fltol+1
  6484   003BFA  C053  F057         	movff	___fltol@f1+2,??___fltol+2
  6485   003BFE  C054  F058         	movff	___fltol@f1+3,??___fltol+3
  6486   003C02  0E20               	movlw	32
  6487   003C04  EF09  F01E         	goto	u6490
  6488   003C08                     u6495:
  6489   003C08  90D8               	bcf	status,0,c
  6490   003C0A  3258               	rrcf	(??___fltol+3)^0,f,c
  6491   003C0C  3257               	rrcf	(??___fltol+2)^0,f,c
  6492   003C0E  3256               	rrcf	(??___fltol+1)^0,f,c
  6493   003C10  3255               	rrcf	??___fltol^0,f,c
  6494   003C12                     u6490:
  6495   003C12  2EE8               	decfsz	wreg,f,c
  6496   003C14  EF04  F01E         	goto	u6495
  6497   003C18  5055               	movf	??___fltol^0,w,c
  6498   003C1A  6E59               	movwf	___fltol@sign1^0,c
  6499   003C1C  8E53               	bsf	(___fltol@f1+2)^0,7,c
  6500   003C1E  0EFF               	movlw	255
  6501   003C20  1651               	andwf	___fltol@f1^0,f,c
  6502   003C22  0EFF               	movlw	255
  6503   003C24  1652               	andwf	(___fltol@f1+1)^0,f,c
  6504   003C26  0EFF               	movlw	255
  6505   003C28  1653               	andwf	(___fltol@f1+2)^0,f,c
  6506   003C2A  0E00               	movlw	0
  6507   003C2C  1654               	andwf	(___fltol@f1+3)^0,f,c
  6508   003C2E  0E96               	movlw	150
  6509   003C30  5E5A               	subwf	___fltol@exp1^0,f,c
  6510   003C32  BE5A               	btfsc	___fltol@exp1^0,7,c
  6511   003C34  EF20  F01E         	goto	u6500
  6512   003C38  EF1E  F01E         	goto	u6501
  6513   003C3C                     u6501:
  6514   003C3C  EF36  F01E         	goto	l5389
  6515   003C40                     u6500:
  6516   003C40  505A               	movf	___fltol@exp1^0,w,c
  6517   003C42  0A80               	xorlw	128
  6518   003C44  0F97               	addlw	151
  6519   003C46  B0D8               	btfsc	status,0,c
  6520   003C48  EF28  F01E         	goto	u6511
  6521   003C4C  EF2A  F01E         	goto	u6510
  6522   003C50                     u6511:
  6523   003C50  EF2C  F01E         	goto	l5385
  6524   003C54                     u6510:
  6525   003C54  EFEF  F01D         	goto	l5365
  6526   003C58                     l5385:
  6527   003C58  90D8               	bcf	status,0,c
  6528   003C5A  3254               	rrcf	(___fltol@f1+3)^0,f,c
  6529   003C5C  3253               	rrcf	(___fltol@f1+2)^0,f,c
  6530   003C5E  3252               	rrcf	(___fltol@f1+1)^0,f,c
  6531   003C60  3251               	rrcf	___fltol@f1^0,f,c
  6532   003C62  3E5A               	incfsz	___fltol@exp1^0,f,c
  6533   003C64  EF2C  F01E         	goto	l5385
  6534   003C68  EF4E  F01E         	goto	l5399
  6535   003C6C                     l5389:
  6536   003C6C  0E1F               	movlw	31
  6537   003C6E  645A               	cpfsgt	___fltol@exp1^0,c
  6538   003C70  EF3C  F01E         	goto	u6521
  6539   003C74  EF3E  F01E         	goto	u6520
  6540   003C78                     u6521:
  6541   003C78  EF46  F01E         	goto	l5397
  6542   003C7C                     u6520:
  6543   003C7C  EFEF  F01D         	goto	l5365
  6544   003C80                     l5395:
  6545   003C80  90D8               	bcf	status,0,c
  6546   003C82  3651               	rlcf	___fltol@f1^0,f,c
  6547   003C84  3652               	rlcf	(___fltol@f1+1)^0,f,c
  6548   003C86  3653               	rlcf	(___fltol@f1+2)^0,f,c
  6549   003C88  3654               	rlcf	(___fltol@f1+3)^0,f,c
  6550   003C8A  065A               	decf	___fltol@exp1^0,f,c
  6551   003C8C                     l5397:
  6552   003C8C  505A               	movf	___fltol@exp1^0,w,c
  6553   003C8E  A4D8               	btfss	status,2,c
  6554   003C90  EF4C  F01E         	goto	u6531
  6555   003C94  EF4E  F01E         	goto	u6530
  6556   003C98                     u6531:
  6557   003C98  EF40  F01E         	goto	l5395
  6558   003C9C                     u6530:
  6559   003C9C                     l5399:
  6560   003C9C  5059               	movf	___fltol@sign1^0,w,c
  6561   003C9E  B4D8               	btfsc	status,2,c
  6562   003CA0  EF54  F01E         	goto	u6541
  6563   003CA4  EF56  F01E         	goto	u6540
  6564   003CA8                     u6541:
  6565   003CA8  EF5E  F01E         	goto	l5403
  6566   003CAC                     u6540:
  6567   003CAC  1E54               	comf	(___fltol@f1+3)^0,f,c
  6568   003CAE  1E53               	comf	(___fltol@f1+2)^0,f,c
  6569   003CB0  1E52               	comf	(___fltol@f1+1)^0,f,c
  6570   003CB2  6C51               	negf	___fltol@f1^0,c
  6571   003CB4  0E00               	movlw	0
  6572   003CB6  2252               	addwfc	(___fltol@f1+1)^0,f,c
  6573   003CB8  2253               	addwfc	(___fltol@f1+2)^0,f,c
  6574   003CBA  2254               	addwfc	(___fltol@f1+3)^0,f,c
  6575   003CBC                     l5403:
  6576   003CBC  C051  F051         	movff	___fltol@f1,?___fltol
  6577   003CC0  C052  F052         	movff	___fltol@f1+1,?___fltol+1
  6578   003CC4  C053  F053         	movff	___fltol@f1+2,?___fltol+2
  6579   003CC8  C054  F054         	movff	___fltol@f1+3,?___fltol+3
  6580   003CCC                     l417:
  6581   003CCC  0012               	return		;funcret
  6582   003CCE                     __end_of___fltol:
  6583                           	callstack 0
  6584                           
  6585 ;; *************** function ___flsub *****************
  6586 ;; Defined at:
  6587 ;;		line 245 in file "C:\Program Files\Microchip\xc8\v2.45\pic\sources\c99\common\sprcadd.c"
  6588 ;; Parameters:    Size  Location     Type
  6589 ;;  b               4   80[COMRAM] long 
  6590 ;;  a               4   84[COMRAM] long 
  6591 ;; Auto vars:     Size  Location     Type
  6592 ;;		None
  6593 ;; Return value:  Size  Location     Type
  6594 ;;                  4   80[COMRAM] long 
  6595 ;; Registers used:
  6596 ;;		wreg, status,2, status,0, cstack
  6597 ;; Tracked objects:
  6598 ;;		On entry : 0/0
  6599 ;;		On exit  : 0/0
  6600 ;;		Unchanged: 0/0
  6601 ;; Data sizes:     COMRAM   BANK0   BANK1   BANK2   BANK3   BANK4   BANK5   BANK6   BANK7
  6602 ;;      Params:         8       0       0       0       0       0       0       0       0
  6603 ;;      Locals:         0       0       0       0       0       0       0       0       0
  6604 ;;      Temps:          0       0       0       0       0       0       0       0       0
  6605 ;;      Totals:         8       0       0       0       0       0       0       0       0
  6606 ;;Total ram usage:        8 bytes
  6607 ;; Hardware stack levels used: 1
  6608 ;; Hardware stack levels required when called: 1
  6609 ;; This function calls:
  6610 ;;		___fladd
  6611 ;; This function is called by:
  6612 ;;		_main
  6613 ;;		_cosf
  6614 ;;		___rem_pio2f
  6615 ;;		_efgtoa
  6616 ;; This function uses a non-reentrant model
  6617 ;;
  6618                           
  6619                           	psect	text20
  6620   004492                     __ptext20:
  6621                           	callstack 0
  6622   004492                     ___flsub:
  6623                           	callstack 27
  6624   004492  0E00               	movlw	0
  6625   004494  1A55               	xorwf	___flsub@a^0,f,c
  6626   004496  0E00               	movlw	0
  6627   004498  1A56               	xorwf	(___flsub@a+1)^0,f,c
  6628   00449A  0E00               	movlw	0
  6629   00449C  1A57               	xorwf	(___flsub@a+2)^0,f,c
  6630   00449E  0E80               	movlw	128
  6631   0044A0  1A58               	xorwf	(___flsub@a+3)^0,f,c
  6632   0044A2  C051  F041         	movff	___flsub@b,___fladd@b
  6633   0044A6  C052  F042         	movff	___flsub@b+1,___fladd@b+1
  6634   0044AA  C053  F043         	movff	___flsub@b+2,___fladd@b+2
  6635   0044AE  C054  F044         	movff	___flsub@b+3,___fladd@b+3
  6636   0044B2  C055  F045         	movff	___flsub@a,___fladd@a
  6637   0044B6  C056  F046         	movff	___flsub@a+1,___fladd@a+1
  6638   0044BA  C057  F047         	movff	___flsub@a+2,___fladd@a+2
  6639   0044BE  C058  F048         	movff	___flsub@a+3,___fladd@a+3
  6640   0044C2  ECE6  F00B         	call	___fladd	;wreg free
  6641   0044C6  C041  F051         	movff	?___fladd,?___flsub
  6642   0044CA  C042  F052         	movff	?___fladd+1,?___flsub+1
  6643   0044CE  C043  F053         	movff	?___fladd+2,?___flsub+2
  6644   0044D2  C044  F054         	movff	?___fladd+3,?___flsub+3
  6645   0044D6  0012               	return		;funcret
  6646   0044D8                     __end_of___flsub:
  6647                           	callstack 0
  6648                           
  6649 ;; *************** function ___fladd *****************
  6650 ;; Defined at:
  6651 ;;		line 10 in file "C:\Program Files\Microchip\xc8\v2.45\pic\sources\c99\common\sprcadd.c"
  6652 ;; Parameters:    Size  Location     Type
  6653 ;;  b               4   64[COMRAM] long 
  6654 ;;  a               4   68[COMRAM] long 
  6655 ;; Auto vars:     Size  Location     Type
  6656 ;;  grs             1   79[COMRAM] unsigned char 
  6657 ;;  bexp            1   78[COMRAM] unsigned char 
  6658 ;;  aexp            1   77[COMRAM] unsigned char 
  6659 ;;  signs           1   76[COMRAM] unsigned char 
  6660 ;; Return value:  Size  Location     Type
  6661 ;;                  4   64[COMRAM] unsigned char 
  6662 ;; Registers used:
  6663 ;;		wreg, status,2, status,0
  6664 ;; Tracked objects:
  6665 ;;		On entry : 0/0
  6666 ;;		On exit  : 0/0
  6667 ;;		Unchanged: 0/0
  6668 ;; Data sizes:     COMRAM   BANK0   BANK1   BANK2   BANK3   BANK4   BANK5   BANK6   BANK7
  6669 ;;      Params:         8       0       0       0       0       0       0       0       0
  6670 ;;      Locals:         4       0       0       0       0       0       0       0       0
  6671 ;;      Temps:          4       0       0       0       0       0       0       0       0
  6672 ;;      Totals:        16       0       0       0       0       0       0       0       0
  6673 ;;Total ram usage:       16 bytes
  6674 ;; Hardware stack levels used: 1
  6675 ;; This function calls:
  6676 ;;		Nothing
  6677 ;; This function is called by:
  6678 ;;		_main
  6679 ;;		___flsub
  6680 ;;		_cosf
  6681 ;;		___cosdf
  6682 ;;		___rem_pio2f
  6683 ;;		___sindf
  6684 ;;		_efgtoa
  6685 ;; This function uses a non-reentrant model
  6686 ;;
  6687                           
  6688                           	psect	text21
  6689   0017CC                     __ptext21:
  6690                           	callstack 0
  6691   0017CC                     ___fladd:
  6692                           	callstack 28
  6693   0017CC  5044               	movf	(___fladd@b+3)^0,w,c
  6694   0017CE  0B80               	andlw	128
  6695   0017D0  6E4D               	movwf	___fladd@signs^0,c
  6696   0017D2  5044               	movf	(___fladd@b+3)^0,w,c
  6697   0017D4  2444               	addwf	(___fladd@b+3)^0,w,c
  6698   0017D6  6E4F               	movwf	___fladd@bexp^0,c
  6699   0017D8  AE43               	btfss	(___fladd@b+2)^0,7,c
  6700   0017DA  EFF1  F00B         	goto	u5451
  6701   0017DE  EFF3  F00B         	goto	u5450
  6702   0017E2                     u5451:
  6703   0017E2  EFF4  F00B         	goto	l4753
  6704   0017E6                     u5450:
  6705   0017E6  804F               	bsf	___fladd@bexp^0,0,c
  6706   0017E8                     l4753:
  6707   0017E8  504F               	movf	___fladd@bexp^0,w,c
  6708   0017EA  B4D8               	btfsc	status,2,c
  6709   0017EC  EFFA  F00B         	goto	u5461
  6710   0017F0  EFFC  F00B         	goto	u5460
  6711   0017F4                     u5461:
  6712   0017F4  EF11  F00C         	goto	l4763
  6713   0017F8                     u5460:
  6714   0017F8  284F               	incf	___fladd@bexp^0,w,c
  6715   0017FA  A4D8               	btfss	status,2,c
  6716   0017FC  EF02  F00C         	goto	u5471
  6717   001800  EF04  F00C         	goto	u5470
  6718   001804                     u5471:
  6719   001804  EF0C  F00C         	goto	l4759
  6720   001808                     u5470:
  6721   001808  0E00               	movlw	0
  6722   00180A  6E41               	movwf	___fladd@b^0,c
  6723   00180C  0E00               	movlw	0
  6724   00180E  6E42               	movwf	(___fladd@b+1)^0,c
  6725   001810  0E00               	movlw	0
  6726   001812  6E43               	movwf	(___fladd@b+2)^0,c
  6727   001814  0E00               	movlw	0
  6728   001816  6E44               	movwf	(___fladd@b+3)^0,c
  6729   001818                     l4759:
  6730   001818  8E43               	bsf	(___fladd@b+2)^0,7,c
  6731   00181A  0E00               	movlw	0
  6732   00181C  6E44               	movwf	(___fladd@b+3)^0,c
  6733   00181E  EF19  F00C         	goto	l4765
  6734   001822                     l4763:
  6735   001822  0E00               	movlw	0
  6736   001824  6E41               	movwf	___fladd@b^0,c
  6737   001826  0E00               	movlw	0
  6738   001828  6E42               	movwf	(___fladd@b+1)^0,c
  6739   00182A  0E00               	movlw	0
  6740   00182C  6E43               	movwf	(___fladd@b+2)^0,c
  6741   00182E  0E00               	movlw	0
  6742   001830  6E44               	movwf	(___fladd@b+3)^0,c
  6743   001832                     l4765:
  6744   001832  5048               	movf	(___fladd@a+3)^0,w,c
  6745   001834  0B80               	andlw	128
  6746   001836  6E4E               	movwf	___fladd@aexp^0,c
  6747   001838  504D               	movf	___fladd@signs^0,w,c
  6748   00183A  184E               	xorwf	___fladd@aexp^0,w,c
  6749   00183C  B4D8               	btfsc	status,2,c
  6750   00183E  EF23  F00C         	goto	u5481
  6751   001842  EF25  F00C         	goto	u5480
  6752   001846                     u5481:
  6753   001846  EF26  F00C         	goto	l4771
  6754   00184A                     u5480:
  6755   00184A  8C4D               	bsf	___fladd@signs^0,6,c
  6756   00184C                     l4771:
  6757   00184C  5048               	movf	(___fladd@a+3)^0,w,c
  6758   00184E  2448               	addwf	(___fladd@a+3)^0,w,c
  6759   001850  6E4E               	movwf	___fladd@aexp^0,c
  6760   001852  AE47               	btfss	(___fladd@a+2)^0,7,c
  6761   001854  EF2E  F00C         	goto	u5491
  6762   001858  EF30  F00C         	goto	u5490
  6763   00185C                     u5491:
  6764   00185C  EF31  F00C         	goto	l4777
  6765   001860                     u5490:
  6766   001860  804E               	bsf	___fladd@aexp^0,0,c
  6767   001862                     l4777:
  6768   001862  504E               	movf	___fladd@aexp^0,w,c
  6769   001864  B4D8               	btfsc	status,2,c
  6770   001866  EF37  F00C         	goto	u5501
  6771   00186A  EF39  F00C         	goto	u5500
  6772   00186E                     u5501:
  6773   00186E  EF4E  F00C         	goto	l4787
  6774   001872                     u5500:
  6775   001872  284E               	incf	___fladd@aexp^0,w,c
  6776   001874  A4D8               	btfss	status,2,c
  6777   001876  EF3F  F00C         	goto	u5511
  6778   00187A  EF41  F00C         	goto	u5510
  6779   00187E                     u5511:
  6780   00187E  EF49  F00C         	goto	l4783
  6781   001882                     u5510:
  6782   001882  0E00               	movlw	0
  6783   001884  6E45               	movwf	___fladd@a^0,c
  6784   001886  0E00               	movlw	0
  6785   001888  6E46               	movwf	(___fladd@a+1)^0,c
  6786   00188A  0E00               	movlw	0
  6787   00188C  6E47               	movwf	(___fladd@a+2)^0,c
  6788   00188E  0E00               	movlw	0
  6789   001890  6E48               	movwf	(___fladd@a+3)^0,c
  6790   001892                     l4783:
  6791   001892  8E47               	bsf	(___fladd@a+2)^0,7,c
  6792   001894  0E00               	movlw	0
  6793   001896  6E48               	movwf	(___fladd@a+3)^0,c
  6794   001898  EF56  F00C         	goto	l4789
  6795   00189C                     l4787:
  6796   00189C  0E00               	movlw	0
  6797   00189E  6E45               	movwf	___fladd@a^0,c
  6798   0018A0  0E00               	movlw	0
  6799   0018A2  6E46               	movwf	(___fladd@a+1)^0,c
  6800   0018A4  0E00               	movlw	0
  6801   0018A6  6E47               	movwf	(___fladd@a+2)^0,c
  6802   0018A8  0E00               	movlw	0
  6803   0018AA  6E48               	movwf	(___fladd@a+3)^0,c
  6804   0018AC                     l4789:
  6805   0018AC  504F               	movf	___fladd@bexp^0,w,c
  6806   0018AE  5C4E               	subwf	___fladd@aexp^0,w,c
  6807   0018B0  B0D8               	btfsc	status,0,c
  6808   0018B2  EF5D  F00C         	goto	u5521
  6809   0018B6  EF5F  F00C         	goto	u5520
  6810   0018BA                     u5521:
  6811   0018BA  EF86  F00C         	goto	l4825
  6812   0018BE                     u5520:
  6813   0018BE  AC4D               	btfss	___fladd@signs^0,6,c
  6814   0018C0  EF64  F00C         	goto	u5531
  6815   0018C4  EF66  F00C         	goto	u5530
  6816   0018C8                     u5531:
  6817   0018C8  EF68  F00C         	goto	l4795
  6818   0018CC                     u5530:
  6819   0018CC  0E80               	movlw	128
  6820   0018CE  1A4D               	xorwf	___fladd@signs^0,f,c
  6821   0018D0                     l4795:
  6822   0018D0  C04F  F050         	movff	___fladd@bexp,___fladd@grs
  6823   0018D4  C04E  F04F         	movff	___fladd@aexp,___fladd@bexp
  6824   0018D8  C050  F04E         	movff	___fladd@grs,___fladd@aexp
  6825   0018DC  C041  F050         	movff	___fladd@b,___fladd@grs
  6826   0018E0  C045  F041         	movff	___fladd@a,___fladd@b
  6827   0018E4  C050  F045         	movff	___fladd@grs,___fladd@a
  6828   0018E8  C042  F050         	movff	___fladd@b+1,___fladd@grs
  6829   0018EC  C046  F042         	movff	___fladd@a+1,___fladd@b+1
  6830   0018F0  C050  F046         	movff	___fladd@grs,___fladd@a+1
  6831   0018F4  C043  F050         	movff	___fladd@b+2,___fladd@grs
  6832   0018F8  C047  F043         	movff	___fladd@a+2,___fladd@b+2
  6833   0018FC  C050  F047         	movff	___fladd@grs,___fladd@a+2
  6834   001900  C044  F050         	movff	___fladd@b+3,___fladd@grs
  6835   001904  C048  F044         	movff	___fladd@a+3,___fladd@b+3
  6836   001908  C050  F048         	movff	___fladd@grs,___fladd@a+3
  6837   00190C                     l4825:
  6838   00190C  0E00               	movlw	0
  6839   00190E  6E50               	movwf	___fladd@grs^0,c
  6840   001910  504F               	movf	___fladd@bexp^0,w,c
  6841   001912  C04E  F049         	movff	___fladd@aexp,??___fladd
  6842   001916  6A4A               	clrf	(??___fladd+1)^0,c
  6843   001918  5E49               	subwf	??___fladd^0,f,c
  6844   00191A  0E00               	movlw	0
  6845   00191C  5A4A               	subwfb	(??___fladd+1)^0,f,c
  6846   00191E  BE4A               	btfsc	(??___fladd+1)^0,7,c
  6847   001920  EF9B  F00C         	goto	u5541
  6848   001924  504A               	movf	(??___fladd+1)^0,w,c
  6849   001926  E109               	bnz	u5540
  6850   001928  0E1A               	movlw	26
  6851   00192A  5C49               	subwf	??___fladd^0,w,c
  6852   00192C  A0D8               	btfss	status,0,c
  6853   00192E  EF9B  F00C         	goto	u5541
  6854   001932  EF9D  F00C         	goto	u5540
  6855   001936                     u5541:
  6856   001936  EFD4  F00C         	goto	l649
  6857   00193A                     u5540:
  6858   00193A  5041               	movf	___fladd@b^0,w,c
  6859   00193C  1042               	iorwf	(___fladd@b+1)^0,w,c
  6860   00193E  1043               	iorwf	(___fladd@b+2)^0,w,c
  6861   001940  1044               	iorwf	(___fladd@b+3)^0,w,c
  6862   001942  A4D8               	btfss	status,2,c
  6863   001944  EFA6  F00C         	goto	u5551
  6864   001948  EFA9  F00C         	goto	u5550
  6865   00194C                     u5551:
  6866   00194C  0E01               	movlw	1
  6867   00194E  EFAA  F00C         	goto	u5560
  6868   001952                     u5550:
  6869   001952  0E00               	movlw	0
  6870   001954                     u5560:
  6871   001954  6E50               	movwf	___fladd@grs^0,c
  6872   001956  0E00               	movlw	0
  6873   001958  6E41               	movwf	___fladd@b^0,c
  6874   00195A  0E00               	movlw	0
  6875   00195C  6E42               	movwf	(___fladd@b+1)^0,c
  6876   00195E  0E00               	movlw	0
  6877   001960  6E43               	movwf	(___fladd@b+2)^0,c
  6878   001962  0E00               	movlw	0
  6879   001964  6E44               	movwf	(___fladd@b+3)^0,c
  6880   001966  C04E  F04F         	movff	___fladd@aexp,___fladd@bexp
  6881   00196A  EFDD  F00C         	goto	l648
  6882   00196E                     l650:
  6883   00196E  A050               	btfss	___fladd@grs^0,0,c
  6884   001970  EFBC  F00C         	goto	u5571
  6885   001974  EFBE  F00C         	goto	u5570
  6886   001978                     u5571:
  6887   001978  EFC4  F00C         	goto	l4837
  6888   00197C                     u5570:
  6889   00197C  90D8               	bcf	status,0,c
  6890   00197E  3050               	rrcf	___fladd@grs^0,w,c
  6891   001980  0901               	iorlw	1
  6892   001982  6E50               	movwf	___fladd@grs^0,c
  6893   001984  EFC6  F00C         	goto	l4839
  6894   001988                     l4837:
  6895   001988  90D8               	bcf	status,0,c
  6896   00198A  3250               	rrcf	___fladd@grs^0,f,c
  6897   00198C                     l4839:
  6898   00198C  A041               	btfss	___fladd@b^0,0,c
  6899   00198E  EFCB  F00C         	goto	u5581
  6900   001992  EFCD  F00C         	goto	u5580
  6901   001996                     u5581:
  6902   001996  EFCE  F00C         	goto	l4843
  6903   00199A                     u5580:
  6904   00199A  8E50               	bsf	___fladd@grs^0,7,c
  6905   00199C                     l4843:
  6906   00199C  3444               	rlcf	(___fladd@b+3)^0,w,c
  6907   00199E  3244               	rrcf	(___fladd@b+3)^0,f,c
  6908   0019A0  3243               	rrcf	(___fladd@b+2)^0,f,c
  6909   0019A2  3242               	rrcf	(___fladd@b+1)^0,f,c
  6910   0019A4  3241               	rrcf	___fladd@b^0,f,c
  6911   0019A6  2A4F               	incf	___fladd@bexp^0,f,c
  6912   0019A8                     l649:
  6913   0019A8  504E               	movf	___fladd@aexp^0,w,c
  6914   0019AA  5C4F               	subwf	___fladd@bexp^0,w,c
  6915   0019AC  A0D8               	btfss	status,0,c
  6916   0019AE  EFDB  F00C         	goto	u5591
  6917   0019B2  EFDD  F00C         	goto	u5590
  6918   0019B6                     u5591:
  6919   0019B6  EFB7  F00C         	goto	l650
  6920   0019BA                     u5590:
  6921   0019BA                     l648:
  6922   0019BA  BC4D               	btfsc	___fladd@signs^0,6,c
  6923   0019BC  EFE2  F00C         	goto	u5601
  6924   0019C0  EFE4  F00C         	goto	u5600
  6925   0019C4                     u5601:
  6926   0019C4  EF24  F00D         	goto	l4871
  6927   0019C8                     u5600:
  6928   0019C8  504F               	movf	___fladd@bexp^0,w,c
  6929   0019CA  A4D8               	btfss	status,2,c
  6930   0019CC  EFEA  F00C         	goto	u5611
  6931   0019D0  EFEC  F00C         	goto	u5610
  6932   0019D4                     u5611:
  6933   0019D4  EFF6  F00C         	goto	l4853
  6934   0019D8                     u5610:
  6935   0019D8  0E00               	movlw	0
  6936   0019DA  6E41               	movwf	?___fladd^0,c
  6937   0019DC  0E00               	movlw	0
  6938   0019DE  6E42               	movwf	(?___fladd+1)^0,c
  6939   0019E0  0E00               	movlw	0
  6940   0019E2  6E43               	movwf	(?___fladd+2)^0,c
  6941   0019E4  0E00               	movlw	0
  6942   0019E6  6E44               	movwf	(?___fladd+3)^0,c
  6943   0019E8  EF45  F00E         	goto	l657
  6944   0019EC                     l4853:
  6945   0019EC  5045               	movf	___fladd@a^0,w,c
  6946   0019EE  2641               	addwf	___fladd@b^0,f,c
  6947   0019F0  5046               	movf	(___fladd@a+1)^0,w,c
  6948   0019F2  2242               	addwfc	(___fladd@b+1)^0,f,c
  6949   0019F4  5047               	movf	(___fladd@a+2)^0,w,c
  6950   0019F6  2243               	addwfc	(___fladd@b+2)^0,f,c
  6951   0019F8  5048               	movf	(___fladd@a+3)^0,w,c
  6952   0019FA  2244               	addwfc	(___fladd@b+3)^0,f,c
  6953   0019FC  A044               	btfss	(___fladd@b+3)^0,0,c
  6954   0019FE  EF03  F00D         	goto	u5621
  6955   001A02  EF05  F00D         	goto	u5620
  6956   001A06                     u5621:
  6957   001A06  EFB1  F00D         	goto	l4907
  6958   001A0A                     u5620:
  6959   001A0A  A050               	btfss	___fladd@grs^0,0,c
  6960   001A0C  EF0A  F00D         	goto	u5631
  6961   001A10  EF0C  F00D         	goto	u5630
  6962   001A14                     u5631:
  6963   001A14  EF12  F00D         	goto	l4861
  6964   001A18                     u5630:
  6965   001A18  90D8               	bcf	status,0,c
  6966   001A1A  3050               	rrcf	___fladd@grs^0,w,c
  6967   001A1C  0901               	iorlw	1
  6968   001A1E  6E50               	movwf	___fladd@grs^0,c
  6969   001A20  EF14  F00D         	goto	l4863
  6970   001A24                     l4861:
  6971   001A24  90D8               	bcf	status,0,c
  6972   001A26  3250               	rrcf	___fladd@grs^0,f,c
  6973   001A28                     l4863:
  6974   001A28  A041               	btfss	___fladd@b^0,0,c
  6975   001A2A  EF19  F00D         	goto	u5641
  6976   001A2E  EF1B  F00D         	goto	u5640
  6977   001A32                     u5641:
  6978   001A32  EF1C  F00D         	goto	l4867
  6979   001A36                     u5640:
  6980   001A36  8E50               	bsf	___fladd@grs^0,7,c
  6981   001A38                     l4867:
  6982   001A38  3444               	rlcf	(___fladd@b+3)^0,w,c
  6983   001A3A  3244               	rrcf	(___fladd@b+3)^0,f,c
  6984   001A3C  3243               	rrcf	(___fladd@b+2)^0,f,c
  6985   001A3E  3242               	rrcf	(___fladd@b+1)^0,f,c
  6986   001A40  3241               	rrcf	___fladd@b^0,f,c
  6987   001A42  2A4F               	incf	___fladd@bexp^0,f,c
  6988   001A44  EFB1  F00D         	goto	l4907
  6989   001A48                     l4871:
  6990   001A48  5045               	movf	___fladd@a^0,w,c
  6991   001A4A  5C41               	subwf	___fladd@b^0,w,c
  6992   001A4C  5046               	movf	(___fladd@a+1)^0,w,c
  6993   001A4E  5842               	subwfb	(___fladd@b+1)^0,w,c
  6994   001A50  5047               	movf	(___fladd@a+2)^0,w,c
  6995   001A52  5843               	subwfb	(___fladd@b+2)^0,w,c
  6996   001A54  5044               	movf	(___fladd@b+3)^0,w,c
  6997   001A56  0A80               	xorlw	128
  6998   001A58  6E49               	movwf	??___fladd^0,c
  6999   001A5A  5048               	movf	(___fladd@a+3)^0,w,c
  7000   001A5C  0A80               	xorlw	128
  7001   001A5E  5849               	subwfb	??___fladd^0,w,c
  7002   001A60  B0D8               	btfsc	status,0,c
  7003   001A62  EF35  F00D         	goto	u5651
  7004   001A66  EF37  F00D         	goto	u5650
  7005   001A6A                     u5651:
  7006   001A6A  EF62  F00D         	goto	l4881
  7007   001A6E                     u5650:
  7008   001A6E  5041               	movf	___fladd@b^0,w,c
  7009   001A70  5C45               	subwf	___fladd@a^0,w,c
  7010   001A72  6E49               	movwf	??___fladd^0,c
  7011   001A74  5042               	movf	(___fladd@b+1)^0,w,c
  7012   001A76  5846               	subwfb	(___fladd@a+1)^0,w,c
  7013   001A78  6E4A               	movwf	(??___fladd+1)^0,c
  7014   001A7A  5043               	movf	(___fladd@b+2)^0,w,c
  7015   001A7C  5847               	subwfb	(___fladd@a+2)^0,w,c
  7016   001A7E  6E4B               	movwf	(??___fladd+2)^0,c
  7017   001A80  5044               	movf	(___fladd@b+3)^0,w,c
  7018   001A82  5848               	subwfb	(___fladd@a+3)^0,w,c
  7019   001A84  6E4C               	movwf	(??___fladd+3)^0,c
  7020   001A86  0EFF               	movlw	255
  7021   001A88  2449               	addwf	??___fladd^0,w,c
  7022   001A8A  6E41               	movwf	___fladd@b^0,c
  7023   001A8C  0EFF               	movlw	255
  7024   001A8E  204A               	addwfc	(??___fladd+1)^0,w,c
  7025   001A90  6E42               	movwf	(___fladd@b+1)^0,c
  7026   001A92  0EFF               	movlw	255
  7027   001A94  204B               	addwfc	(??___fladd+2)^0,w,c
  7028   001A96  6E43               	movwf	(___fladd@b+2)^0,c
  7029   001A98  0EFF               	movlw	255
  7030   001A9A  204C               	addwfc	(??___fladd+3)^0,w,c
  7031   001A9C  6E44               	movwf	(___fladd@b+3)^0,c
  7032   001A9E  0E80               	movlw	128
  7033   001AA0  1A4D               	xorwf	___fladd@signs^0,f,c
  7034   001AA2  6C50               	negf	___fladd@grs^0,c
  7035   001AA4  5050               	movf	___fladd@grs^0,w,c
  7036   001AA6  A4D8               	btfss	status,2,c
  7037   001AA8  EF58  F00D         	goto	u5661
  7038   001AAC  EF5A  F00D         	goto	u5660
  7039   001AB0                     u5661:
  7040   001AB0  EF6A  F00D         	goto	l665
  7041   001AB4                     u5660:
  7042   001AB4  0E01               	movlw	1
  7043   001AB6  2641               	addwf	___fladd@b^0,f,c
  7044   001AB8  0E00               	movlw	0
  7045   001ABA  2242               	addwfc	(___fladd@b+1)^0,f,c
  7046   001ABC  2243               	addwfc	(___fladd@b+2)^0,f,c
  7047   001ABE  2244               	addwfc	(___fladd@b+3)^0,f,c
  7048   001AC0  EF6A  F00D         	goto	l665
  7049   001AC4                     l4881:
  7050   001AC4  5045               	movf	___fladd@a^0,w,c
  7051   001AC6  5E41               	subwf	___fladd@b^0,f,c
  7052   001AC8  5046               	movf	(___fladd@a+1)^0,w,c
  7053   001ACA  5A42               	subwfb	(___fladd@b+1)^0,f,c
  7054   001ACC  5047               	movf	(___fladd@a+2)^0,w,c
  7055   001ACE  5A43               	subwfb	(___fladd@b+2)^0,f,c
  7056   001AD0  5048               	movf	(___fladd@a+3)^0,w,c
  7057   001AD2  5A44               	subwfb	(___fladd@b+3)^0,f,c
  7058   001AD4                     l665:
  7059   001AD4  5041               	movf	___fladd@b^0,w,c
  7060   001AD6  1042               	iorwf	(___fladd@b+1)^0,w,c
  7061   001AD8  1043               	iorwf	(___fladd@b+2)^0,w,c
  7062   001ADA  1044               	iorwf	(___fladd@b+3)^0,w,c
  7063   001ADC  A4D8               	btfss	status,2,c
  7064   001ADE  EF73  F00D         	goto	u5671
  7065   001AE2  EF75  F00D         	goto	u5670
  7066   001AE6                     u5671:
  7067   001AE6  EFAA  F00D         	goto	l4905
  7068   001AEA                     u5670:
  7069   001AEA  5050               	movf	___fladd@grs^0,w,c
  7070   001AEC  A4D8               	btfss	status,2,c
  7071   001AEE  EF7B  F00D         	goto	u5681
  7072   001AF2  EF7D  F00D         	goto	u5680
  7073   001AF6                     u5681:
  7074   001AF6  EFAA  F00D         	goto	l4905
  7075   001AFA                     u5680:
  7076   001AFA  0E00               	movlw	0
  7077   001AFC  6E41               	movwf	?___fladd^0,c
  7078   001AFE  0E00               	movlw	0
  7079   001B00  6E42               	movwf	(?___fladd+1)^0,c
  7080   001B02  0E00               	movlw	0
  7081   001B04  6E43               	movwf	(?___fladd+2)^0,c
  7082   001B06  0E00               	movlw	0
  7083   001B08  6E44               	movwf	(?___fladd+3)^0,c
  7084   001B0A  EF45  F00E         	goto	l657
  7085   001B0E                     l4889:
  7086   001B0E  90D8               	bcf	status,0,c
  7087   001B10  3641               	rlcf	___fladd@b^0,f,c
  7088   001B12  3642               	rlcf	(___fladd@b+1)^0,f,c
  7089   001B14  3643               	rlcf	(___fladd@b+2)^0,f,c
  7090   001B16  3644               	rlcf	(___fladd@b+3)^0,f,c
  7091   001B18  AE50               	btfss	___fladd@grs^0,7,c
  7092   001B1A  EF91  F00D         	goto	u5691
  7093   001B1E  EF93  F00D         	goto	u5690
  7094   001B22                     u5691:
  7095   001B22  EF94  F00D         	goto	l4895
  7096   001B26                     u5690:
  7097   001B26  8041               	bsf	___fladd@b^0,0,c
  7098   001B28                     l4895:
  7099   001B28  A050               	btfss	___fladd@grs^0,0,c
  7100   001B2A  EF99  F00D         	goto	u5701
  7101   001B2E  EF9B  F00D         	goto	u5700
  7102   001B32                     u5701:
  7103   001B32  EF9F  F00D         	goto	l4899
  7104   001B36                     u5700:
  7105   001B36  80D8               	bsf	status,0,c
  7106   001B38  3650               	rlcf	___fladd@grs^0,f,c
  7107   001B3A  EFA1  F00D         	goto	l4901
  7108   001B3E                     l4899:
  7109   001B3E  90D8               	bcf	status,0,c
  7110   001B40  3650               	rlcf	___fladd@grs^0,f,c
  7111   001B42                     l4901:
  7112   001B42  504F               	movf	___fladd@bexp^0,w,c
  7113   001B44  B4D8               	btfsc	status,2,c
  7114   001B46  EFA7  F00D         	goto	u5711
  7115   001B4A  EFA9  F00D         	goto	u5710
  7116   001B4E                     u5711:
  7117   001B4E  EFAA  F00D         	goto	l4905
  7118   001B52                     u5710:
  7119   001B52  064F               	decf	___fladd@bexp^0,f,c
  7120   001B54                     l4905:
  7121   001B54  AE43               	btfss	(___fladd@b+2)^0,7,c
  7122   001B56  EFAF  F00D         	goto	u5721
  7123   001B5A  EFB1  F00D         	goto	u5720
  7124   001B5E                     u5721:
  7125   001B5E  EF87  F00D         	goto	l4889
  7126   001B62                     u5720:
  7127   001B62                     l4907:
  7128   001B62  0E00               	movlw	0
  7129   001B64  6E4E               	movwf	___fladd@aexp^0,c
  7130   001B66  AE50               	btfss	___fladd@grs^0,7,c
  7131   001B68  EFB8  F00D         	goto	u5731
  7132   001B6C  EFBA  F00D         	goto	u5730
  7133   001B70                     u5731:
  7134   001B70  EFD2  F00D         	goto	l674
  7135   001B74                     u5730:
  7136   001B74  C050  F049         	movff	___fladd@grs,??___fladd
  7137   001B78  0E7F               	movlw	127
  7138   001B7A  1649               	andwf	??___fladd^0,f,c
  7139   001B7C  B4D8               	btfsc	status,2,c
  7140   001B7E  EFC3  F00D         	goto	u5741
  7141   001B82  EFC5  F00D         	goto	u5740
  7142   001B86                     u5741:
  7143   001B86  EFC9  F00D         	goto	l675
  7144   001B8A                     u5740:
  7145   001B8A                     l4913:
  7146   001B8A  0E01               	movlw	1
  7147   001B8C  6E4E               	movwf	___fladd@aexp^0,c
  7148   001B8E  EFD2  F00D         	goto	l674
  7149   001B92                     l675:
  7150   001B92  A041               	btfss	___fladd@b^0,0,c
  7151   001B94  EFCE  F00D         	goto	u5751
  7152   001B98  EFD0  F00D         	goto	u5750
  7153   001B9C                     u5751:
  7154   001B9C  EFD2  F00D         	goto	l674
  7155   001BA0                     u5750:
  7156   001BA0  EFC5  F00D         	goto	l4913
  7157   001BA4                     l674:
  7158   001BA4  504E               	movf	___fladd@aexp^0,w,c
  7159   001BA6  B4D8               	btfsc	status,2,c
  7160   001BA8  EFD8  F00D         	goto	u5761
  7161   001BAC  EFDA  F00D         	goto	u5760
  7162   001BB0                     u5761:
  7163   001BB0  EF05  F00E         	goto	l4925
  7164   001BB4                     u5760:
  7165   001BB4  0E01               	movlw	1
  7166   001BB6  2641               	addwf	___fladd@b^0,f,c
  7167   001BB8  0E00               	movlw	0
  7168   001BBA  2242               	addwfc	(___fladd@b+1)^0,f,c
  7169   001BBC  2243               	addwfc	(___fladd@b+2)^0,f,c
  7170   001BBE  2244               	addwfc	(___fladd@b+3)^0,f,c
  7171   001BC0  A044               	btfss	(___fladd@b+3)^0,0,c
  7172   001BC2  EFE5  F00D         	goto	u5771
  7173   001BC6  EFE7  F00D         	goto	u5770
  7174   001BCA                     u5771:
  7175   001BCA  EF05  F00E         	goto	l4925
  7176   001BCE                     u5770:
  7177   001BCE  C041  F049         	movff	___fladd@b,??___fladd
  7178   001BD2  C042  F04A         	movff	___fladd@b+1,??___fladd+1
  7179   001BD6  C043  F04B         	movff	___fladd@b+2,??___fladd+2
  7180   001BDA  C044  F04C         	movff	___fladd@b+3,??___fladd+3
  7181   001BDE  344C               	rlcf	(??___fladd+3)^0,w,c
  7182   001BE0  324C               	rrcf	(??___fladd+3)^0,f,c
  7183   001BE2  324B               	rrcf	(??___fladd+2)^0,f,c
  7184   001BE4  324A               	rrcf	(??___fladd+1)^0,f,c
  7185   001BE6  3249               	rrcf	??___fladd^0,f,c
  7186   001BE8  C049  F041         	movff	??___fladd,___fladd@b
  7187   001BEC  C04A  F042         	movff	??___fladd+1,___fladd@b+1
  7188   001BF0  C04B  F043         	movff	??___fladd+2,___fladd@b+2
  7189   001BF4  C04C  F044         	movff	??___fladd+3,___fladd@b+3
  7190   001BF8  284F               	incf	___fladd@bexp^0,w,c
  7191   001BFA  B4D8               	btfsc	status,2,c
  7192   001BFC  EF02  F00E         	goto	u5781
  7193   001C00  EF04  F00E         	goto	u5780
  7194   001C04                     u5781:
  7195   001C04  EF05  F00E         	goto	l4925
  7196   001C08                     u5780:
  7197   001C08  2A4F               	incf	___fladd@bexp^0,f,c
  7198   001C0A                     l4925:
  7199   001C0A  284F               	incf	___fladd@bexp^0,w,c
  7200   001C0C  B4D8               	btfsc	status,2,c
  7201   001C0E  EF0B  F00E         	goto	u5791
  7202   001C12  EF0D  F00E         	goto	u5790
  7203   001C16                     u5791:
  7204   001C16  EF15  F00E         	goto	l4929
  7205   001C1A                     u5790:
  7206   001C1A  504F               	movf	___fladd@bexp^0,w,c
  7207   001C1C  A4D8               	btfss	status,2,c
  7208   001C1E  EF13  F00E         	goto	u5801
  7209   001C22  EF15  F00E         	goto	u5800
  7210   001C26                     u5801:
  7211   001C26  EF27  F00E         	goto	l4933
  7212   001C2A                     u5800:
  7213   001C2A                     l4929:
  7214   001C2A  0E00               	movlw	0
  7215   001C2C  6E41               	movwf	___fladd@b^0,c
  7216   001C2E  0E00               	movlw	0
  7217   001C30  6E42               	movwf	(___fladd@b+1)^0,c
  7218   001C32  0E00               	movlw	0
  7219   001C34  6E43               	movwf	(___fladd@b+2)^0,c
  7220   001C36  0E00               	movlw	0
  7221   001C38  6E44               	movwf	(___fladd@b+3)^0,c
  7222   001C3A  504F               	movf	___fladd@bexp^0,w,c
  7223   001C3C  A4D8               	btfss	status,2,c
  7224   001C3E  EF23  F00E         	goto	u5811
  7225   001C42  EF25  F00E         	goto	u5810
  7226   001C46                     u5811:
  7227   001C46  EF27  F00E         	goto	l4933
  7228   001C4A                     u5810:
  7229   001C4A  0E00               	movlw	0
  7230   001C4C  6E4D               	movwf	___fladd@signs^0,c
  7231   001C4E                     l4933:
  7232   001C4E  A04F               	btfss	___fladd@bexp^0,0,c
  7233   001C50  EF2C  F00E         	goto	u5821
  7234   001C54  EF2E  F00E         	goto	u5820
  7235   001C58                     u5821:
  7236   001C58  EF31  F00E         	goto	l4937
  7237   001C5C                     u5820:
  7238   001C5C  8E43               	bsf	(___fladd@b+2)^0,7,c
  7239   001C5E  EF32  F00E         	goto	l4939
  7240   001C62                     l4937:
  7241   001C62  9E43               	bcf	(___fladd@b+2)^0,7,c
  7242   001C64                     l4939:
  7243   001C64  90D8               	bcf	status,0,c
  7244   001C66  304F               	rrcf	___fladd@bexp^0,w,c
  7245   001C68  6E44               	movwf	(___fladd@b+3)^0,c
  7246   001C6A  AE4D               	btfss	___fladd@signs^0,7,c
  7247   001C6C  EF3A  F00E         	goto	u5831
  7248   001C70  EF3C  F00E         	goto	u5830
  7249   001C74                     u5831:
  7250   001C74  EF3D  F00E         	goto	l4945
  7251   001C78                     u5830:
  7252   001C78  8E44               	bsf	(___fladd@b+3)^0,7,c
  7253   001C7A                     l4945:
  7254   001C7A  C041  F041         	movff	___fladd@b,?___fladd
  7255   001C7E  C042  F042         	movff	___fladd@b+1,?___fladd+1
  7256   001C82  C043  F043         	movff	___fladd@b+2,?___fladd+2
  7257   001C86  C044  F044         	movff	___fladd@b+3,?___fladd+3
  7258   001C8A                     l657:
  7259   001C8A  0012               	return		;funcret
  7260   001C8C                     __end_of___fladd:
  7261                           	callstack 0
  7262                           
  7263 ;; *************** function ___flneg *****************
  7264 ;; Defined at:
  7265 ;;		line 15 in file "C:\Program Files\Microchip\xc8\v2.45\pic\sources\c99\common\flneg.c"
  7266 ;; Parameters:    Size  Location     Type
  7267 ;;  f1              4   24[BANK0 ] unsigned char 
  7268 ;; Auto vars:     Size  Location     Type
  7269 ;;		None
  7270 ;; Return value:  Size  Location     Type
  7271 ;;                  4   24[BANK0 ] unsigned char 
  7272 ;; Registers used:
  7273 ;;		wreg, status,2, status,0
  7274 ;; Tracked objects:
  7275 ;;		On entry : 0/0
  7276 ;;		On exit  : 0/0
  7277 ;;		Unchanged: 0/0
  7278 ;; Data sizes:     COMRAM   BANK0   BANK1   BANK2   BANK3   BANK4   BANK5   BANK6   BANK7
  7279 ;;      Params:         0       4       0       0       0       0       0       0       0
  7280 ;;      Locals:         0       0       0       0       0       0       0       0       0
  7281 ;;      Temps:          0       0       0       0       0       0       0       0       0
  7282 ;;      Totals:         0       4       0       0       0       0       0       0       0
  7283 ;;Total ram usage:        4 bytes
  7284 ;; Hardware stack levels used: 1
  7285 ;; This function calls:
  7286 ;;		Nothing
  7287 ;; This function is called by:
  7288 ;;		_cosf
  7289 ;;		___rem_pio2f
  7290 ;;		_efgtoa
  7291 ;; This function uses a non-reentrant model
  7292 ;;
  7293                           
  7294                           	psect	text22
  7295   00459A                     __ptext22:
  7296                           	callstack 0
  7297   00459A                     ___flneg:
  7298                           	callstack 28
  7299   00459A  0100               	movlb	0	; () banked
  7300   00459C  5178               	movf	___flneg@f1& (0+255),w,b
  7301   00459E  1179               	iorwf	(___flneg@f1+1)& (0+255),w,b
  7302   0045A0  117A               	iorwf	(___flneg@f1+2)& (0+255),w,b
  7303   0045A2  117B               	iorwf	(___flneg@f1+3)& (0+255),w,b
  7304   0045A4  B4D8               	btfsc	status,2,c
  7305   0045A6  EFD7  F022         	goto	u6471
  7306   0045AA  EFD9  F022         	goto	u6470
  7307   0045AE                     u6471:
  7308   0045AE  EFE1  F022         	goto	l5359
  7309   0045B2                     u6470:
  7310   0045B2                     
  7311                           ; BSR set to: 0
  7312   0045B2  0E00               	movlw	0
  7313   0045B4  1B78               	xorwf	___flneg@f1& (0+255),f,b
  7314   0045B6  0E00               	movlw	0
  7315   0045B8  1B79               	xorwf	(___flneg@f1+1)& (0+255),f,b
  7316   0045BA  0E00               	movlw	0
  7317   0045BC  1B7A               	xorwf	(___flneg@f1+2)& (0+255),f,b
  7318   0045BE  0E80               	movlw	128
  7319   0045C0  1B7B               	xorwf	(___flneg@f1+3)& (0+255),f,b
  7320   0045C2                     l5359:
  7321                           
  7322                           ; BSR set to: 0
  7323   0045C2  C078  F078         	movff	___flneg@f1,?___flneg
  7324   0045C6  C079  F079         	movff	___flneg@f1+1,?___flneg+1
  7325   0045CA  C07A  F07A         	movff	___flneg@f1+2,?___flneg+2
  7326   0045CE  C07B  F07B         	movff	___flneg@f1+3,?___flneg+3
  7327   0045D2                     
  7328                           ; BSR set to: 0
  7329   0045D2  0012               	return		;funcret
  7330   0045D4                     __end_of___flneg:
  7331                           	callstack 0
  7332                           
  7333 ;; *************** function ___flmul *****************
  7334 ;; Defined at:
  7335 ;;		line 8 in file "C:\Program Files\Microchip\xc8\v2.45\pic\sources\c99\common\sprcmul.c"
  7336 ;; Parameters:    Size  Location     Type
  7337 ;;  b               4   39[COMRAM] unsigned char 
  7338 ;;  a               4   43[COMRAM] unsigned char 
  7339 ;; Auto vars:     Size  Location     Type
  7340 ;;  prod            4   58[COMRAM] struct .
  7341 ;;  grs             4   53[COMRAM] unsigned long 
  7342 ;;  temp            2   62[COMRAM] struct .
  7343 ;;  bexp            1   57[COMRAM] unsigned char 
  7344 ;;  aexp            1   52[COMRAM] unsigned char 
  7345 ;;  sign            1   51[COMRAM] unsigned char 
  7346 ;; Return value:  Size  Location     Type
  7347 ;;                  4   39[COMRAM] unsigned char 
  7348 ;; Registers used:
  7349 ;;		wreg, status,2, status,0, prodl, prodh
  7350 ;; Tracked objects:
  7351 ;;		On entry : 0/0
  7352 ;;		On exit  : 0/0
  7353 ;;		Unchanged: 0/0
  7354 ;; Data sizes:     COMRAM   BANK0   BANK1   BANK2   BANK3   BANK4   BANK5   BANK6   BANK7
  7355 ;;      Params:         8       0       0       0       0       0       0       0       0
  7356 ;;      Locals:        13       0       0       0       0       0       0       0       0
  7357 ;;      Temps:          4       0       0       0       0       0       0       0       0
  7358 ;;      Totals:        25       0       0       0       0       0       0       0       0
  7359 ;;Total ram usage:       25 bytes
  7360 ;; Hardware stack levels used: 1
  7361 ;; This function calls:
  7362 ;;		Nothing
  7363 ;; This function is called by:
  7364 ;;		_main
  7365 ;;		___cosdf
  7366 ;;		___rem_pio2f
  7367 ;;		___sindf
  7368 ;;		_efgtoa
  7369 ;; This function uses a non-reentrant model
  7370 ;;
  7371                           
  7372                           	psect	text23
  7373   001C8C                     __ptext23:
  7374                           	callstack 0
  7375   001C8C                     ___flmul:
  7376                           	callstack 28
  7377   001C8C  502B               	movf	(___flmul@b+3)^0,w,c
  7378   001C8E  0B80               	andlw	128
  7379   001C90  6E34               	movwf	___flmul@sign^0,c
  7380   001C92  502B               	movf	(___flmul@b+3)^0,w,c
  7381   001C94  242B               	addwf	(___flmul@b+3)^0,w,c
  7382   001C96  6E3A               	movwf	___flmul@bexp^0,c
  7383   001C98  AE2A               	btfss	(___flmul@b+2)^0,7,c
  7384   001C9A  EF51  F00E         	goto	u6081
  7385   001C9E  EF53  F00E         	goto	u6080
  7386   001CA2                     u6081:
  7387   001CA2  EF54  F00E         	goto	l5107
  7388   001CA6                     u6080:
  7389   001CA6  803A               	bsf	___flmul@bexp^0,0,c
  7390   001CA8                     l5107:
  7391   001CA8  503A               	movf	___flmul@bexp^0,w,c
  7392   001CAA  B4D8               	btfsc	status,2,c
  7393   001CAC  EF5A  F00E         	goto	u6091
  7394   001CB0  EF5C  F00E         	goto	u6090
  7395   001CB4                     u6091:
  7396   001CB4  EF6F  F00E         	goto	l5115
  7397   001CB8                     u6090:
  7398   001CB8  283A               	incf	___flmul@bexp^0,w,c
  7399   001CBA  A4D8               	btfss	status,2,c
  7400   001CBC  EF62  F00E         	goto	u6101
  7401   001CC0  EF64  F00E         	goto	u6100
  7402   001CC4                     u6101:
  7403   001CC4  EF6C  F00E         	goto	l5113
  7404   001CC8                     u6100:
  7405   001CC8  0E00               	movlw	0
  7406   001CCA  6E28               	movwf	___flmul@b^0,c
  7407   001CCC  0E00               	movlw	0
  7408   001CCE  6E29               	movwf	(___flmul@b+1)^0,c
  7409   001CD0  0E00               	movlw	0
  7410   001CD2  6E2A               	movwf	(___flmul@b+2)^0,c
  7411   001CD4  0E00               	movlw	0
  7412   001CD6  6E2B               	movwf	(___flmul@b+3)^0,c
  7413   001CD8                     l5113:
  7414   001CD8  8E2A               	bsf	(___flmul@b+2)^0,7,c
  7415   001CDA  EF77  F00E         	goto	l5117
  7416   001CDE                     l5115:
  7417   001CDE  0E00               	movlw	0
  7418   001CE0  6E28               	movwf	___flmul@b^0,c
  7419   001CE2  0E00               	movlw	0
  7420   001CE4  6E29               	movwf	(___flmul@b+1)^0,c
  7421   001CE6  0E00               	movlw	0
  7422   001CE8  6E2A               	movwf	(___flmul@b+2)^0,c
  7423   001CEA  0E00               	movlw	0
  7424   001CEC  6E2B               	movwf	(___flmul@b+3)^0,c
  7425   001CEE                     l5117:
  7426   001CEE  502F               	movf	(___flmul@a+3)^0,w,c
  7427   001CF0  0B80               	andlw	128
  7428   001CF2  1A34               	xorwf	___flmul@sign^0,f,c
  7429   001CF4  502F               	movf	(___flmul@a+3)^0,w,c
  7430   001CF6  242F               	addwf	(___flmul@a+3)^0,w,c
  7431   001CF8  6E35               	movwf	___flmul@aexp^0,c
  7432   001CFA  AE2E               	btfss	(___flmul@a+2)^0,7,c
  7433   001CFC  EF82  F00E         	goto	u6111
  7434   001D00  EF84  F00E         	goto	u6110
  7435   001D04                     u6111:
  7436   001D04  EF85  F00E         	goto	l5125
  7437   001D08                     u6110:
  7438   001D08  8035               	bsf	___flmul@aexp^0,0,c
  7439   001D0A                     l5125:
  7440   001D0A  5035               	movf	___flmul@aexp^0,w,c
  7441   001D0C  B4D8               	btfsc	status,2,c
  7442   001D0E  EF8B  F00E         	goto	u6121
  7443   001D12  EF8D  F00E         	goto	u6120
  7444   001D16                     u6121:
  7445   001D16  EFA0  F00E         	goto	l5133
  7446   001D1A                     u6120:
  7447   001D1A  2835               	incf	___flmul@aexp^0,w,c
  7448   001D1C  A4D8               	btfss	status,2,c
  7449   001D1E  EF93  F00E         	goto	u6131
  7450   001D22  EF95  F00E         	goto	u6130
  7451   001D26                     u6131:
  7452   001D26  EF9D  F00E         	goto	l5131
  7453   001D2A                     u6130:
  7454   001D2A  0E00               	movlw	0
  7455   001D2C  6E2C               	movwf	___flmul@a^0,c
  7456   001D2E  0E00               	movlw	0
  7457   001D30  6E2D               	movwf	(___flmul@a+1)^0,c
  7458   001D32  0E00               	movlw	0
  7459   001D34  6E2E               	movwf	(___flmul@a+2)^0,c
  7460   001D36  0E00               	movlw	0
  7461   001D38  6E2F               	movwf	(___flmul@a+3)^0,c
  7462   001D3A                     l5131:
  7463   001D3A  8E2E               	bsf	(___flmul@a+2)^0,7,c
  7464   001D3C  EFA8  F00E         	goto	l734
  7465   001D40                     l5133:
  7466   001D40  0E00               	movlw	0
  7467   001D42  6E2C               	movwf	___flmul@a^0,c
  7468   001D44  0E00               	movlw	0
  7469   001D46  6E2D               	movwf	(___flmul@a+1)^0,c
  7470   001D48  0E00               	movlw	0
  7471   001D4A  6E2E               	movwf	(___flmul@a+2)^0,c
  7472   001D4C  0E00               	movlw	0
  7473   001D4E  6E2F               	movwf	(___flmul@a+3)^0,c
  7474   001D50                     l734:
  7475   001D50  5035               	movf	___flmul@aexp^0,w,c
  7476   001D52  B4D8               	btfsc	status,2,c
  7477   001D54  EFAE  F00E         	goto	u6141
  7478   001D58  EFB0  F00E         	goto	u6140
  7479   001D5C                     u6141:
  7480   001D5C  EFB8  F00E         	goto	l5137
  7481   001D60                     u6140:
  7482   001D60  503A               	movf	___flmul@bexp^0,w,c
  7483   001D62  A4D8               	btfss	status,2,c
  7484   001D64  EFB6  F00E         	goto	u6151
  7485   001D68  EFB8  F00E         	goto	u6150
  7486   001D6C                     u6151:
  7487   001D6C  EFC2  F00E         	goto	l5141
  7488   001D70                     u6150:
  7489   001D70                     l5137:
  7490   001D70  0E00               	movlw	0
  7491   001D72  6E28               	movwf	?___flmul^0,c
  7492   001D74  0E00               	movlw	0
  7493   001D76  6E29               	movwf	(?___flmul+1)^0,c
  7494   001D78  0E00               	movlw	0
  7495   001D7A  6E2A               	movwf	(?___flmul+2)^0,c
  7496   001D7C  0E00               	movlw	0
  7497   001D7E  6E2B               	movwf	(?___flmul+3)^0,c
  7498   001D80  EF5A  F010         	goto	l738
  7499   001D84                     l5141:
  7500   001D84  502E               	movf	(___flmul@a+2)^0,w,c
  7501   001D86  0228               	mulwf	___flmul@b^0,c
  7502   001D88  CFF3 F03F          	movff	prodl,___flmul@temp
  7503   001D8C  CFF4 F040          	movff	prodh,___flmul@temp+1
  7504   001D90  503F               	movf	___flmul@temp^0,w,c
  7505   001D92  6E36               	movwf	___flmul@grs^0,c
  7506   001D94  6A37               	clrf	(___flmul@grs+1)^0,c
  7507   001D96  6A38               	clrf	(___flmul@grs+2)^0,c
  7508   001D98  6A39               	clrf	(___flmul@grs+3)^0,c
  7509   001D9A  5040               	movf	(___flmul@temp+1)^0,w,c
  7510   001D9C  6E3B               	movwf	___flmul@prod^0,c
  7511   001D9E  6A3C               	clrf	(___flmul@prod+1)^0,c
  7512   001DA0  6A3D               	clrf	(___flmul@prod+2)^0,c
  7513   001DA2  6A3E               	clrf	(___flmul@prod+3)^0,c
  7514   001DA4  502D               	movf	(___flmul@a+1)^0,w,c
  7515   001DA6  0229               	mulwf	(___flmul@b+1)^0,c
  7516   001DA8  CFF3 F03F          	movff	prodl,___flmul@temp
  7517   001DAC  CFF4 F040          	movff	prodh,___flmul@temp+1
  7518   001DB0  503F               	movf	___flmul@temp^0,w,c
  7519   001DB2  2636               	addwf	___flmul@grs^0,f,c
  7520   001DB4  0E00               	movlw	0
  7521   001DB6  2237               	addwfc	(___flmul@grs+1)^0,f,c
  7522   001DB8  2238               	addwfc	(___flmul@grs+2)^0,f,c
  7523   001DBA  2239               	addwfc	(___flmul@grs+3)^0,f,c
  7524   001DBC  5040               	movf	(___flmul@temp+1)^0,w,c
  7525   001DBE  263B               	addwf	___flmul@prod^0,f,c
  7526   001DC0  0E00               	movlw	0
  7527   001DC2  223C               	addwfc	(___flmul@prod+1)^0,f,c
  7528   001DC4  223D               	addwfc	(___flmul@prod+2)^0,f,c
  7529   001DC6  223E               	addwfc	(___flmul@prod+3)^0,f,c
  7530   001DC8  502C               	movf	___flmul@a^0,w,c
  7531   001DCA  022A               	mulwf	(___flmul@b+2)^0,c
  7532   001DCC  CFF3 F03F          	movff	prodl,___flmul@temp
  7533   001DD0  CFF4 F040          	movff	prodh,___flmul@temp+1
  7534   001DD4  503F               	movf	___flmul@temp^0,w,c
  7535   001DD6  2636               	addwf	___flmul@grs^0,f,c
  7536   001DD8  0E00               	movlw	0
  7537   001DDA  2237               	addwfc	(___flmul@grs+1)^0,f,c
  7538   001DDC  2238               	addwfc	(___flmul@grs+2)^0,f,c
  7539   001DDE  2239               	addwfc	(___flmul@grs+3)^0,f,c
  7540   001DE0  5040               	movf	(___flmul@temp+1)^0,w,c
  7541   001DE2  263B               	addwf	___flmul@prod^0,f,c
  7542   001DE4  0E00               	movlw	0
  7543   001DE6  223C               	addwfc	(___flmul@prod+1)^0,f,c
  7544   001DE8  223D               	addwfc	(___flmul@prod+2)^0,f,c
  7545   001DEA  223E               	addwfc	(___flmul@prod+3)^0,f,c
  7546   001DEC  C038  F039         	movff	___flmul@grs+2,___flmul@grs+3
  7547   001DF0  C037  F038         	movff	___flmul@grs+1,___flmul@grs+2
  7548   001DF4  C036  F037         	movff	___flmul@grs,___flmul@grs+1
  7549   001DF8  6A36               	clrf	___flmul@grs^0,c
  7550   001DFA  502C               	movf	___flmul@a^0,w,c
  7551   001DFC  0229               	mulwf	(___flmul@b+1)^0,c
  7552   001DFE  CFF3 F03F          	movff	prodl,___flmul@temp
  7553   001E02  CFF4 F040          	movff	prodh,___flmul@temp+1
  7554   001E06  503F               	movf	___flmul@temp^0,w,c
  7555   001E08  2636               	addwf	___flmul@grs^0,f,c
  7556   001E0A  5040               	movf	(___flmul@temp+1)^0,w,c
  7557   001E0C  2237               	addwfc	(___flmul@grs+1)^0,f,c
  7558   001E0E  0E00               	movlw	0
  7559   001E10  2238               	addwfc	(___flmul@grs+2)^0,f,c
  7560   001E12  0E00               	movlw	0
  7561   001E14  2239               	addwfc	(___flmul@grs+3)^0,f,c
  7562   001E16  502D               	movf	(___flmul@a+1)^0,w,c
  7563   001E18  0228               	mulwf	___flmul@b^0,c
  7564   001E1A  CFF3 F03F          	movff	prodl,___flmul@temp
  7565   001E1E  CFF4 F040          	movff	prodh,___flmul@temp+1
  7566   001E22  503F               	movf	___flmul@temp^0,w,c
  7567   001E24  2636               	addwf	___flmul@grs^0,f,c
  7568   001E26  5040               	movf	(___flmul@temp+1)^0,w,c
  7569   001E28  2237               	addwfc	(___flmul@grs+1)^0,f,c
  7570   001E2A  0E00               	movlw	0
  7571   001E2C  2238               	addwfc	(___flmul@grs+2)^0,f,c
  7572   001E2E  0E00               	movlw	0
  7573   001E30  2239               	addwfc	(___flmul@grs+3)^0,f,c
  7574   001E32  C038  F039         	movff	___flmul@grs+2,___flmul@grs+3
  7575   001E36  C037  F038         	movff	___flmul@grs+1,___flmul@grs+2
  7576   001E3A  C036  F037         	movff	___flmul@grs,___flmul@grs+1
  7577   001E3E  6A36               	clrf	___flmul@grs^0,c
  7578   001E40  502C               	movf	___flmul@a^0,w,c
  7579   001E42  0228               	mulwf	___flmul@b^0,c
  7580   001E44  CFF3 F03F          	movff	prodl,___flmul@temp
  7581   001E48  CFF4 F040          	movff	prodh,___flmul@temp+1
  7582   001E4C  503F               	movf	___flmul@temp^0,w,c
  7583   001E4E  2636               	addwf	___flmul@grs^0,f,c
  7584   001E50  5040               	movf	(___flmul@temp+1)^0,w,c
  7585   001E52  2237               	addwfc	(___flmul@grs+1)^0,f,c
  7586   001E54  0E00               	movlw	0
  7587   001E56  2238               	addwfc	(___flmul@grs+2)^0,f,c
  7588   001E58  0E00               	movlw	0
  7589   001E5A  2239               	addwfc	(___flmul@grs+3)^0,f,c
  7590   001E5C  502E               	movf	(___flmul@a+2)^0,w,c
  7591   001E5E  0229               	mulwf	(___flmul@b+1)^0,c
  7592   001E60  CFF3 F03F          	movff	prodl,___flmul@temp
  7593   001E64  CFF4 F040          	movff	prodh,___flmul@temp+1
  7594   001E68  503F               	movf	___flmul@temp^0,w,c
  7595   001E6A  263B               	addwf	___flmul@prod^0,f,c
  7596   001E6C  5040               	movf	(___flmul@temp+1)^0,w,c
  7597   001E6E  223C               	addwfc	(___flmul@prod+1)^0,f,c
  7598   001E70  0E00               	movlw	0
  7599   001E72  223D               	addwfc	(___flmul@prod+2)^0,f,c
  7600   001E74  0E00               	movlw	0
  7601   001E76  223E               	addwfc	(___flmul@prod+3)^0,f,c
  7602   001E78  502D               	movf	(___flmul@a+1)^0,w,c
  7603   001E7A  022A               	mulwf	(___flmul@b+2)^0,c
  7604   001E7C  CFF3 F03F          	movff	prodl,___flmul@temp
  7605   001E80  CFF4 F040          	movff	prodh,___flmul@temp+1
  7606   001E84  503F               	movf	___flmul@temp^0,w,c
  7607   001E86  263B               	addwf	___flmul@prod^0,f,c
  7608   001E88  5040               	movf	(___flmul@temp+1)^0,w,c
  7609   001E8A  223C               	addwfc	(___flmul@prod+1)^0,f,c
  7610   001E8C  0E00               	movlw	0
  7611   001E8E  223D               	addwfc	(___flmul@prod+2)^0,f,c
  7612   001E90  0E00               	movlw	0
  7613   001E92  223E               	addwfc	(___flmul@prod+3)^0,f,c
  7614   001E94  502E               	movf	(___flmul@a+2)^0,w,c
  7615   001E96  022A               	mulwf	(___flmul@b+2)^0,c
  7616   001E98  CFF3 F03F          	movff	prodl,___flmul@temp
  7617   001E9C  CFF4 F040          	movff	prodh,___flmul@temp+1
  7618   001EA0  503F               	movf	___flmul@temp^0,w,c
  7619   001EA2  6E30               	movwf	??___flmul^0,c
  7620   001EA4  5040               	movf	(___flmul@temp+1)^0,w,c
  7621   001EA6  6E31               	movwf	(??___flmul+1)^0,c
  7622   001EA8  6A32               	clrf	(??___flmul+2)^0,c
  7623   001EAA  6A33               	clrf	(??___flmul+3)^0,c
  7624   001EAC  C032  F033         	movff	??___flmul+2,??___flmul+3
  7625   001EB0  C031  F032         	movff	??___flmul+1,??___flmul+2
  7626   001EB4  C030  F031         	movff	??___flmul,??___flmul+1
  7627   001EB8  6A30               	clrf	??___flmul^0,c
  7628   001EBA  5030               	movf	??___flmul^0,w,c
  7629   001EBC  263B               	addwf	___flmul@prod^0,f,c
  7630   001EBE  5031               	movf	(??___flmul+1)^0,w,c
  7631   001EC0  223C               	addwfc	(___flmul@prod+1)^0,f,c
  7632   001EC2  5032               	movf	(??___flmul+2)^0,w,c
  7633   001EC4  223D               	addwfc	(___flmul@prod+2)^0,f,c
  7634   001EC6  5033               	movf	(??___flmul+3)^0,w,c
  7635   001EC8  223E               	addwfc	(___flmul@prod+3)^0,f,c
  7636   001ECA  C036  F030         	movff	___flmul@grs,??___flmul
  7637   001ECE  C037  F031         	movff	___flmul@grs+1,??___flmul+1
  7638   001ED2  C038  F032         	movff	___flmul@grs+2,??___flmul+2
  7639   001ED6  C039  F033         	movff	___flmul@grs+3,??___flmul+3
  7640   001EDA  0E19               	movlw	25
  7641   001EDC  EF75  F00F         	goto	u6160
  7642   001EE0                     u6165:
  7643   001EE0  90D8               	bcf	status,0,c
  7644   001EE2  3233               	rrcf	(??___flmul+3)^0,f,c
  7645   001EE4  3232               	rrcf	(??___flmul+2)^0,f,c
  7646   001EE6  3231               	rrcf	(??___flmul+1)^0,f,c
  7647   001EE8  3230               	rrcf	??___flmul^0,f,c
  7648   001EEA                     u6160:
  7649   001EEA  2EE8               	decfsz	wreg,f,c
  7650   001EEC  EF70  F00F         	goto	u6165
  7651   001EF0  5030               	movf	??___flmul^0,w,c
  7652   001EF2  263B               	addwf	___flmul@prod^0,f,c
  7653   001EF4  5031               	movf	(??___flmul+1)^0,w,c
  7654   001EF6  223C               	addwfc	(___flmul@prod+1)^0,f,c
  7655   001EF8  5032               	movf	(??___flmul+2)^0,w,c
  7656   001EFA  223D               	addwfc	(___flmul@prod+2)^0,f,c
  7657   001EFC  5033               	movf	(??___flmul+3)^0,w,c
  7658   001EFE  223E               	addwfc	(___flmul@prod+3)^0,f,c
  7659   001F00  C038  F039         	movff	___flmul@grs+2,___flmul@grs+3
  7660   001F04  C037  F038         	movff	___flmul@grs+1,___flmul@grs+2
  7661   001F08  C036  F037         	movff	___flmul@grs,___flmul@grs+1
  7662   001F0C  6A36               	clrf	___flmul@grs^0,c
  7663   001F0E  5035               	movf	___flmul@aexp^0,w,c
  7664   001F10  C03A  F030         	movff	___flmul@bexp,??___flmul
  7665   001F14  6A31               	clrf	(??___flmul+1)^0,c
  7666   001F16  2630               	addwf	??___flmul^0,f,c
  7667   001F18  0E00               	movlw	0
  7668   001F1A  2231               	addwfc	(??___flmul+1)^0,f,c
  7669   001F1C  0E82               	movlw	130
  7670   001F1E  2430               	addwf	??___flmul^0,w,c
  7671   001F20  6E3F               	movwf	___flmul@temp^0,c
  7672   001F22  0EFF               	movlw	255
  7673   001F24  2031               	addwfc	(??___flmul+1)^0,w,c
  7674   001F26  6E40               	movwf	(___flmul@temp+1)^0,c
  7675   001F28  EFAB  F00F         	goto	l5189
  7676   001F2C                     l5183:
  7677   001F2C  90D8               	bcf	status,0,c
  7678   001F2E  363B               	rlcf	___flmul@prod^0,f,c
  7679   001F30  363C               	rlcf	(___flmul@prod+1)^0,f,c
  7680   001F32  363D               	rlcf	(___flmul@prod+2)^0,f,c
  7681   001F34  363E               	rlcf	(___flmul@prod+3)^0,f,c
  7682   001F36  AE39               	btfss	(___flmul@grs+3)^0,7,c
  7683   001F38  EFA0  F00F         	goto	u6171
  7684   001F3C  EFA2  F00F         	goto	u6170
  7685   001F40                     u6171:
  7686   001F40  EFA3  F00F         	goto	l741
  7687   001F44                     u6170:
  7688   001F44  803B               	bsf	___flmul@prod^0,0,c
  7689   001F46                     l741:
  7690   001F46  90D8               	bcf	status,0,c
  7691   001F48  3636               	rlcf	___flmul@grs^0,f,c
  7692   001F4A  3637               	rlcf	(___flmul@grs+1)^0,f,c
  7693   001F4C  3638               	rlcf	(___flmul@grs+2)^0,f,c
  7694   001F4E  3639               	rlcf	(___flmul@grs+3)^0,f,c
  7695   001F50  063F               	decf	___flmul@temp^0,f,c
  7696   001F52  A0D8               	btfss	status,0,c
  7697   001F54  0640               	decf	(___flmul@temp+1)^0,f,c
  7698   001F56                     l5189:
  7699   001F56  AE3D               	btfss	(___flmul@prod+2)^0,7,c
  7700   001F58  EFB0  F00F         	goto	u6181
  7701   001F5C  EFB2  F00F         	goto	u6180
  7702   001F60                     u6181:
  7703   001F60  EF96  F00F         	goto	l5183
  7704   001F64                     u6180:
  7705   001F64  0E00               	movlw	0
  7706   001F66  6E35               	movwf	___flmul@aexp^0,c
  7707   001F68  AE39               	btfss	(___flmul@grs+3)^0,7,c
  7708   001F6A  EFB9  F00F         	goto	u6191
  7709   001F6E  EFBB  F00F         	goto	u6190
  7710   001F72                     u6191:
  7711   001F72  EFDF  F00F         	goto	l743
  7712   001F76                     u6190:
  7713   001F76  0EFF               	movlw	255
  7714   001F78  1436               	andwf	___flmul@grs^0,w,c
  7715   001F7A  6E30               	movwf	??___flmul^0,c
  7716   001F7C  0EFF               	movlw	255
  7717   001F7E  1437               	andwf	(___flmul@grs+1)^0,w,c
  7718   001F80  6E31               	movwf	(??___flmul+1)^0,c
  7719   001F82  0EFF               	movlw	255
  7720   001F84  1438               	andwf	(___flmul@grs+2)^0,w,c
  7721   001F86  6E32               	movwf	(??___flmul+2)^0,c
  7722   001F88  0E7F               	movlw	127
  7723   001F8A  1439               	andwf	(___flmul@grs+3)^0,w,c
  7724   001F8C  6E33               	movwf	(??___flmul+3)^0,c
  7725   001F8E  5030               	movf	??___flmul^0,w,c
  7726   001F90  1031               	iorwf	(??___flmul+1)^0,w,c
  7727   001F92  1032               	iorwf	(??___flmul+2)^0,w,c
  7728   001F94  1033               	iorwf	(??___flmul+3)^0,w,c
  7729   001F96  B4D8               	btfsc	status,2,c
  7730   001F98  EFD0  F00F         	goto	u6201
  7731   001F9C  EFD2  F00F         	goto	u6200
  7732   001FA0                     u6201:
  7733   001FA0  EFD6  F00F         	goto	l744
  7734   001FA4                     u6200:
  7735   001FA4                     l5197:
  7736   001FA4  0E01               	movlw	1
  7737   001FA6  6E35               	movwf	___flmul@aexp^0,c
  7738   001FA8  EFDF  F00F         	goto	l743
  7739   001FAC                     l744:
  7740   001FAC  A03B               	btfss	___flmul@prod^0,0,c
  7741   001FAE  EFDB  F00F         	goto	u6211
  7742   001FB2  EFDD  F00F         	goto	u6210
  7743   001FB6                     u6211:
  7744   001FB6  EFDF  F00F         	goto	l743
  7745   001FBA                     u6210:
  7746   001FBA  EFD2  F00F         	goto	l5197
  7747   001FBE                     l743:
  7748   001FBE  5035               	movf	___flmul@aexp^0,w,c
  7749   001FC0  B4D8               	btfsc	status,2,c
  7750   001FC2  EFE5  F00F         	goto	u6221
  7751   001FC6  EFE7  F00F         	goto	u6220
  7752   001FCA                     u6221:
  7753   001FCA  EF0B  F010         	goto	l5209
  7754   001FCE                     u6220:
  7755   001FCE  0E01               	movlw	1
  7756   001FD0  263B               	addwf	___flmul@prod^0,f,c
  7757   001FD2  0E00               	movlw	0
  7758   001FD4  223C               	addwfc	(___flmul@prod+1)^0,f,c
  7759   001FD6  223D               	addwfc	(___flmul@prod+2)^0,f,c
  7760   001FD8  223E               	addwfc	(___flmul@prod+3)^0,f,c
  7761   001FDA  A03E               	btfss	(___flmul@prod+3)^0,0,c
  7762   001FDC  EFF2  F00F         	goto	u6231
  7763   001FE0  EFF4  F00F         	goto	u6230
  7764   001FE4                     u6231:
  7765   001FE4  EF0B  F010         	goto	l5209
  7766   001FE8                     u6230:
  7767   001FE8  C03B  F030         	movff	___flmul@prod,??___flmul
  7768   001FEC  C03C  F031         	movff	___flmul@prod+1,??___flmul+1
  7769   001FF0  C03D  F032         	movff	___flmul@prod+2,??___flmul+2
  7770   001FF4  C03E  F033         	movff	___flmul@prod+3,??___flmul+3
  7771   001FF8  3433               	rlcf	(??___flmul+3)^0,w,c
  7772   001FFA  3233               	rrcf	(??___flmul+3)^0,f,c
  7773   001FFC  3232               	rrcf	(??___flmul+2)^0,f,c
  7774   001FFE  3231               	rrcf	(??___flmul+1)^0,f,c
  7775   002000  3230               	rrcf	??___flmul^0,f,c
  7776   002002  C030  F03B         	movff	??___flmul,___flmul@prod
  7777   002006  C031  F03C         	movff	??___flmul+1,___flmul@prod+1
  7778   00200A  C032  F03D         	movff	??___flmul+2,___flmul@prod+2
  7779   00200E  C033  F03E         	movff	??___flmul+3,___flmul@prod+3
  7780   002012  4A3F               	infsnz	___flmul@temp^0,f,c
  7781   002014  2A40               	incf	(___flmul@temp+1)^0,f,c
  7782   002016                     l5209:
  7783   002016  BE40               	btfsc	(___flmul@temp+1)^0,7,c
  7784   002018  EF16  F010         	goto	u6241
  7785   00201C  5040               	movf	(___flmul@temp+1)^0,w,c
  7786   00201E  E108               	bnz	u6240
  7787   002020  283F               	incf	___flmul@temp^0,w,c
  7788   002022  A0D8               	btfss	status,0,c
  7789   002024  EF16  F010         	goto	u6241
  7790   002028  EF18  F010         	goto	u6240
  7791   00202C                     u6241:
  7792   00202C  EF22  F010         	goto	l5213
  7793   002030                     u6240:
  7794   002030  0E00               	movlw	0
  7795   002032  6E3B               	movwf	___flmul@prod^0,c
  7796   002034  0E00               	movlw	0
  7797   002036  6E3C               	movwf	(___flmul@prod+1)^0,c
  7798   002038  0E80               	movlw	128
  7799   00203A  6E3D               	movwf	(___flmul@prod+2)^0,c
  7800   00203C  0E7F               	movlw	127
  7801   00203E  6E3E               	movwf	(___flmul@prod+3)^0,c
  7802   002040  EF50  F010         	goto	l5225
  7803   002044                     l5213:
  7804   002044  BE40               	btfsc	(___flmul@temp+1)^0,7,c
  7805   002046  EF2F  F010         	goto	u6250
  7806   00204A  5040               	movf	(___flmul@temp+1)^0,w,c
  7807   00204C  E106               	bnz	u6251
  7808   00204E  043F               	decf	___flmul@temp^0,w,c
  7809   002050  B0D8               	btfsc	status,0,c
  7810   002052  EF2D  F010         	goto	u6251
  7811   002056  EF2F  F010         	goto	u6250
  7812   00205A                     u6251:
  7813   00205A  EF3B  F010         	goto	l751
  7814   00205E                     u6250:
  7815   00205E  0E00               	movlw	0
  7816   002060  6E3B               	movwf	___flmul@prod^0,c
  7817   002062  0E00               	movlw	0
  7818   002064  6E3C               	movwf	(___flmul@prod+1)^0,c
  7819   002066  0E00               	movlw	0
  7820   002068  6E3D               	movwf	(___flmul@prod+2)^0,c
  7821   00206A  0E00               	movlw	0
  7822   00206C  6E3E               	movwf	(___flmul@prod+3)^0,c
  7823   00206E  0E00               	movlw	0
  7824   002070  6E34               	movwf	___flmul@sign^0,c
  7825   002072  EF50  F010         	goto	l5225
  7826   002076                     l751:
  7827   002076  C03F  F03A         	movff	___flmul@temp,___flmul@bexp
  7828   00207A  0EFF               	movlw	255
  7829   00207C  163B               	andwf	___flmul@prod^0,f,c
  7830   00207E  0EFF               	movlw	255
  7831   002080  163C               	andwf	(___flmul@prod+1)^0,f,c
  7832   002082  0E7F               	movlw	127
  7833   002084  163D               	andwf	(___flmul@prod+2)^0,f,c
  7834   002086  0E00               	movlw	0
  7835   002088  163E               	andwf	(___flmul@prod+3)^0,f,c
  7836   00208A  A03A               	btfss	___flmul@bexp^0,0,c
  7837   00208C  EF4A  F010         	goto	u6261
  7838   002090  EF4C  F010         	goto	u6260
  7839   002094                     u6261:
  7840   002094  EF4D  F010         	goto	l5223
  7841   002098                     u6260:
  7842   002098  8E3D               	bsf	(___flmul@prod+2)^0,7,c
  7843   00209A                     l5223:
  7844   00209A  90D8               	bcf	status,0,c
  7845   00209C  303A               	rrcf	___flmul@bexp^0,w,c
  7846   00209E  6E3E               	movwf	(___flmul@prod+3)^0,c
  7847   0020A0                     l5225:
  7848   0020A0  5034               	movf	___flmul@sign^0,w,c
  7849   0020A2  123E               	iorwf	(___flmul@prod+3)^0,f,c
  7850   0020A4  C03B  F028         	movff	___flmul@prod,?___flmul
  7851   0020A8  C03C  F029         	movff	___flmul@prod+1,?___flmul+1
  7852   0020AC  C03D  F02A         	movff	___flmul@prod+2,?___flmul+2
  7853   0020B0  C03E  F02B         	movff	___flmul@prod+3,?___flmul+3
  7854   0020B4                     l738:
  7855   0020B4  0012               	return		;funcret
  7856   0020B6                     __end_of___flmul:
  7857                           	callstack 0
  7858                           
  7859 ;; *************** function ___flge *****************
  7860 ;; Defined at:
  7861 ;;		line 4 in file "C:\Program Files\Microchip\xc8\v2.45\pic\sources\c99\common\flge.c"
  7862 ;; Parameters:    Size  Location     Type
  7863 ;;  ff1             4   84[BANK0 ] unsigned char 
  7864 ;;  ff2             4   88[BANK0 ] unsigned char 
  7865 ;; Auto vars:     Size  Location     Type
  7866 ;;		None
  7867 ;; Return value:  Size  Location     Type
  7868 ;;		None               void
  7869 ;; Registers used:
  7870 ;;		wreg, status,2, status,0
  7871 ;; Tracked objects:
  7872 ;;		On entry : 0/0
  7873 ;;		On exit  : 0/0
  7874 ;;		Unchanged: 0/0
  7875 ;; Data sizes:     COMRAM   BANK0   BANK1   BANK2   BANK3   BANK4   BANK5   BANK6   BANK7
  7876 ;;      Params:         0       8       0       0       0       0       0       0       0
  7877 ;;      Locals:         0       0       0       0       0       0       0       0       0
  7878 ;;      Temps:          0       4       0       0       0       0       0       0       0
  7879 ;;      Totals:         0      12       0       0       0       0       0       0       0
  7880 ;;Total ram usage:       12 bytes
  7881 ;; Hardware stack levels used: 1
  7882 ;; This function calls:
  7883 ;;		Nothing
  7884 ;; This function is called by:
  7885 ;;		_main
  7886 ;;		_efgtoa
  7887 ;; This function uses a non-reentrant model
  7888 ;;
  7889                           
  7890                           	psect	text24
  7891   003CCE                     __ptext24:
  7892                           	callstack 0
  7893   003CCE                     ___flge:
  7894                           	callstack 30
  7895   003CCE  0E00               	movlw	0
  7896   003CD0  0100               	movlb	0	; () banked
  7897   003CD2  15B4               	andwf	___flge@ff1& (0+255),w,b
  7898   003CD4  6FBC               	movwf	??___flge& (0+255),b
  7899   003CD6  0E00               	movlw	0
  7900   003CD8  15B5               	andwf	(___flge@ff1+1)& (0+255),w,b
  7901   003CDA  6FBD               	movwf	(??___flge+1)& (0+255),b
  7902   003CDC  0E80               	movlw	128
  7903   003CDE  15B6               	andwf	(___flge@ff1+2)& (0+255),w,b
  7904   003CE0  6FBE               	movwf	(??___flge+2)& (0+255),b
  7905   003CE2  0E7F               	movlw	127
  7906   003CE4  15B7               	andwf	(___flge@ff1+3)& (0+255),w,b
  7907   003CE6  6FBF               	movwf	(??___flge+3)& (0+255),b
  7908   003CE8  51BC               	movf	??___flge& (0+255),w,b
  7909   003CEA  11BD               	iorwf	(??___flge+1)& (0+255),w,b
  7910   003CEC  11BE               	iorwf	(??___flge+2)& (0+255),w,b
  7911   003CEE  11BF               	iorwf	(??___flge+3)& (0+255),w,b
  7912   003CF0  A4D8               	btfss	status,2,c
  7913   003CF2  EF7D  F01E         	goto	u6421
  7914   003CF6  EF7F  F01E         	goto	u6420
  7915   003CFA                     u6421:
  7916   003CFA  EF87  F01E         	goto	l5337
  7917   003CFE                     u6420:
  7918   003CFE                     
  7919                           ; BSR set to: 0
  7920   003CFE  0E00               	movlw	0
  7921   003D00  6FB4               	movwf	___flge@ff1& (0+255),b
  7922   003D02  0E00               	movlw	0
  7923   003D04  6FB5               	movwf	(___flge@ff1+1)& (0+255),b
  7924   003D06  0E00               	movlw	0
  7925   003D08  6FB6               	movwf	(___flge@ff1+2)& (0+255),b
  7926   003D0A  0E00               	movlw	0
  7927   003D0C  6FB7               	movwf	(___flge@ff1+3)& (0+255),b
  7928   003D0E                     l5337:
  7929                           
  7930                           ; BSR set to: 0
  7931   003D0E  0E00               	movlw	0
  7932   003D10  15B8               	andwf	___flge@ff2& (0+255),w,b
  7933   003D12  6FBC               	movwf	??___flge& (0+255),b
  7934   003D14  0E00               	movlw	0
  7935   003D16  15B9               	andwf	(___flge@ff2+1)& (0+255),w,b
  7936   003D18  6FBD               	movwf	(??___flge+1)& (0+255),b
  7937   003D1A  0E80               	movlw	128
  7938   003D1C  15BA               	andwf	(___flge@ff2+2)& (0+255),w,b
  7939   003D1E  6FBE               	movwf	(??___flge+2)& (0+255),b
  7940   003D20  0E7F               	movlw	127
  7941   003D22  15BB               	andwf	(___flge@ff2+3)& (0+255),w,b
  7942   003D24  6FBF               	movwf	(??___flge+3)& (0+255),b
  7943   003D26  51BC               	movf	??___flge& (0+255),w,b
  7944   003D28  11BD               	iorwf	(??___flge+1)& (0+255),w,b
  7945   003D2A  11BE               	iorwf	(??___flge+2)& (0+255),w,b
  7946   003D2C  11BF               	iorwf	(??___flge+3)& (0+255),w,b
  7947   003D2E  A4D8               	btfss	status,2,c
  7948   003D30  EF9C  F01E         	goto	u6431
  7949   003D34  EF9E  F01E         	goto	u6430
  7950   003D38                     u6431:
  7951   003D38  EFA6  F01E         	goto	l5341
  7952   003D3C                     u6430:
  7953   003D3C                     
  7954                           ; BSR set to: 0
  7955   003D3C  0E00               	movlw	0
  7956   003D3E  6FB8               	movwf	___flge@ff2& (0+255),b
  7957   003D40  0E00               	movlw	0
  7958   003D42  6FB9               	movwf	(___flge@ff2+1)& (0+255),b
  7959   003D44  0E00               	movlw	0
  7960   003D46  6FBA               	movwf	(___flge@ff2+2)& (0+255),b
  7961   003D48  0E00               	movlw	0
  7962   003D4A  6FBB               	movwf	(___flge@ff2+3)& (0+255),b
  7963   003D4C                     l5341:
  7964                           
  7965                           ; BSR set to: 0
  7966   003D4C  AFB7               	btfss	(___flge@ff1+3)& (0+255),7,b
  7967   003D4E  EFAB  F01E         	goto	u6441
  7968   003D52  EFAD  F01E         	goto	u6440
  7969   003D56                     u6441:
  7970   003D56  EFB6  F01E         	goto	l5345
  7971   003D5A                     u6440:
  7972   003D5A                     
  7973                           ; BSR set to: 0
  7974   003D5A  6DB4               	negf	___flge@ff1& (0+255),b
  7975   003D5C  1FB5               	comf	(___flge@ff1+1)& (0+255),f,b
  7976   003D5E  B0D8               	btfsc	status,0,c
  7977   003D60  2BB5               	incf	(___flge@ff1+1)& (0+255),f,b
  7978   003D62  1FB6               	comf	(___flge@ff1+2)& (0+255),f,b
  7979   003D64  B0D8               	btfsc	status,0,c
  7980   003D66  2BB6               	incf	(___flge@ff1+2)& (0+255),f,b
  7981   003D68  0E80               	movlw	128
  7982   003D6A  57B7               	subfwb	(___flge@ff1+3)& (0+255),f,b
  7983   003D6C                     l5345:
  7984                           
  7985                           ; BSR set to: 0
  7986   003D6C  AFBB               	btfss	(___flge@ff2+3)& (0+255),7,b
  7987   003D6E  EFBB  F01E         	goto	u6451
  7988   003D72  EFBD  F01E         	goto	u6450
  7989   003D76                     u6451:
  7990   003D76  EFC6  F01E         	goto	l385
  7991   003D7A                     u6450:
  7992   003D7A                     
  7993                           ; BSR set to: 0
  7994   003D7A  6DB8               	negf	___flge@ff2& (0+255),b
  7995   003D7C  1FB9               	comf	(___flge@ff2+1)& (0+255),f,b
  7996   003D7E  B0D8               	btfsc	status,0,c
  7997   003D80  2BB9               	incf	(___flge@ff2+1)& (0+255),f,b
  7998   003D82  1FBA               	comf	(___flge@ff2+2)& (0+255),f,b
  7999   003D84  B0D8               	btfsc	status,0,c
  8000   003D86  2BBA               	incf	(___flge@ff2+2)& (0+255),f,b
  8001   003D88  0E80               	movlw	128
  8002   003D8A  57BB               	subfwb	(___flge@ff2+3)& (0+255),f,b
  8003   003D8C                     l385:
  8004                           
  8005                           ; BSR set to: 0
  8006   003D8C  0E00               	movlw	0
  8007   003D8E  1BB4               	xorwf	___flge@ff1& (0+255),f,b
  8008   003D90  0E00               	movlw	0
  8009   003D92  1BB5               	xorwf	(___flge@ff1+1)& (0+255),f,b
  8010   003D94  0E00               	movlw	0
  8011   003D96  1BB6               	xorwf	(___flge@ff1+2)& (0+255),f,b
  8012   003D98  0E80               	movlw	128
  8013   003D9A  1BB7               	xorwf	(___flge@ff1+3)& (0+255),f,b
  8014   003D9C  0E00               	movlw	0
  8015   003D9E  1BB8               	xorwf	___flge@ff2& (0+255),f,b
  8016   003DA0  0E00               	movlw	0
  8017   003DA2  1BB9               	xorwf	(___flge@ff2+1)& (0+255),f,b
  8018   003DA4  0E00               	movlw	0
  8019   003DA6  1BBA               	xorwf	(___flge@ff2+2)& (0+255),f,b
  8020   003DA8  0E80               	movlw	128
  8021   003DAA  1BBB               	xorwf	(___flge@ff2+3)& (0+255),f,b
  8022   003DAC  51B8               	movf	___flge@ff2& (0+255),w,b
  8023   003DAE  5DB4               	subwf	___flge@ff1& (0+255),w,b
  8024   003DB0  51B9               	movf	(___flge@ff2+1)& (0+255),w,b
  8025   003DB2  59B5               	subwfb	(___flge@ff1+1)& (0+255),w,b
  8026   003DB4  51BA               	movf	(___flge@ff2+2)& (0+255),w,b
  8027   003DB6  59B6               	subwfb	(___flge@ff1+2)& (0+255),w,b
  8028   003DB8  51BB               	movf	(___flge@ff2+3)& (0+255),w,b
  8029   003DBA  59B7               	subwfb	(___flge@ff1+3)& (0+255),w,b
  8030   003DBC  B0D8               	btfsc	status,0,c
  8031   003DBE  EFE3  F01E         	goto	u6461
  8032   003DC2  EFE5  F01E         	goto	u6460
  8033   003DC6                     u6461:
  8034   003DC6  EFE8  F01E         	goto	l5351
  8035   003DCA                     u6460:
  8036   003DCA                     
  8037                           ; BSR set to: 0
  8038   003DCA  90D8               	bcf	status,0,c
  8039   003DCC  EFE9  F01E         	goto	l390
  8040   003DD0                     l5351:
  8041                           
  8042                           ; BSR set to: 0
  8043   003DD0  80D8               	bsf	status,0,c
  8044   003DD2                     l390:
  8045                           
  8046                           ; BSR set to: 0
  8047   003DD2  0012               	return		;funcret
  8048   003DD4                     __end_of___flge:
  8049                           	callstack 0
  8050                           
  8051 ;; *************** function ___fleq *****************
  8052 ;; Defined at:
  8053 ;;		line 4 in file "C:\Program Files\Microchip\xc8\v2.45\pic\sources\c99\common\fleq.c"
  8054 ;; Parameters:    Size  Location     Type
  8055 ;;  ff1             4    0[COMRAM] unsigned char 
  8056 ;;  ff2             4    4[COMRAM] unsigned char 
  8057 ;; Auto vars:     Size  Location     Type
  8058 ;;		None
  8059 ;; Return value:  Size  Location     Type
  8060 ;;		None               void
  8061 ;; Registers used:
  8062 ;;		wreg, status,2, status,0
  8063 ;; Tracked objects:
  8064 ;;		On entry : 0/0
  8065 ;;		On exit  : 0/0
  8066 ;;		Unchanged: 0/0
  8067 ;; Data sizes:     COMRAM   BANK0   BANK1   BANK2   BANK3   BANK4   BANK5   BANK6   BANK7
  8068 ;;      Params:         8       0       0       0       0       0       0       0       0
  8069 ;;      Locals:         0       0       0       0       0       0       0       0       0
  8070 ;;      Temps:          4       0       0       0       0       0       0       0       0
  8071 ;;      Totals:        12       0       0       0       0       0       0       0       0
  8072 ;;Total ram usage:       12 bytes
  8073 ;; Hardware stack levels used: 1
  8074 ;; This function calls:
  8075 ;;		Nothing
  8076 ;; This function is called by:
  8077 ;;		_efgtoa
  8078 ;; This function uses a non-reentrant model
  8079 ;;
  8080                           
  8081                           	psect	text25
  8082   0041C6                     __ptext25:
  8083                           	callstack 0
  8084   0041C6                     ___fleq:
  8085                           	callstack 25
  8086   0041C6  0E00               	movlw	0
  8087   0041C8  1401               	andwf	___fleq@ff1^0,w,c
  8088   0041CA  6E09               	movwf	??___fleq^0,c
  8089   0041CC  0E00               	movlw	0
  8090   0041CE  1402               	andwf	(___fleq@ff1+1)^0,w,c
  8091   0041D0  6E0A               	movwf	(??___fleq+1)^0,c
  8092   0041D2  0E80               	movlw	128
  8093   0041D4  1403               	andwf	(___fleq@ff1+2)^0,w,c
  8094   0041D6  6E0B               	movwf	(??___fleq+2)^0,c
  8095   0041D8  0E7F               	movlw	127
  8096   0041DA  1404               	andwf	(___fleq@ff1+3)^0,w,c
  8097   0041DC  6E0C               	movwf	(??___fleq+3)^0,c
  8098   0041DE  5009               	movf	??___fleq^0,w,c
  8099   0041E0  100A               	iorwf	(??___fleq+1)^0,w,c
  8100   0041E2  100B               	iorwf	(??___fleq+2)^0,w,c
  8101   0041E4  100C               	iorwf	(??___fleq+3)^0,w,c
  8102   0041E6  A4D8               	btfss	status,2,c
  8103   0041E8  EFF8  F020         	goto	u6391
  8104   0041EC  EFFA  F020         	goto	u6390
  8105   0041F0                     u6391:
  8106   0041F0  EF02  F021         	goto	l5321
  8107   0041F4                     u6390:
  8108   0041F4  0E00               	movlw	0
  8109   0041F6  6E01               	movwf	___fleq@ff1^0,c
  8110   0041F8  0E00               	movlw	0
  8111   0041FA  6E02               	movwf	(___fleq@ff1+1)^0,c
  8112   0041FC  0E00               	movlw	0
  8113   0041FE  6E03               	movwf	(___fleq@ff1+2)^0,c
  8114   004200  0E00               	movlw	0
  8115   004202  6E04               	movwf	(___fleq@ff1+3)^0,c
  8116   004204                     l5321:
  8117   004204  0E00               	movlw	0
  8118   004206  1405               	andwf	___fleq@ff2^0,w,c
  8119   004208  6E09               	movwf	??___fleq^0,c
  8120   00420A  0E00               	movlw	0
  8121   00420C  1406               	andwf	(___fleq@ff2+1)^0,w,c
  8122   00420E  6E0A               	movwf	(??___fleq+1)^0,c
  8123   004210  0E80               	movlw	128
  8124   004212  1407               	andwf	(___fleq@ff2+2)^0,w,c
  8125   004214  6E0B               	movwf	(??___fleq+2)^0,c
  8126   004216  0E7F               	movlw	127
  8127   004218  1408               	andwf	(___fleq@ff2+3)^0,w,c
  8128   00421A  6E0C               	movwf	(??___fleq+3)^0,c
  8129   00421C  5009               	movf	??___fleq^0,w,c
  8130   00421E  100A               	iorwf	(??___fleq+1)^0,w,c
  8131   004220  100B               	iorwf	(??___fleq+2)^0,w,c
  8132   004222  100C               	iorwf	(??___fleq+3)^0,w,c
  8133   004224  A4D8               	btfss	status,2,c
  8134   004226  EF17  F021         	goto	u6401
  8135   00422A  EF19  F021         	goto	u6400
  8136   00422E                     u6401:
  8137   00422E  EF21  F021         	goto	l5325
  8138   004232                     u6400:
  8139   004232  0E00               	movlw	0
  8140   004234  6E05               	movwf	___fleq@ff2^0,c
  8141   004236  0E00               	movlw	0
  8142   004238  6E06               	movwf	(___fleq@ff2+1)^0,c
  8143   00423A  0E00               	movlw	0
  8144   00423C  6E07               	movwf	(___fleq@ff2+2)^0,c
  8145   00423E  0E00               	movlw	0
  8146   004240  6E08               	movwf	(___fleq@ff2+3)^0,c
  8147   004242                     l5325:
  8148   004242  5005               	movf	___fleq@ff2^0,w,c
  8149   004244  1801               	xorwf	___fleq@ff1^0,w,c
  8150   004246  E10F               	bnz	u6410
  8151   004248  5006               	movf	(___fleq@ff2+1)^0,w,c
  8152   00424A  1802               	xorwf	(___fleq@ff1+1)^0,w,c
  8153   00424C  E10C               	bnz	u6410
  8154   00424E  5007               	movf	(___fleq@ff2+2)^0,w,c
  8155   004250  1803               	xorwf	(___fleq@ff1+2)^0,w,c
  8156   004252  E109               	bnz	u6410
  8157   004254  5008               	movf	(___fleq@ff2+3)^0,w,c
  8158   004256  1804               	xorwf	(___fleq@ff1+3)^0,w,c
  8159   004258  B4D8               	btfsc	status,2,c
  8160   00425A  EF31  F021         	goto	u6411
  8161   00425E  EF33  F021         	goto	u6410
  8162   004262                     u6411:
  8163   004262  EF36  F021         	goto	l5329
  8164   004266                     u6410:
  8165   004266  90D8               	bcf	status,0,c
  8166   004268  EF37  F021         	goto	l379
  8167   00426C                     l5329:
  8168   00426C  80D8               	bsf	status,0,c
  8169   00426E                     l379:
  8170   00426E  0012               	return		;funcret
  8171   004270                     __end_of___fleq:
  8172                           	callstack 0
  8173                           
  8174 ;; *************** function ___fldiv *****************
  8175 ;; Defined at:
  8176 ;;		line 11 in file "C:\Program Files\Microchip\xc8\v2.45\pic\sources\c99\common\sprcdiv.c"
  8177 ;; Parameters:    Size  Location     Type
  8178 ;;  b               4   14[COMRAM] unsigned char 
  8179 ;;  a               4   18[COMRAM] unsigned char 
  8180 ;; Auto vars:     Size  Location     Type
  8181 ;;  grs             4   33[COMRAM] unsigned long 
  8182 ;;  rem             4   26[COMRAM] unsigned long 
  8183 ;;  new_exp         2   31[COMRAM] short 
  8184 ;;  aexp            1   38[COMRAM] unsigned char 
  8185 ;;  bexp            1   37[COMRAM] unsigned char 
  8186 ;;  sign            1   30[COMRAM] unsigned char 
  8187 ;; Return value:  Size  Location     Type
  8188 ;;                  4   14[COMRAM] unsigned char 
  8189 ;; Registers used:
  8190 ;;		wreg, status,2, status,0
  8191 ;; Tracked objects:
  8192 ;;		On entry : 0/0
  8193 ;;		On exit  : 0/0
  8194 ;;		Unchanged: 0/0
  8195 ;; Data sizes:     COMRAM   BANK0   BANK1   BANK2   BANK3   BANK4   BANK5   BANK6   BANK7
  8196 ;;      Params:         8       0       0       0       0       0       0       0       0
  8197 ;;      Locals:        13       0       0       0       0       0       0       0       0
  8198 ;;      Temps:          4       0       0       0       0       0       0       0       0
  8199 ;;      Totals:        25       0       0       0       0       0       0       0       0
  8200 ;;Total ram usage:       25 bytes
  8201 ;; Hardware stack levels used: 1
  8202 ;; This function calls:
  8203 ;;		Nothing
  8204 ;; This function is called by:
  8205 ;;		_main
  8206 ;;		_efgtoa
  8207 ;; This function uses a non-reentrant model
  8208 ;;
  8209                           
  8210                           	psect	text26
  8211   002850                     __ptext26:
  8212                           	callstack 0
  8213   002850                     ___fldiv:
  8214                           	callstack 30
  8215   002850  5012               	movf	(___fldiv@b+3)^0,w,c
  8216   002852  0B80               	andlw	128
  8217   002854  6E1F               	movwf	___fldiv@sign^0,c
  8218   002856  5012               	movf	(___fldiv@b+3)^0,w,c
  8219   002858  2412               	addwf	(___fldiv@b+3)^0,w,c
  8220   00285A  6E26               	movwf	___fldiv@bexp^0,c
  8221   00285C  AE11               	btfss	(___fldiv@b+2)^0,7,c
  8222   00285E  EF33  F014         	goto	u5851
  8223   002862  EF35  F014         	goto	u5850
  8224   002866                     u5851:
  8225   002866  EF36  F014         	goto	l4969
  8226   00286A                     u5850:
  8227   00286A  8026               	bsf	___fldiv@bexp^0,0,c
  8228   00286C                     l4969:
  8229   00286C  5026               	movf	___fldiv@bexp^0,w,c
  8230   00286E  B4D8               	btfsc	status,2,c
  8231   002870  EF3C  F014         	goto	u5861
  8232   002874  EF3E  F014         	goto	u5860
  8233   002878                     u5861:
  8234   002878  EF53  F014         	goto	l4979
  8235   00287C                     u5860:
  8236   00287C  2826               	incf	___fldiv@bexp^0,w,c
  8237   00287E  A4D8               	btfss	status,2,c
  8238   002880  EF44  F014         	goto	u5871
  8239   002884  EF46  F014         	goto	u5870
  8240   002888                     u5871:
  8241   002888  EF4E  F014         	goto	l4975
  8242   00288C                     u5870:
  8243   00288C  0E00               	movlw	0
  8244   00288E  6E0F               	movwf	___fldiv@b^0,c
  8245   002890  0E00               	movlw	0
  8246   002892  6E10               	movwf	(___fldiv@b+1)^0,c
  8247   002894  0E00               	movlw	0
  8248   002896  6E11               	movwf	(___fldiv@b+2)^0,c
  8249   002898  0E00               	movlw	0
  8250   00289A  6E12               	movwf	(___fldiv@b+3)^0,c
  8251   00289C                     l4975:
  8252   00289C  8E11               	bsf	(___fldiv@b+2)^0,7,c
  8253   00289E  0E00               	movlw	0
  8254   0028A0  6E12               	movwf	(___fldiv@b+3)^0,c
  8255   0028A2  EF5B  F014         	goto	l4981
  8256   0028A6                     l4979:
  8257   0028A6  0E00               	movlw	0
  8258   0028A8  6E0F               	movwf	___fldiv@b^0,c
  8259   0028AA  0E00               	movlw	0
  8260   0028AC  6E10               	movwf	(___fldiv@b+1)^0,c
  8261   0028AE  0E00               	movlw	0
  8262   0028B0  6E11               	movwf	(___fldiv@b+2)^0,c
  8263   0028B2  0E00               	movlw	0
  8264   0028B4  6E12               	movwf	(___fldiv@b+3)^0,c
  8265   0028B6                     l4981:
  8266   0028B6  5016               	movf	(___fldiv@a+3)^0,w,c
  8267   0028B8  0B80               	andlw	128
  8268   0028BA  1A1F               	xorwf	___fldiv@sign^0,f,c
  8269   0028BC  5016               	movf	(___fldiv@a+3)^0,w,c
  8270   0028BE  2416               	addwf	(___fldiv@a+3)^0,w,c
  8271   0028C0  6E27               	movwf	___fldiv@aexp^0,c
  8272   0028C2  AE15               	btfss	(___fldiv@a+2)^0,7,c
  8273   0028C4  EF66  F014         	goto	u5881
  8274   0028C8  EF68  F014         	goto	u5880
  8275   0028CC                     u5881:
  8276   0028CC  EF69  F014         	goto	l4989
  8277   0028D0                     u5880:
  8278   0028D0  8027               	bsf	___fldiv@aexp^0,0,c
  8279   0028D2                     l4989:
  8280   0028D2  5027               	movf	___fldiv@aexp^0,w,c
  8281   0028D4  B4D8               	btfsc	status,2,c
  8282   0028D6  EF6F  F014         	goto	u5891
  8283   0028DA  EF71  F014         	goto	u5890
  8284   0028DE                     u5891:
  8285   0028DE  EF86  F014         	goto	l4999
  8286   0028E2                     u5890:
  8287   0028E2  2827               	incf	___fldiv@aexp^0,w,c
  8288   0028E4  A4D8               	btfss	status,2,c
  8289   0028E6  EF77  F014         	goto	u5901
  8290   0028EA  EF79  F014         	goto	u5900
  8291   0028EE                     u5901:
  8292   0028EE  EF81  F014         	goto	l4995
  8293   0028F2                     u5900:
  8294   0028F2  0E00               	movlw	0
  8295   0028F4  6E13               	movwf	___fldiv@a^0,c
  8296   0028F6  0E00               	movlw	0
  8297   0028F8  6E14               	movwf	(___fldiv@a+1)^0,c
  8298   0028FA  0E00               	movlw	0
  8299   0028FC  6E15               	movwf	(___fldiv@a+2)^0,c
  8300   0028FE  0E00               	movlw	0
  8301   002900  6E16               	movwf	(___fldiv@a+3)^0,c
  8302   002902                     l4995:
  8303   002902  8E15               	bsf	(___fldiv@a+2)^0,7,c
  8304   002904  0E00               	movlw	0
  8305   002906  6E16               	movwf	(___fldiv@a+3)^0,c
  8306   002908  EF8E  F014         	goto	l5001
  8307   00290C                     l4999:
  8308   00290C  0E00               	movlw	0
  8309   00290E  6E13               	movwf	___fldiv@a^0,c
  8310   002910  0E00               	movlw	0
  8311   002912  6E14               	movwf	(___fldiv@a+1)^0,c
  8312   002914  0E00               	movlw	0
  8313   002916  6E15               	movwf	(___fldiv@a+2)^0,c
  8314   002918  0E00               	movlw	0
  8315   00291A  6E16               	movwf	(___fldiv@a+3)^0,c
  8316   00291C                     l5001:
  8317   00291C  5013               	movf	___fldiv@a^0,w,c
  8318   00291E  1014               	iorwf	(___fldiv@a+1)^0,w,c
  8319   002920  1015               	iorwf	(___fldiv@a+2)^0,w,c
  8320   002922  1016               	iorwf	(___fldiv@a+3)^0,w,c
  8321   002924  A4D8               	btfss	status,2,c
  8322   002926  EF97  F014         	goto	u5911
  8323   00292A  EF99  F014         	goto	u5910
  8324   00292E                     u5911:
  8325   00292E  EFB1  F014         	goto	l5013
  8326   002932                     u5910:
  8327   002932  0E00               	movlw	0
  8328   002934  6E0F               	movwf	___fldiv@b^0,c
  8329   002936  0E00               	movlw	0
  8330   002938  6E10               	movwf	(___fldiv@b+1)^0,c
  8331   00293A  0E00               	movlw	0
  8332   00293C  6E11               	movwf	(___fldiv@b+2)^0,c
  8333   00293E  0E00               	movlw	0
  8334   002940  6E12               	movwf	(___fldiv@b+3)^0,c
  8335   002942  0E80               	movlw	128
  8336   002944  1211               	iorwf	(___fldiv@b+2)^0,f,c
  8337   002946  0E7F               	movlw	127
  8338   002948  1212               	iorwf	(___fldiv@b+3)^0,f,c
  8339   00294A                     l5007:
  8340   00294A  501F               	movf	___fldiv@sign^0,w,c
  8341   00294C  1212               	iorwf	(___fldiv@b+3)^0,f,c
  8342   00294E  C00F  F00F         	movff	___fldiv@b,?___fldiv
  8343   002952  C010  F010         	movff	___fldiv@b+1,?___fldiv+1
  8344   002956  C011  F011         	movff	___fldiv@b+2,?___fldiv+2
  8345   00295A  C012  F012         	movff	___fldiv@b+3,?___fldiv+3
  8346   00295E  EFF4  F015         	goto	l702
  8347   002962                     l5013:
  8348   002962  5026               	movf	___fldiv@bexp^0,w,c
  8349   002964  A4D8               	btfss	status,2,c
  8350   002966  EFB7  F014         	goto	u5921
  8351   00296A  EFB9  F014         	goto	u5920
  8352   00296E                     u5921:
  8353   00296E  EFC3  F014         	goto	l5021
  8354   002972                     u5920:
  8355   002972  0E00               	movlw	0
  8356   002974  6E0F               	movwf	?___fldiv^0,c
  8357   002976  0E00               	movlw	0
  8358   002978  6E10               	movwf	(?___fldiv+1)^0,c
  8359   00297A  0E00               	movlw	0
  8360   00297C  6E11               	movwf	(?___fldiv+2)^0,c
  8361   00297E  0E00               	movlw	0
  8362   002980  6E12               	movwf	(?___fldiv+3)^0,c
  8363   002982  EFF4  F015         	goto	l702
  8364   002986                     l5021:
  8365   002986  5027               	movf	___fldiv@aexp^0,w,c
  8366   002988  C026  F017         	movff	___fldiv@bexp,??___fldiv
  8367   00298C  6A18               	clrf	(??___fldiv+1)^0,c
  8368   00298E  5E17               	subwf	??___fldiv^0,f,c
  8369   002990  0E00               	movlw	0
  8370   002992  5A18               	subwfb	(??___fldiv+1)^0,f,c
  8371   002994  0E7F               	movlw	127
  8372   002996  2417               	addwf	??___fldiv^0,w,c
  8373   002998  6E20               	movwf	___fldiv@new_exp^0,c
  8374   00299A  0E00               	movlw	0
  8375   00299C  2018               	addwfc	(??___fldiv+1)^0,w,c
  8376   00299E  6E21               	movwf	(___fldiv@new_exp+1)^0,c
  8377   0029A0  C00F  F01B         	movff	___fldiv@b,___fldiv@rem
  8378   0029A4  C010  F01C         	movff	___fldiv@b+1,___fldiv@rem+1
  8379   0029A8  C011  F01D         	movff	___fldiv@b+2,___fldiv@rem+2
  8380   0029AC  C012  F01E         	movff	___fldiv@b+3,___fldiv@rem+3
  8381   0029B0  0E00               	movlw	0
  8382   0029B2  6E0F               	movwf	___fldiv@b^0,c
  8383   0029B4  0E00               	movlw	0
  8384   0029B6  6E10               	movwf	(___fldiv@b+1)^0,c
  8385   0029B8  0E00               	movlw	0
  8386   0029BA  6E11               	movwf	(___fldiv@b+2)^0,c
  8387   0029BC  0E00               	movlw	0
  8388   0029BE  6E12               	movwf	(___fldiv@b+3)^0,c
  8389   0029C0  0E00               	movlw	0
  8390   0029C2  6E22               	movwf	___fldiv@grs^0,c
  8391   0029C4  0E00               	movlw	0
  8392   0029C6  6E23               	movwf	(___fldiv@grs+1)^0,c
  8393   0029C8  0E00               	movlw	0
  8394   0029CA  6E24               	movwf	(___fldiv@grs+2)^0,c
  8395   0029CC  0E00               	movlw	0
  8396   0029CE  6E25               	movwf	(___fldiv@grs+3)^0,c
  8397   0029D0  0E00               	movlw	0
  8398   0029D2  6E27               	movwf	___fldiv@aexp^0,c
  8399   0029D4  EF24  F015         	goto	l704
  8400   0029D8                     l5031:
  8401   0029D8  5027               	movf	___fldiv@aexp^0,w,c
  8402   0029DA  B4D8               	btfsc	status,2,c
  8403   0029DC  EFF2  F014         	goto	u5931
  8404   0029E0  EFF4  F014         	goto	u5930
  8405   0029E4                     u5931:
  8406   0029E4  EF0B  F015         	goto	l5039
  8407   0029E8                     u5930:
  8408   0029E8  90D8               	bcf	status,0,c
  8409   0029EA  361B               	rlcf	___fldiv@rem^0,f,c
  8410   0029EC  361C               	rlcf	(___fldiv@rem+1)^0,f,c
  8411   0029EE  361D               	rlcf	(___fldiv@rem+2)^0,f,c
  8412   0029F0  361E               	rlcf	(___fldiv@rem+3)^0,f,c
  8413   0029F2  90D8               	bcf	status,0,c
  8414   0029F4  360F               	rlcf	___fldiv@b^0,f,c
  8415   0029F6  3610               	rlcf	(___fldiv@b+1)^0,f,c
  8416   0029F8  3611               	rlcf	(___fldiv@b+2)^0,f,c
  8417   0029FA  3612               	rlcf	(___fldiv@b+3)^0,f,c
  8418   0029FC  AE25               	btfss	(___fldiv@grs+3)^0,7,c
  8419   0029FE  EF03  F015         	goto	u5941
  8420   002A02  EF05  F015         	goto	u5940
  8421   002A06                     u5941:
  8422   002A06  EF06  F015         	goto	l707
  8423   002A0A                     u5940:
  8424   002A0A  800F               	bsf	___fldiv@b^0,0,c
  8425   002A0C                     l707:
  8426   002A0C  90D8               	bcf	status,0,c
  8427   002A0E  3622               	rlcf	___fldiv@grs^0,f,c
  8428   002A10  3623               	rlcf	(___fldiv@grs+1)^0,f,c
  8429   002A12  3624               	rlcf	(___fldiv@grs+2)^0,f,c
  8430   002A14  3625               	rlcf	(___fldiv@grs+3)^0,f,c
  8431   002A16                     l5039:
  8432   002A16  5013               	movf	___fldiv@a^0,w,c
  8433   002A18  5C1B               	subwf	___fldiv@rem^0,w,c
  8434   002A1A  5014               	movf	(___fldiv@a+1)^0,w,c
  8435   002A1C  581C               	subwfb	(___fldiv@rem+1)^0,w,c
  8436   002A1E  5015               	movf	(___fldiv@a+2)^0,w,c
  8437   002A20  581D               	subwfb	(___fldiv@rem+2)^0,w,c
  8438   002A22  5016               	movf	(___fldiv@a+3)^0,w,c
  8439   002A24  581E               	subwfb	(___fldiv@rem+3)^0,w,c
  8440   002A26  A0D8               	btfss	status,0,c
  8441   002A28  EF18  F015         	goto	u5951
  8442   002A2C  EF1A  F015         	goto	u5950
  8443   002A30                     u5951:
  8444   002A30  EF23  F015         	goto	l5045
  8445   002A34                     u5950:
  8446   002A34  8C25               	bsf	(___fldiv@grs+3)^0,6,c
  8447   002A36  5013               	movf	___fldiv@a^0,w,c
  8448   002A38  5E1B               	subwf	___fldiv@rem^0,f,c
  8449   002A3A  5014               	movf	(___fldiv@a+1)^0,w,c
  8450   002A3C  5A1C               	subwfb	(___fldiv@rem+1)^0,f,c
  8451   002A3E  5015               	movf	(___fldiv@a+2)^0,w,c
  8452   002A40  5A1D               	subwfb	(___fldiv@rem+2)^0,f,c
  8453   002A42  5016               	movf	(___fldiv@a+3)^0,w,c
  8454   002A44  5A1E               	subwfb	(___fldiv@rem+3)^0,f,c
  8455   002A46                     l5045:
  8456   002A46  2A27               	incf	___fldiv@aexp^0,f,c
  8457   002A48                     l704:
  8458   002A48  0E19               	movlw	25
  8459   002A4A  6427               	cpfsgt	___fldiv@aexp^0,c
  8460   002A4C  EF2A  F015         	goto	u5961
  8461   002A50  EF2C  F015         	goto	u5960
  8462   002A54                     u5961:
  8463   002A54  EFEC  F014         	goto	l5031
  8464   002A58                     u5960:
  8465   002A58  501B               	movf	___fldiv@rem^0,w,c
  8466   002A5A  101C               	iorwf	(___fldiv@rem+1)^0,w,c
  8467   002A5C  101D               	iorwf	(___fldiv@rem+2)^0,w,c
  8468   002A5E  101E               	iorwf	(___fldiv@rem+3)^0,w,c
  8469   002A60  B4D8               	btfsc	status,2,c
  8470   002A62  EF35  F015         	goto	u5971
  8471   002A66  EF37  F015         	goto	u5970
  8472   002A6A                     u5971:
  8473   002A6A  EF4F  F015         	goto	l5057
  8474   002A6E                     u5970:
  8475   002A6E  8022               	bsf	___fldiv@grs^0,0,c
  8476   002A70  EF4F  F015         	goto	l5057
  8477   002A74                     l5051:
  8478   002A74  90D8               	bcf	status,0,c
  8479   002A76  360F               	rlcf	___fldiv@b^0,f,c
  8480   002A78  3610               	rlcf	(___fldiv@b+1)^0,f,c
  8481   002A7A  3611               	rlcf	(___fldiv@b+2)^0,f,c
  8482   002A7C  3612               	rlcf	(___fldiv@b+3)^0,f,c
  8483   002A7E  AE25               	btfss	(___fldiv@grs+3)^0,7,c
  8484   002A80  EF44  F015         	goto	u5981
  8485   002A84  EF46  F015         	goto	u5980
  8486   002A88                     u5981:
  8487   002A88  EF47  F015         	goto	l713
  8488   002A8C                     u5980:
  8489   002A8C  800F               	bsf	___fldiv@b^0,0,c
  8490   002A8E                     l713:
  8491   002A8E  90D8               	bcf	status,0,c
  8492   002A90  3622               	rlcf	___fldiv@grs^0,f,c
  8493   002A92  3623               	rlcf	(___fldiv@grs+1)^0,f,c
  8494   002A94  3624               	rlcf	(___fldiv@grs+2)^0,f,c
  8495   002A96  3625               	rlcf	(___fldiv@grs+3)^0,f,c
  8496   002A98  0620               	decf	___fldiv@new_exp^0,f,c
  8497   002A9A  A0D8               	btfss	status,0,c
  8498   002A9C  0621               	decf	(___fldiv@new_exp+1)^0,f,c
  8499   002A9E                     l5057:
  8500   002A9E  AE11               	btfss	(___fldiv@b+2)^0,7,c
  8501   002AA0  EF54  F015         	goto	u5991
  8502   002AA4  EF56  F015         	goto	u5990
  8503   002AA8                     u5991:
  8504   002AA8  EF3A  F015         	goto	l5051
  8505   002AAC                     u5990:
  8506   002AAC  0E00               	movlw	0
  8507   002AAE  6E27               	movwf	___fldiv@aexp^0,c
  8508   002AB0  AE25               	btfss	(___fldiv@grs+3)^0,7,c
  8509   002AB2  EF5D  F015         	goto	u6001
  8510   002AB6  EF5F  F015         	goto	u6000
  8511   002ABA                     u6001:
  8512   002ABA  EF83  F015         	goto	l715
  8513   002ABE                     u6000:
  8514   002ABE  0EFF               	movlw	255
  8515   002AC0  1422               	andwf	___fldiv@grs^0,w,c
  8516   002AC2  6E17               	movwf	??___fldiv^0,c
  8517   002AC4  0EFF               	movlw	255
  8518   002AC6  1423               	andwf	(___fldiv@grs+1)^0,w,c
  8519   002AC8  6E18               	movwf	(??___fldiv+1)^0,c
  8520   002ACA  0EFF               	movlw	255
  8521   002ACC  1424               	andwf	(___fldiv@grs+2)^0,w,c
  8522   002ACE  6E19               	movwf	(??___fldiv+2)^0,c
  8523   002AD0  0E7F               	movlw	127
  8524   002AD2  1425               	andwf	(___fldiv@grs+3)^0,w,c
  8525   002AD4  6E1A               	movwf	(??___fldiv+3)^0,c
  8526   002AD6  5017               	movf	??___fldiv^0,w,c
  8527   002AD8  1018               	iorwf	(??___fldiv+1)^0,w,c
  8528   002ADA  1019               	iorwf	(??___fldiv+2)^0,w,c
  8529   002ADC  101A               	iorwf	(??___fldiv+3)^0,w,c
  8530   002ADE  B4D8               	btfsc	status,2,c
  8531   002AE0  EF74  F015         	goto	u6011
  8532   002AE4  EF76  F015         	goto	u6010
  8533   002AE8                     u6011:
  8534   002AE8  EF7A  F015         	goto	l716
  8535   002AEC                     u6010:
  8536   002AEC                     l5065:
  8537   002AEC  0E01               	movlw	1
  8538   002AEE  6E27               	movwf	___fldiv@aexp^0,c
  8539   002AF0  EF83  F015         	goto	l715
  8540   002AF4                     l716:
  8541   002AF4  A00F               	btfss	___fldiv@b^0,0,c
  8542   002AF6  EF7F  F015         	goto	u6021
  8543   002AFA  EF81  F015         	goto	u6020
  8544   002AFE                     u6021:
  8545   002AFE  EF83  F015         	goto	l715
  8546   002B02                     u6020:
  8547   002B02  EF76  F015         	goto	l5065
  8548   002B06                     l715:
  8549   002B06  5027               	movf	___fldiv@aexp^0,w,c
  8550   002B08  B4D8               	btfsc	status,2,c
  8551   002B0A  EF89  F015         	goto	u6031
  8552   002B0E  EF8B  F015         	goto	u6030
  8553   002B12                     u6031:
  8554   002B12  EFAF  F015         	goto	l5077
  8555   002B16                     u6030:
  8556   002B16  0E01               	movlw	1
  8557   002B18  260F               	addwf	___fldiv@b^0,f,c
  8558   002B1A  0E00               	movlw	0
  8559   002B1C  2210               	addwfc	(___fldiv@b+1)^0,f,c
  8560   002B1E  2211               	addwfc	(___fldiv@b+2)^0,f,c
  8561   002B20  2212               	addwfc	(___fldiv@b+3)^0,f,c
  8562   002B22  A012               	btfss	(___fldiv@b+3)^0,0,c
  8563   002B24  EF96  F015         	goto	u6041
  8564   002B28  EF98  F015         	goto	u6040
  8565   002B2C                     u6041:
  8566   002B2C  EFAF  F015         	goto	l5077
  8567   002B30                     u6040:
  8568   002B30  C00F  F017         	movff	___fldiv@b,??___fldiv
  8569   002B34  C010  F018         	movff	___fldiv@b+1,??___fldiv+1
  8570   002B38  C011  F019         	movff	___fldiv@b+2,??___fldiv+2
  8571   002B3C  C012  F01A         	movff	___fldiv@b+3,??___fldiv+3
  8572   002B40  341A               	rlcf	(??___fldiv+3)^0,w,c
  8573   002B42  321A               	rrcf	(??___fldiv+3)^0,f,c
  8574   002B44  3219               	rrcf	(??___fldiv+2)^0,f,c
  8575   002B46  3218               	rrcf	(??___fldiv+1)^0,f,c
  8576   002B48  3217               	rrcf	??___fldiv^0,f,c
  8577   002B4A  C017  F00F         	movff	??___fldiv,___fldiv@b
  8578   002B4E  C018  F010         	movff	??___fldiv+1,___fldiv@b+1
  8579   002B52  C019  F011         	movff	??___fldiv+2,___fldiv@b+2
  8580   002B56  C01A  F012         	movff	??___fldiv+3,___fldiv@b+3
  8581   002B5A  4A20               	infsnz	___fldiv@new_exp^0,f,c
  8582   002B5C  2A21               	incf	(___fldiv@new_exp+1)^0,f,c
  8583   002B5E                     l5077:
  8584   002B5E  BE21               	btfsc	(___fldiv@new_exp+1)^0,7,c
  8585   002B60  EFBA  F015         	goto	u6051
  8586   002B64  5021               	movf	(___fldiv@new_exp+1)^0,w,c
  8587   002B66  E108               	bnz	u6050
  8588   002B68  2820               	incf	___fldiv@new_exp^0,w,c
  8589   002B6A  A0D8               	btfss	status,0,c
  8590   002B6C  EFBA  F015         	goto	u6051
  8591   002B70  EFBC  F015         	goto	u6050
  8592   002B74                     u6051:
  8593   002B74  EFC7  F015         	goto	l5081
  8594   002B78                     u6050:
  8595   002B78  0E00               	movlw	0
  8596   002B7A  6E21               	movwf	(___fldiv@new_exp+1)^0,c
  8597   002B7C  6820               	setf	___fldiv@new_exp^0,c
  8598   002B7E  0E00               	movlw	0
  8599   002B80  6E0F               	movwf	___fldiv@b^0,c
  8600   002B82  0E00               	movlw	0
  8601   002B84  6E10               	movwf	(___fldiv@b+1)^0,c
  8602   002B86  0E00               	movlw	0
  8603   002B88  6E11               	movwf	(___fldiv@b+2)^0,c
  8604   002B8A  0E00               	movlw	0
  8605   002B8C  6E12               	movwf	(___fldiv@b+3)^0,c
  8606   002B8E                     l5081:
  8607   002B8E  BE21               	btfsc	(___fldiv@new_exp+1)^0,7,c
  8608   002B90  EFD4  F015         	goto	u6060
  8609   002B94  5021               	movf	(___fldiv@new_exp+1)^0,w,c
  8610   002B96  E106               	bnz	u6061
  8611   002B98  0420               	decf	___fldiv@new_exp^0,w,c
  8612   002B9A  B0D8               	btfsc	status,0,c
  8613   002B9C  EFD2  F015         	goto	u6061
  8614   002BA0  EFD4  F015         	goto	u6060
  8615   002BA4                     u6061:
  8616   002BA4  EFE2  F015         	goto	l5085
  8617   002BA8                     u6060:
  8618   002BA8  0E00               	movlw	0
  8619   002BAA  6E21               	movwf	(___fldiv@new_exp+1)^0,c
  8620   002BAC  0E00               	movlw	0
  8621   002BAE  6E20               	movwf	___fldiv@new_exp^0,c
  8622   002BB0  0E00               	movlw	0
  8623   002BB2  6E0F               	movwf	___fldiv@b^0,c
  8624   002BB4  0E00               	movlw	0
  8625   002BB6  6E10               	movwf	(___fldiv@b+1)^0,c
  8626   002BB8  0E00               	movlw	0
  8627   002BBA  6E11               	movwf	(___fldiv@b+2)^0,c
  8628   002BBC  0E00               	movlw	0
  8629   002BBE  6E12               	movwf	(___fldiv@b+3)^0,c
  8630   002BC0  0E00               	movlw	0
  8631   002BC2  6E1F               	movwf	___fldiv@sign^0,c
  8632   002BC4                     l5085:
  8633   002BC4  C020  F026         	movff	___fldiv@new_exp,___fldiv@bexp
  8634   002BC8  A026               	btfss	___fldiv@bexp^0,0,c
  8635   002BCA  EFE9  F015         	goto	u6071
  8636   002BCE  EFEB  F015         	goto	u6070
  8637   002BD2                     u6071:
  8638   002BD2  EFEE  F015         	goto	l5091
  8639   002BD6                     u6070:
  8640   002BD6  8E11               	bsf	(___fldiv@b+2)^0,7,c
  8641   002BD8  EFEF  F015         	goto	l5093
  8642   002BDC                     l5091:
  8643   002BDC  9E11               	bcf	(___fldiv@b+2)^0,7,c
  8644   002BDE                     l5093:
  8645   002BDE  90D8               	bcf	status,0,c
  8646   002BE0  3026               	rrcf	___fldiv@bexp^0,w,c
  8647   002BE2  6E12               	movwf	(___fldiv@b+3)^0,c
  8648   002BE4  EFA5  F014         	goto	l5007
  8649   002BE8                     l702:
  8650   002BE8  0012               	return		;funcret
  8651   002BEA                     __end_of___fldiv:
  8652                           	callstack 0
  8653                           
  8654 ;; *************** function _dtoa *****************
  8655 ;; Defined at:
  8656 ;;		line 513 in file "C:\Program Files\Microchip\xc8\v2.45\pic\sources\c99\common\doprnt.c"
  8657 ;; Parameters:    Size  Location     Type
  8658 ;;  fp              2   25[COMRAM] PTR struct _IO_FILE
  8659 ;;		 -> sprintf@f(12), 
  8660 ;;  d               2   27[COMRAM] int 
  8661 ;; Auto vars:     Size  Location     Type
  8662 ;;  i               2   36[COMRAM] int 
  8663 ;;  w               2   33[COMRAM] int 
  8664 ;;  p               2   31[COMRAM] int 
  8665 ;;  s               1   35[COMRAM] unsigned char 
  8666 ;; Return value:  Size  Location     Type
  8667 ;;                  1    wreg      void 
  8668 ;; Registers used:
  8669 ;;		wreg, fsr1l, fsr1h, fsr2l, fsr2h, status,2, status,0, cstack
  8670 ;; Tracked objects:
  8671 ;;		On entry : 0/0
  8672 ;;		On exit  : 0/0
  8673 ;;		Unchanged: 0/0
  8674 ;; Data sizes:     COMRAM   BANK0   BANK1   BANK2   BANK3   BANK4   BANK5   BANK6   BANK7
  8675 ;;      Params:         4       0       0       0       0       0       0       0       0
  8676 ;;      Locals:         9       0       0       0       0       0       0       0       0
  8677 ;;      Temps:          0       0       0       0       0       0       0       0       0
  8678 ;;      Totals:        13       0       0       0       0       0       0       0       0
  8679 ;;Total ram usage:       13 bytes
  8680 ;; Hardware stack levels used: 1
  8681 ;; Hardware stack levels required when called: 4
  8682 ;; This function calls:
  8683 ;;		___awdiv
  8684 ;;		___awmod
  8685 ;;		_abs
  8686 ;;		_pad
  8687 ;; This function is called by:
  8688 ;;		_vfpfcnvrt
  8689 ;; This function uses a non-reentrant model
  8690 ;;
  8691                           
  8692                           	psect	text27
  8693   00356E                     __ptext27:
  8694                           	callstack 0
  8695   00356E                     _dtoa:
  8696                           	callstack 22
  8697   00356E                     
  8698                           ;C:\Program Files\Microchip\xc8\v2.45\pic\sources\c99\common\doprnt.c: 513: static void 
      +                          dtoa(FILE *fp, vfpf_sint_t d);C:\Program Files\Microchip\xc8\v2.45\pic\sources\c99\commo
      +                          n\doprnt.c: 514: {;C:\Program Files\Microchip\xc8\v2.45\pic\sources\c99\common\doprnt.c:
      +                           515:  char s;;C:\Program Files\Microchip\xc8\v2.45\pic\sources\c99\common\doprnt.c: 516
      +                          :     int i, w;;C:\Program Files\Microchip\xc8\v2.45\pic\sources\c99\common\doprnt.c: 51
      +                          8:  int p;;C:\Program Files\Microchip\xc8\v2.45\pic\sources\c99\common\doprnt.c: 524:   
      +                            s = d < 0 ? 1 : 0;
  8699   00356E  BE1D               	btfsc	(dtoa@d+1)^0,7,c
  8700   003570  EFBC  F01A         	goto	u6781
  8701   003574  EFBF  F01A         	goto	u6780
  8702   003578                     u6781:
  8703   003578  0E01               	movlw	1
  8704   00357A  EFC0  F01A         	goto	u6790
  8705   00357E                     u6780:
  8706   00357E  0E00               	movlw	0
  8707   003580                     u6790:
  8708   003580  6E24               	movwf	dtoa@s^0,c
  8709                           
  8710                           ;C:\Program Files\Microchip\xc8\v2.45\pic\sources\c99\common\doprnt.c: 529:     if (!(pr
      +                          ec < 0)) {
  8711   003582  0101               	movlb	1	; () banked
  8712   003584  BF13               	btfsc	(_prec+1)& (0+255),7,b
  8713   003586  EFC7  F01A         	goto	u6801
  8714   00358A  EFC9  F01A         	goto	u6800
  8715   00358E                     u6801:
  8716   00358E  EFCB  F01A         	goto	l5501
  8717   003592                     u6800:
  8718   003592                     
  8719                           ; BSR set to: 1
  8720                           ;C:\Program Files\Microchip\xc8\v2.45\pic\sources\c99\common\doprnt.c: 530:         flag
      +                          s &= ~(1 << 1);
  8721   003592  0100               	movlb	0	; () banked
  8722   003594  93FE               	bcf	_flags& (0+255),1,b
  8723   003596                     l5501:
  8724                           
  8725                           ;C:\Program Files\Microchip\xc8\v2.45\pic\sources\c99\common\doprnt.c: 533:     p = (0 <
      +                          = prec) ? prec : 1;
  8726   003596  0101               	movlb	1	; () banked
  8727   003598  BF13               	btfsc	(_prec+1)& (0+255),7,b
  8728   00359A  EFD3  F01A         	goto	u6810
  8729   00359E  EFD1  F01A         	goto	u6811
  8730   0035A2                     u6811:
  8731   0035A2  EFD9  F01A         	goto	l925
  8732   0035A6                     u6810:
  8733   0035A6                     
  8734                           ; BSR set to: 1
  8735   0035A6  0E00               	movlw	0
  8736   0035A8  6E21               	movwf	(dtoa@p+1)^0,c
  8737   0035AA  0E01               	movlw	1
  8738   0035AC  6E20               	movwf	dtoa@p^0,c
  8739   0035AE  EFDD  F01A         	goto	l927
  8740   0035B2                     l925:
  8741                           
  8742                           ; BSR set to: 1
  8743   0035B2  C112  F020         	movff	_prec,dtoa@p
  8744   0035B6  C113  F021         	movff	_prec+1,dtoa@p+1
  8745   0035BA                     l927:
  8746                           
  8747                           ; BSR set to: 1
  8748                           ;C:\Program Files\Microchip\xc8\v2.45\pic\sources\c99\common\doprnt.c: 535:     w = widt
      +                          h;
  8749   0035BA  C110  F022         	movff	_width,dtoa@w
  8750   0035BE  C111  F023         	movff	_width+1,dtoa@w+1
  8751   0035C2                     
  8752                           ; BSR set to: 1
  8753                           ;C:\Program Files\Microchip\xc8\v2.45\pic\sources\c99\common\doprnt.c: 536:     if (s
  8754   0035C2  5024               	movf	dtoa@s^0,w,c
  8755   0035C4  B4D8               	btfsc	status,2,c
  8756   0035C6  EFE7  F01A         	goto	u6821
  8757   0035CA  EFE9  F01A         	goto	u6820
  8758   0035CE                     u6821:
  8759   0035CE  EF00  F01B         	goto	l928
  8760   0035D2                     u6820:
  8761   0035D2                     
  8762                           ; BSR set to: 1
  8763                           ;C:\Program Files\Microchip\xc8\v2.45\pic\sources\c99\common\doprnt.c: 540:     ) {;C:\P
      +                          rogram Files\Microchip\xc8\v2.45\pic\sources\c99\common\doprnt.c: 541:         --w;
  8764   0035D2  0622               	decf	dtoa@w^0,f,c
  8765   0035D4  A0D8               	btfss	status,0,c
  8766   0035D6  0623               	decf	(dtoa@w+1)^0,f,c
  8767   0035D8                     
  8768                           ; BSR set to: 1
  8769                           ;C:\Program Files\Microchip\xc8\v2.45\pic\sources\c99\common\doprnt.c: 542:   s = s ? '-
      +                          ' : '+';
  8770   0035D8  5024               	movf	dtoa@s^0,w,c
  8771   0035DA  A4D8               	btfss	status,2,c
  8772   0035DC  EFF2  F01A         	goto	u6831
  8773   0035E0  EFF4  F01A         	goto	u6830
  8774   0035E4                     u6831:
  8775   0035E4  EFFA  F01A         	goto	l5513
  8776   0035E8                     u6830:
  8777   0035E8                     
  8778                           ; BSR set to: 1
  8779   0035E8  0E00               	movlw	0
  8780   0035EA  6E1F               	movwf	(_dtoa$757+1)^0,c
  8781   0035EC  0E2B               	movlw	43
  8782   0035EE  6E1E               	movwf	_dtoa$757^0,c
  8783   0035F0  EFFE  F01A         	goto	l5515
  8784   0035F4                     l5513:
  8785                           
  8786                           ; BSR set to: 1
  8787   0035F4  0E00               	movlw	0
  8788   0035F6  6E1F               	movwf	(_dtoa$757+1)^0,c
  8789   0035F8  0E2D               	movlw	45
  8790   0035FA  6E1E               	movwf	_dtoa$757^0,c
  8791   0035FC                     l5515:
  8792                           
  8793                           ; BSR set to: 1
  8794   0035FC  C01E  F024         	movff	_dtoa$757,dtoa@s
  8795   003600                     l928:
  8796                           
  8797                           ; BSR set to: 1
  8798                           ;C:\Program Files\Microchip\xc8\v2.45\pic\sources\c99\common\doprnt.c: 552:     i = size
      +                          of(dbuf) - 1;
  8799   003600  0E00               	movlw	0
  8800   003602  6E26               	movwf	(dtoa@i+1)^0,c
  8801   003604  0E4F               	movlw	79
  8802   003606  6E25               	movwf	dtoa@i^0,c
  8803   003608                     
  8804                           ; BSR set to: 1
  8805                           ;C:\Program Files\Microchip\xc8\v2.45\pic\sources\c99\common\doprnt.c: 553:     dbuf[i] 
      +                          = '\0';
  8806   003608  0E00               	movlw	0
  8807   00360A  6F65               	movwf	(_dbuf+79)& (0+255),b
  8808                           
  8809                           ;C:\Program Files\Microchip\xc8\v2.45\pic\sources\c99\common\doprnt.c: 554:     while (!
      +                          (i < 1) && (d != 0
  8810   00360C  EF38  F01B         	goto	l5529
  8811   003610                     l5519:
  8812                           
  8813                           ;C:\Program Files\Microchip\xc8\v2.45\pic\sources\c99\common\doprnt.c: 563:     )) {;C:\
      +                          Program Files\Microchip\xc8\v2.45\pic\sources\c99\common\doprnt.c: 564:         --i;
  8814   003610  0625               	decf	dtoa@i^0,f,c
  8815   003612  A0D8               	btfss	status,0,c
  8816   003614  0626               	decf	(dtoa@i+1)^0,f,c
  8817   003616                     
  8818                           ;C:\Program Files\Microchip\xc8\v2.45\pic\sources\c99\common\doprnt.c: 565:         dbuf
      +                          [i] = (char)((int)'0' + abs(d % 10));
  8819   003616  0E16               	movlw	low _dbuf
  8820   003618  2425               	addwf	dtoa@i^0,w,c
  8821   00361A  6ED9               	movwf	fsr2l,c
  8822   00361C  0E01               	movlw	high _dbuf
  8823   00361E  2026               	addwfc	(dtoa@i+1)^0,w,c
  8824   003620  6EDA               	movwf	fsr2h,c
  8825   003622  C01C  F001         	movff	dtoa@d,___awmod@dividend
  8826   003626  C01D  F002         	movff	dtoa@d+1,___awmod@dividend+1
  8827   00362A  0E00               	movlw	0
  8828   00362C  6E04               	movwf	(___awmod@divisor+1)^0,c
  8829   00362E  0E0A               	movlw	10
  8830   003630  6E03               	movwf	___awmod@divisor^0,c
  8831   003632  EC8B  F020         	call	___awmod	;wreg free
  8832   003636  C001  F007         	movff	?___awmod,abs@a
  8833   00363A  C002  F008         	movff	?___awmod+1,abs@a+1
  8834   00363E  EC04  F023         	call	_abs	;wreg free
  8835   003642  5007               	movf	?_abs^0,w,c
  8836   003644  0F30               	addlw	48
  8837   003646  6EDF               	movwf	indf2,c
  8838   003648                     
  8839                           ;C:\Program Files\Microchip\xc8\v2.45\pic\sources\c99\common\doprnt.c: 567:         --p;
  8840   003648  0620               	decf	dtoa@p^0,f,c
  8841   00364A  A0D8               	btfss	status,0,c
  8842   00364C  0621               	decf	(dtoa@p+1)^0,f,c
  8843   00364E                     
  8844                           ;C:\Program Files\Microchip\xc8\v2.45\pic\sources\c99\common\doprnt.c: 571:         --w;
  8845   00364E  0622               	decf	dtoa@w^0,f,c
  8846   003650  A0D8               	btfss	status,0,c
  8847   003652  0623               	decf	(dtoa@w+1)^0,f,c
  8848   003654                     
  8849                           ;C:\Program Files\Microchip\xc8\v2.45\pic\sources\c99\common\doprnt.c: 572:         d = 
      +                          d / 10;
  8850   003654  C01C  F001         	movff	dtoa@d,___awdiv@dividend
  8851   003658  C01D  F002         	movff	dtoa@d+1,___awdiv@dividend+1
  8852   00365C  0E00               	movlw	0
  8853   00365E  6E04               	movwf	(___awdiv@divisor+1)^0,c
  8854   003660  0E0A               	movlw	10
  8855   003662  6E03               	movwf	___awdiv@divisor^0,c
  8856   003664  ECCE  F01F         	call	___awdiv	;wreg free
  8857   003668  C001  F01C         	movff	?___awdiv,dtoa@d
  8858   00366C  C002  F01D         	movff	?___awdiv+1,dtoa@d+1
  8859   003670                     l5529:
  8860                           
  8861                           ;C:\Program Files\Microchip\xc8\v2.45\pic\sources\c99\common\doprnt.c: 554:     while (!
      +                          (i < 1) && (d != 0
  8862   003670  BE26               	btfsc	(dtoa@i+1)^0,7,c
  8863   003672  EF43  F01B         	goto	u6841
  8864   003676  5026               	movf	(dtoa@i+1)^0,w,c
  8865   003678  E108               	bnz	u6840
  8866   00367A  0425               	decf	dtoa@i^0,w,c
  8867   00367C  A0D8               	btfss	status,0,c
  8868   00367E  EF43  F01B         	goto	u6841
  8869   003682  EF45  F01B         	goto	u6840
  8870   003686                     u6841:
  8871   003686  EF70  F01B         	goto	l5539
  8872   00368A                     u6840:
  8873   00368A  501C               	movf	dtoa@d^0,w,c
  8874   00368C  101D               	iorwf	(dtoa@d+1)^0,w,c
  8875   00368E  A4D8               	btfss	status,2,c
  8876   003690  EF4C  F01B         	goto	u6851
  8877   003694  EF4E  F01B         	goto	u6850
  8878   003698                     u6851:
  8879   003698  EF08  F01B         	goto	l5519
  8880   00369C                     u6850:
  8881   00369C  BE21               	btfsc	(dtoa@p+1)^0,7,c
  8882   00369E  EF5B  F01B         	goto	u6860
  8883   0036A2  5021               	movf	(dtoa@p+1)^0,w,c
  8884   0036A4  E106               	bnz	u6861
  8885   0036A6  0420               	decf	dtoa@p^0,w,c
  8886   0036A8  B0D8               	btfsc	status,0,c
  8887   0036AA  EF59  F01B         	goto	u6861
  8888   0036AE  EF5B  F01B         	goto	u6860
  8889   0036B2                     u6861:
  8890   0036B2  EF08  F01B         	goto	l5519
  8891   0036B6                     u6860:
  8892   0036B6  BE23               	btfsc	(dtoa@w+1)^0,7,c
  8893   0036B8  EF66  F01B         	goto	u6871
  8894   0036BC  5023               	movf	(dtoa@w+1)^0,w,c
  8895   0036BE  E108               	bnz	u6870
  8896   0036C0  0422               	decf	dtoa@w^0,w,c
  8897   0036C2  A0D8               	btfss	status,0,c
  8898   0036C4  EF66  F01B         	goto	u6871
  8899   0036C8  EF68  F01B         	goto	u6870
  8900   0036CC                     u6871:
  8901   0036CC  EF70  F01B         	goto	l5539
  8902   0036D0                     u6870:
  8903   0036D0  0100               	movlb	0	; () banked
  8904   0036D2  B3FE               	btfsc	_flags& (0+255),1,b
  8905   0036D4  EF6E  F01B         	goto	u6881
  8906   0036D8  EF70  F01B         	goto	u6880
  8907   0036DC                     u6881:
  8908   0036DC  EF08  F01B         	goto	l5519
  8909   0036E0                     u6880:
  8910   0036E0                     l5539:
  8911                           
  8912                           ;C:\Program Files\Microchip\xc8\v2.45\pic\sources\c99\common\doprnt.c: 576:     if (s !=
      +                           0) {
  8913   0036E0  5024               	movf	dtoa@s^0,w,c
  8914   0036E2  B4D8               	btfsc	status,2,c
  8915   0036E4  EF76  F01B         	goto	u6891
  8916   0036E8  EF78  F01B         	goto	u6890
  8917   0036EC                     u6891:
  8918   0036EC  EF83  F01B         	goto	l5545
  8919   0036F0                     u6890:
  8920   0036F0                     
  8921                           ;C:\Program Files\Microchip\xc8\v2.45\pic\sources\c99\common\doprnt.c: 577:         --i;
  8922   0036F0  0625               	decf	dtoa@i^0,f,c
  8923   0036F2  A0D8               	btfss	status,0,c
  8924   0036F4  0626               	decf	(dtoa@i+1)^0,f,c
  8925   0036F6                     
  8926                           ;C:\Program Files\Microchip\xc8\v2.45\pic\sources\c99\common\doprnt.c: 578:         dbuf
      +                          [i] = s;
  8927   0036F6  0E16               	movlw	low _dbuf
  8928   0036F8  2425               	addwf	dtoa@i^0,w,c
  8929   0036FA  6ED9               	movwf	fsr2l,c
  8930   0036FC  0E01               	movlw	high _dbuf
  8931   0036FE  2026               	addwfc	(dtoa@i+1)^0,w,c
  8932   003700  6EDA               	movwf	fsr2h,c
  8933   003702  C024  FFDF         	movff	dtoa@s,indf2
  8934   003706                     l5545:
  8935                           
  8936                           ;C:\Program Files\Microchip\xc8\v2.45\pic\sources\c99\common\doprnt.c: 582:     return (
      +                          void) pad(fp, &dbuf[i], w);
  8937   003706  C01A  F011         	movff	dtoa@fp,pad@fp
  8938   00370A  C01B  F012         	movff	dtoa@fp+1,pad@fp+1
  8939   00370E  0E16               	movlw	low _dbuf
  8940   003710  2425               	addwf	dtoa@i^0,w,c
  8941   003712  6E13               	movwf	pad@buf^0,c
  8942   003714  0E01               	movlw	high _dbuf
  8943   003716  2026               	addwfc	(dtoa@i+1)^0,w,c
  8944   003718  6E14               	movwf	(pad@buf+1)^0,c
  8945   00371A  C022  F015         	movff	dtoa@w,pad@p
  8946   00371E  C023  F016         	movff	dtoa@w+1,pad@p+1
  8947   003722  EC74  F021         	call	_pad	;wreg free
  8948   003726  0012               	return		;funcret
  8949   003728                     __end_of_dtoa:
  8950                           	callstack 0
  8951                           
  8952 ;; *************** function _pad *****************
  8953 ;; Defined at:
  8954 ;;		line 193 in file "C:\Program Files\Microchip\xc8\v2.45\pic\sources\c99\common\doprnt.c"
  8955 ;; Parameters:    Size  Location     Type
  8956 ;;  fp              2   16[COMRAM] PTR struct _IO_FILE
  8957 ;;		 -> sprintf@f(12), 
  8958 ;;  buf             2   18[COMRAM] PTR unsigned char 
  8959 ;;		 -> dbuf(80), 
  8960 ;;  p               2   20[COMRAM] int 
  8961 ;; Auto vars:     Size  Location     Type
  8962 ;;  i               2   23[COMRAM] int 
  8963 ;; Return value:  Size  Location     Type
  8964 ;;                  1    wreg      void 
  8965 ;; Registers used:
  8966 ;;		wreg, fsr1l, fsr1h, fsr2l, fsr2h, status,2, status,0, cstack
  8967 ;; Tracked objects:
  8968 ;;		On entry : 0/0
  8969 ;;		On exit  : 0/0
  8970 ;;		Unchanged: 0/0
  8971 ;; Data sizes:     COMRAM   BANK0   BANK1   BANK2   BANK3   BANK4   BANK5   BANK6   BANK7
  8972 ;;      Params:         6       0       0       0       0       0       0       0       0
  8973 ;;      Locals:         2       0       0       0       0       0       0       0       0
  8974 ;;      Temps:          1       0       0       0       0       0       0       0       0
  8975 ;;      Totals:         9       0       0       0       0       0       0       0       0
  8976 ;;Total ram usage:        9 bytes
  8977 ;; Hardware stack levels used: 1
  8978 ;; Hardware stack levels required when called: 3
  8979 ;; This function calls:
  8980 ;;		_fputc
  8981 ;;		_fputs
  8982 ;; This function is called by:
  8983 ;;		_dtoa
  8984 ;;		_efgtoa
  8985 ;; This function uses a non-reentrant model
  8986 ;;
  8987                           
  8988                           	psect	text28
  8989   0042E8                     __ptext28:
  8990                           	callstack 0
  8991   0042E8                     _pad:
  8992                           	callstack 22
  8993   0042E8                     
  8994                           ;C:\Program Files\Microchip\xc8\v2.45\pic\sources\c99\common\doprnt.c: 193: static void 
      +                          pad(FILE *fp, char *buf, int p);C:\Program Files\Microchip\xc8\v2.45\pic\sources\c99\com
      +                          mon\doprnt.c: 194: {;C:\Program Files\Microchip\xc8\v2.45\pic\sources\c99\common\doprnt.
      +                          c: 195:     int i;;C:\Program Files\Microchip\xc8\v2.45\pic\sources\c99\common\doprnt.c:
      +                           205:  if (p < 0) {
  8995   0042E8  BE16               	btfsc	(pad@p+1)^0,7,c
  8996   0042EA  EF7B  F021         	goto	u6550
  8997   0042EE  EF79  F021         	goto	u6551
  8998   0042F2                     u6551:
  8999   0042F2  EF7F  F021         	goto	l916
  9000   0042F6                     u6550:
  9001   0042F6                     
  9002                           ;C:\Program Files\Microchip\xc8\v2.45\pic\sources\c99\common\doprnt.c: 206:   p = 0;
  9003   0042F6  0E00               	movlw	0
  9004   0042F8  6E16               	movwf	(pad@p+1)^0,c
  9005   0042FA  0E00               	movlw	0
  9006   0042FC  6E15               	movwf	pad@p^0,c
  9007   0042FE                     l916:
  9008                           
  9009                           ;C:\Program Files\Microchip\xc8\v2.45\pic\sources\c99\common\doprnt.c: 208:     i = 0;
  9010   0042FE  0E00               	movlw	0
  9011   004300  6E19               	movwf	(pad@i+1)^0,c
  9012   004302  0E00               	movlw	0
  9013   004304  6E18               	movwf	pad@i^0,c
  9014                           
  9015                           ;C:\Program Files\Microchip\xc8\v2.45\pic\sources\c99\common\doprnt.c: 209:     while (i
      +                           < p) {
  9016   004306  EF91  F021         	goto	l5415
  9017   00430A                     l5411:
  9018                           
  9019                           ;C:\Program Files\Microchip\xc8\v2.45\pic\sources\c99\common\doprnt.c: 210:         fput
      +                          c(' ', fp);
  9020   00430A  0E00               	movlw	0
  9021   00430C  6E02               	movwf	(fputc@c+1)^0,c
  9022   00430E  0E20               	movlw	32
  9023   004310  6E01               	movwf	fputc@c^0,c
  9024   004312  C011  F003         	movff	pad@fp,fputc@fp
  9025   004316  C012  F004         	movff	pad@fp+1,fputc@fp+1
  9026   00431A  EC69  F01F         	call	_fputc	;wreg free
  9027   00431E                     
  9028                           ;C:\Program Files\Microchip\xc8\v2.45\pic\sources\c99\common\doprnt.c: 211:         ++i;
  9029   00431E  4A18               	infsnz	pad@i^0,f,c
  9030   004320  2A19               	incf	(pad@i+1)^0,f,c
  9031   004322                     l5415:
  9032                           
  9033                           ;C:\Program Files\Microchip\xc8\v2.45\pic\sources\c99\common\doprnt.c: 209:     while (i
      +                           < p) {
  9034   004322  5015               	movf	pad@p^0,w,c
  9035   004324  5C18               	subwf	pad@i^0,w,c
  9036   004326  5019               	movf	(pad@i+1)^0,w,c
  9037   004328  0A80               	xorlw	128
  9038   00432A  6E17               	movwf	??_pad^0,c
  9039   00432C  5016               	movf	(pad@p+1)^0,w,c
  9040   00432E  0A80               	xorlw	128
  9041   004330  5817               	subwfb	??_pad^0,w,c
  9042   004332  A0D8               	btfss	status,0,c
  9043   004334  EF9E  F021         	goto	u6561
  9044   004338  EFA0  F021         	goto	u6560
  9045   00433C                     u6561:
  9046   00433C  EF85  F021         	goto	l5411
  9047   004340                     u6560:
  9048   004340                     
  9049                           ;C:\Program Files\Microchip\xc8\v2.45\pic\sources\c99\common\doprnt.c: 218:         fput
      +                          s((const char *)buf, fp);
  9050   004340  C013  F00A         	movff	pad@buf,fputs@s
  9051   004344  C014  F00B         	movff	pad@buf+1,fputs@s+1
  9052   004348  C011  F00C         	movff	pad@fp,fputs@fp
  9053   00434C  C012  F00D         	movff	pad@fp+1,fputs@fp+1
  9054   004350  EC6C  F022         	call	_fputs	;wreg free
  9055   004354  0012               	return		;funcret
  9056   004356                     __end_of_pad:
  9057                           	callstack 0
  9058                           
  9059 ;; *************** function _fputs *****************
  9060 ;; Defined at:
  9061 ;;		line 8 in file "C:\Program Files\Microchip\xc8\v2.45\pic\sources\c99\common\nf_fputs.c"
  9062 ;; Parameters:    Size  Location     Type
  9063 ;;  s               2    9[COMRAM] PTR const unsigned char 
  9064 ;;		 -> dbuf(80), 
  9065 ;;  fp              2   11[COMRAM] PTR struct _IO_FILE
  9066 ;;		 -> sprintf@f(12), 
  9067 ;; Auto vars:     Size  Location     Type
  9068 ;;  i               2   14[COMRAM] int 
  9069 ;;  c               1   13[COMRAM] unsigned char 
  9070 ;; Return value:  Size  Location     Type
  9071 ;;                  2    9[COMRAM] int 
  9072 ;; Registers used:
  9073 ;;		wreg, fsr1l, fsr1h, fsr2l, fsr2h, status,2, status,0, cstack
  9074 ;; Tracked objects:
  9075 ;;		On entry : 0/0
  9076 ;;		On exit  : 0/0
  9077 ;;		Unchanged: 0/0
  9078 ;; Data sizes:     COMRAM   BANK0   BANK1   BANK2   BANK3   BANK4   BANK5   BANK6   BANK7
  9079 ;;      Params:         4       0       0       0       0       0       0       0       0
  9080 ;;      Locals:         3       0       0       0       0       0       0       0       0
  9081 ;;      Temps:          0       0       0       0       0       0       0       0       0
  9082 ;;      Totals:         7       0       0       0       0       0       0       0       0
  9083 ;;Total ram usage:        7 bytes
  9084 ;; Hardware stack levels used: 1
  9085 ;; Hardware stack levels required when called: 2
  9086 ;; This function calls:
  9087 ;;		_fputc
  9088 ;; This function is called by:
  9089 ;;		_pad
  9090 ;; This function uses a non-reentrant model
  9091 ;;
  9092                           
  9093                           	psect	text29
  9094   0044D8                     __ptext29:
  9095                           	callstack 0
  9096   0044D8                     _fputs:
  9097                           	callstack 22
  9098   0044D8  0E00               	movlw	0
  9099   0044DA  6E10               	movwf	(fputs@i+1)^0,c
  9100   0044DC  0E00               	movlw	0
  9101   0044DE  6E0F               	movwf	fputs@i^0,c
  9102   0044E0  EF7D  F022         	goto	l4955
  9103   0044E4                     l4951:
  9104   0044E4  C00E  F001         	movff	fputs@c,fputc@c
  9105   0044E8  6A02               	clrf	(fputc@c+1)^0,c
  9106   0044EA  C00C  F003         	movff	fputs@fp,fputc@fp
  9107   0044EE  C00D  F004         	movff	fputs@fp+1,fputc@fp+1
  9108   0044F2  EC69  F01F         	call	_fputc	;wreg free
  9109   0044F6  4A0F               	infsnz	fputs@i^0,f,c
  9110   0044F8  2A10               	incf	(fputs@i+1)^0,f,c
  9111   0044FA                     l4955:
  9112   0044FA  500F               	movf	fputs@i^0,w,c
  9113   0044FC  240A               	addwf	fputs@s^0,w,c
  9114   0044FE  6ED9               	movwf	fsr2l,c
  9115   004500  5010               	movf	(fputs@i+1)^0,w,c
  9116   004502  200B               	addwfc	(fputs@s+1)^0,w,c
  9117   004504  6EDA               	movwf	fsr2h,c
  9118   004506  50DF               	movf	indf2,w,c
  9119   004508  6E0E               	movwf	fputs@c^0,c
  9120   00450A  500E               	movf	fputs@c^0,w,c
  9121   00450C  A4D8               	btfss	status,2,c
  9122   00450E  EF8B  F022         	goto	u5841
  9123   004512  EF8D  F022         	goto	u5840
  9124   004516                     u5841:
  9125   004516  EF72  F022         	goto	l4951
  9126   00451A                     u5840:
  9127   00451A  0012               	return		;funcret
  9128   00451C                     __end_of_fputs:
  9129                           	callstack 0
  9130                           
  9131 ;; *************** function _fputc *****************
  9132 ;; Defined at:
  9133 ;;		line 8 in file "C:\Program Files\Microchip\xc8\v2.45\pic\sources\c99\common\nf_fputc.c"
  9134 ;; Parameters:    Size  Location     Type
  9135 ;;  c               2    0[COMRAM] int 
  9136 ;;  fp              2    2[COMRAM] PTR struct _IO_FILE
  9137 ;;		 -> sprintf@f(12), 
  9138 ;; Auto vars:     Size  Location     Type
  9139 ;;		None
  9140 ;; Return value:  Size  Location     Type
  9141 ;;                  2    0[COMRAM] int 
  9142 ;; Registers used:
  9143 ;;		wreg, fsr1l, fsr1h, fsr2l, fsr2h, status,2, status,0, cstack
  9144 ;; Tracked objects:
  9145 ;;		On entry : 0/0
  9146 ;;		On exit  : 0/0
  9147 ;;		Unchanged: 0/0
  9148 ;; Data sizes:     COMRAM   BANK0   BANK1   BANK2   BANK3   BANK4   BANK5   BANK6   BANK7
  9149 ;;      Params:         4       0       0       0       0       0       0       0       0
  9150 ;;      Locals:         0       0       0       0       0       0       0       0       0
  9151 ;;      Temps:          5       0       0       0       0       0       0       0       0
  9152 ;;      Totals:         9       0       0       0       0       0       0       0       0
  9153 ;;Total ram usage:        9 bytes
  9154 ;; Hardware stack levels used: 1
  9155 ;; Hardware stack levels required when called: 1
  9156 ;; This function calls:
  9157 ;;		_putch
  9158 ;; This function is called by:
  9159 ;;		_pad
  9160 ;;		_vfpfcnvrt
  9161 ;;		_fputs
  9162 ;; This function uses a non-reentrant model
  9163 ;;
  9164                           
  9165                           	psect	text30
  9166   003ED2                     __ptext30:
  9167                           	callstack 0
  9168   003ED2                     _fputc:
  9169                           	callstack 25
  9170   003ED2  5003               	movf	fputc@fp^0,w,c
  9171   003ED4  1004               	iorwf	(fputc@fp+1)^0,w,c
  9172   003ED6  B4D8               	btfsc	status,2,c
  9173   003ED8  EF70  F01F         	goto	u5411
  9174   003EDC  EF72  F01F         	goto	u5410
  9175   003EE0                     u5411:
  9176   003EE0  EF7B  F01F         	goto	l4737
  9177   003EE4                     u5410:
  9178   003EE4  5003               	movf	fputc@fp^0,w,c
  9179   003EE6  1004               	iorwf	(fputc@fp+1)^0,w,c
  9180   003EE8  A4D8               	btfss	status,2,c
  9181   003EEA  EF79  F01F         	goto	u5421
  9182   003EEE  EF7B  F01F         	goto	u5420
  9183   003EF2                     u5421:
  9184   003EF2  EF80  F01F         	goto	l4739
  9185   003EF6                     u5420:
  9186   003EF6                     l4737:
  9187   003EF6  5001               	movf	fputc@c^0,w,c
  9188   003EF8  EC66  F023         	call	_putch
  9189   003EFC  EFCD  F01F         	goto	l1100
  9190   003F00                     l4739:
  9191   003F00  EE20 F00A          	lfsr	2,10
  9192   003F04  5003               	movf	fputc@fp^0,w,c
  9193   003F06  26D9               	addwf	fsr2l,f,c
  9194   003F08  5004               	movf	(fputc@fp+1)^0,w,c
  9195   003F0A  22DA               	addwfc	fsr2h,f,c
  9196   003F0C  50DE               	movf	postinc2,w,c
  9197   003F0E  10DE               	iorwf	postinc2,w,c
  9198   003F10  B4D8               	btfsc	status,2,c
  9199   003F12  EF8D  F01F         	goto	u5431
  9200   003F16  EF8F  F01F         	goto	u5430
  9201   003F1A                     u5431:
  9202   003F1A  EFAA  F01F         	goto	l4743
  9203   003F1E                     u5430:
  9204   003F1E  EE20 F00A          	lfsr	2,10
  9205   003F22  5003               	movf	fputc@fp^0,w,c
  9206   003F24  26D9               	addwf	fsr2l,f,c
  9207   003F26  5004               	movf	(fputc@fp+1)^0,w,c
  9208   003F28  22DA               	addwfc	fsr2h,f,c
  9209   003F2A  EE10 F003          	lfsr	1,3
  9210   003F2E  5003               	movf	fputc@fp^0,w,c
  9211   003F30  26E1               	addwf	fsr1l,f,c
  9212   003F32  5004               	movf	(fputc@fp+1)^0,w,c
  9213   003F34  22E2               	addwfc	fsr1h,f,c
  9214   003F36  50DE               	movf	postinc2,w,c
  9215   003F38  5CE6               	subwf	postinc1,w,c
  9216   003F3A  50E6               	movf	postinc1,w,c
  9217   003F3C  0A80               	xorlw	128
  9218   003F3E  6E09               	movwf	(??_fputc+4)^0,c
  9219   003F40  50DE               	movf	postinc2,w,c
  9220   003F42  0A80               	xorlw	128
  9221   003F44  5809               	subwfb	(??_fputc+4)^0,w,c
  9222   003F46  B0D8               	btfsc	status,0,c
  9223   003F48  EFA8  F01F         	goto	u5441
  9224   003F4C  EFAA  F01F         	goto	u5440
  9225   003F50                     u5441:
  9226   003F50  EFCD  F01F         	goto	l1100
  9227   003F54                     u5440:
  9228   003F54                     l4743:
  9229   003F54  EE20 F003          	lfsr	2,3
  9230   003F58  5003               	movf	fputc@fp^0,w,c
  9231   003F5A  26D9               	addwf	fsr2l,f,c
  9232   003F5C  5004               	movf	(fputc@fp+1)^0,w,c
  9233   003F5E  22DA               	addwfc	fsr2h,f,c
  9234   003F60  CFDE F005          	movff	postinc2,??_fputc
  9235   003F64  CFDD F006          	movff	postdec2,??_fputc+1
  9236   003F68  C003  FFD9         	movff	fputc@fp,fsr2l
  9237   003F6C  C004  FFDA         	movff	fputc@fp+1,fsr2h
  9238   003F70  CFDE F007          	movff	postinc2,??_fputc+2
  9239   003F74  CFDD F008          	movff	postdec2,??_fputc+3
  9240   003F78  5005               	movf	??_fputc^0,w,c
  9241   003F7A  2407               	addwf	(??_fputc+2)^0,w,c
  9242   003F7C  6ED9               	movwf	fsr2l,c
  9243   003F7E  5006               	movf	(??_fputc+1)^0,w,c
  9244   003F80  2008               	addwfc	(??_fputc+3)^0,w,c
  9245   003F82  6EDA               	movwf	fsr2h,c
  9246   003F84  C001  FFDF         	movff	fputc@c,indf2
  9247   003F88  EE20 F003          	lfsr	2,3
  9248   003F8C  5003               	movf	fputc@fp^0,w,c
  9249   003F8E  26D9               	addwf	fsr2l,f,c
  9250   003F90  5004               	movf	(fputc@fp+1)^0,w,c
  9251   003F92  22DA               	addwfc	fsr2h,f,c
  9252   003F94  2ADE               	incf	postinc2,f,c
  9253   003F96  0E00               	movlw	0
  9254   003F98  22DD               	addwfc	postdec2,f,c
  9255   003F9A                     l1100:
  9256   003F9A  0012               	return		;funcret
  9257   003F9C                     __end_of_fputc:
  9258                           	callstack 0
  9259                           
  9260 ;; *************** function _putch *****************
  9261 ;; Defined at:
  9262 ;;		line 7 in file "C:\Program Files\Microchip\xc8\v2.45\pic\sources\c99\common\putch.c"
  9263 ;; Parameters:    Size  Location     Type
  9264 ;;  c               1    wreg     unsigned char 
  9265 ;; Auto vars:     Size  Location     Type
  9266 ;;  c               1    0[COMRAM] unsigned char 
  9267 ;; Return value:  Size  Location     Type
  9268 ;;                  1    wreg      void 
  9269 ;; Registers used:
  9270 ;;		wreg
  9271 ;; Tracked objects:
  9272 ;;		On entry : 0/0
  9273 ;;		On exit  : 0/0
  9274 ;;		Unchanged: 0/0
  9275 ;; Data sizes:     COMRAM   BANK0   BANK1   BANK2   BANK3   BANK4   BANK5   BANK6   BANK7
  9276 ;;      Params:         0       0       0       0       0       0       0       0       0
  9277 ;;      Locals:         0       0       0       0       0       0       0       0       0
  9278 ;;      Temps:          0       0       0       0       0       0       0       0       0
  9279 ;;      Totals:         0       0       0       0       0       0       0       0       0
  9280 ;;Total ram usage:        0 bytes
  9281 ;; Hardware stack levels used: 1
  9282 ;; This function calls:
  9283 ;;		Nothing
  9284 ;; This function is called by:
  9285 ;;		_fputc
  9286 ;; This function uses a non-reentrant model
  9287 ;;
  9288                           
  9289                           	psect	text31
  9290   0046CC                     __ptext31:
  9291                           	callstack 0
  9292   0046CC                     _putch:
  9293                           	callstack 25
  9294   0046CC  0012               	return		;funcret
  9295   0046CE                     __end_of_putch:
  9296                           	callstack 0
  9297                           
  9298 ;; *************** function _abs *****************
  9299 ;; Defined at:
  9300 ;;		line 1 in file "C:\Program Files\Microchip\xc8\v2.45\pic\sources\c99\common\abs.c"
  9301 ;; Parameters:    Size  Location     Type
  9302 ;;  a               2    6[COMRAM] int 
  9303 ;; Auto vars:     Size  Location     Type
  9304 ;;		None
  9305 ;; Return value:  Size  Location     Type
  9306 ;;                  2    6[COMRAM] int 
  9307 ;; Registers used:
  9308 ;;		wreg, status,2, status,0
  9309 ;; Tracked objects:
  9310 ;;		On entry : 0/0
  9311 ;;		On exit  : 0/0
  9312 ;;		Unchanged: 0/0
  9313 ;; Data sizes:     COMRAM   BANK0   BANK1   BANK2   BANK3   BANK4   BANK5   BANK6   BANK7
  9314 ;;      Params:         2       0       0       0       0       0       0       0       0
  9315 ;;      Locals:         0       0       0       0       0       0       0       0       0
  9316 ;;      Temps:          2       0       0       0       0       0       0       0       0
  9317 ;;      Totals:         4       0       0       0       0       0       0       0       0
  9318 ;;Total ram usage:        4 bytes
  9319 ;; Hardware stack levels used: 1
  9320 ;; This function calls:
  9321 ;;		Nothing
  9322 ;; This function is called by:
  9323 ;;		_dtoa
  9324 ;; This function uses a non-reentrant model
  9325 ;;
  9326                           
  9327                           	psect	text32
  9328   004608                     __ptext32:
  9329                           	callstack 0
  9330   004608                     _abs:
  9331                           	callstack 25
  9332   004608  BE08               	btfsc	(abs@a+1)^0,7,c
  9333   00460A  EF09  F023         	goto	u6571
  9334   00460E  EF0B  F023         	goto	u6570
  9335   004612                     u6571:
  9336   004612  EF11  F023         	goto	l1059
  9337   004616                     u6570:
  9338   004616  C007  F007         	movff	abs@a,?_abs
  9339   00461A  C008  F008         	movff	abs@a+1,?_abs+1
  9340   00461E  EF1D  F023         	goto	l1062
  9341   004622                     l1059:
  9342   004622  C007  F009         	movff	abs@a,??_abs
  9343   004626  C008  F00A         	movff	abs@a+1,??_abs+1
  9344   00462A  1E09               	comf	??_abs^0,f,c
  9345   00462C  1E0A               	comf	(??_abs+1)^0,f,c
  9346   00462E  4A09               	infsnz	??_abs^0,f,c
  9347   004630  2A0A               	incf	(??_abs+1)^0,f,c
  9348   004632  C009  F007         	movff	??_abs,?_abs
  9349   004636  C00A  F008         	movff	??_abs+1,?_abs+1
  9350   00463A                     l1062:
  9351   00463A  0012               	return		;funcret
  9352   00463C                     __end_of_abs:
  9353                           	callstack 0
  9354                           
  9355 ;; *************** function ___awmod *****************
  9356 ;; Defined at:
  9357 ;;		line 7 in file "C:\Program Files\Microchip\xc8\v2.45\pic\sources\c99\common\awmod.c"
  9358 ;; Parameters:    Size  Location     Type
  9359 ;;  dividend        2    0[COMRAM] int 
  9360 ;;  divisor         2    2[COMRAM] int 
  9361 ;; Auto vars:     Size  Location     Type
  9362 ;;  sign            1    5[COMRAM] unsigned char 
  9363 ;;  counter         1    4[COMRAM] unsigned char 
  9364 ;; Return value:  Size  Location     Type
  9365 ;;                  2    0[COMRAM] int 
  9366 ;; Registers used:
  9367 ;;		wreg, status,2, status,0
  9368 ;; Tracked objects:
  9369 ;;		On entry : 0/0
  9370 ;;		On exit  : 0/0
  9371 ;;		Unchanged: 0/0
  9372 ;; Data sizes:     COMRAM   BANK0   BANK1   BANK2   BANK3   BANK4   BANK5   BANK6   BANK7
  9373 ;;      Params:         4       0       0       0       0       0       0       0       0
  9374 ;;      Locals:         2       0       0       0       0       0       0       0       0
  9375 ;;      Temps:          0       0       0       0       0       0       0       0       0
  9376 ;;      Totals:         6       0       0       0       0       0       0       0       0
  9377 ;;Total ram usage:        6 bytes
  9378 ;; Hardware stack levels used: 1
  9379 ;; This function calls:
  9380 ;;		Nothing
  9381 ;; This function is called by:
  9382 ;;		_dtoa
  9383 ;; This function uses a non-reentrant model
  9384 ;;
  9385                           
  9386                           	psect	text33
  9387   004116                     __ptext33:
  9388                           	callstack 0
  9389   004116                     ___awmod:
  9390                           	callstack 25
  9391   004116  0E00               	movlw	0
  9392   004118  6E06               	movwf	___awmod@sign^0,c
  9393   00411A  BE02               	btfsc	(___awmod@dividend+1)^0,7,c
  9394   00411C  EF94  F020         	goto	u6330
  9395   004120  EF92  F020         	goto	u6331
  9396   004124                     u6331:
  9397   004124  EF9A  F020         	goto	l5289
  9398   004128                     u6330:
  9399   004128  6C01               	negf	___awmod@dividend^0,c
  9400   00412A  1E02               	comf	(___awmod@dividend+1)^0,f,c
  9401   00412C  B0D8               	btfsc	status,0,c
  9402   00412E  2A02               	incf	(___awmod@dividend+1)^0,f,c
  9403   004130  0E01               	movlw	1
  9404   004132  6E06               	movwf	___awmod@sign^0,c
  9405   004134                     l5289:
  9406   004134  BE04               	btfsc	(___awmod@divisor+1)^0,7,c
  9407   004136  EFA1  F020         	goto	u6340
  9408   00413A  EF9F  F020         	goto	u6341
  9409   00413E                     u6341:
  9410   00413E  EFA5  F020         	goto	l5293
  9411   004142                     u6340:
  9412   004142  6C03               	negf	___awmod@divisor^0,c
  9413   004144  1E04               	comf	(___awmod@divisor+1)^0,f,c
  9414   004146  B0D8               	btfsc	status,0,c
  9415   004148  2A04               	incf	(___awmod@divisor+1)^0,f,c
  9416   00414A                     l5293:
  9417   00414A  5003               	movf	___awmod@divisor^0,w,c
  9418   00414C  1004               	iorwf	(___awmod@divisor+1)^0,w,c
  9419   00414E  B4D8               	btfsc	status,2,c
  9420   004150  EFAC  F020         	goto	u6351
  9421   004154  EFAE  F020         	goto	u6350
  9422   004158                     u6351:
  9423   004158  EFD2  F020         	goto	l5309
  9424   00415C                     u6350:
  9425   00415C  0E01               	movlw	1
  9426   00415E  6E05               	movwf	___awmod@counter^0,c
  9427   004160  EFB6  F020         	goto	l5299
  9428   004164                     l5297:
  9429   004164  90D8               	bcf	status,0,c
  9430   004166  3603               	rlcf	___awmod@divisor^0,f,c
  9431   004168  3604               	rlcf	(___awmod@divisor+1)^0,f,c
  9432   00416A  2A05               	incf	___awmod@counter^0,f,c
  9433   00416C                     l5299:
  9434   00416C  AE04               	btfss	(___awmod@divisor+1)^0,7,c
  9435   00416E  EFBB  F020         	goto	u6361
  9436   004172  EFBD  F020         	goto	u6360
  9437   004176                     u6361:
  9438   004176  EFB2  F020         	goto	l5297
  9439   00417A                     u6360:
  9440   00417A                     l5301:
  9441   00417A  5003               	movf	___awmod@divisor^0,w,c
  9442   00417C  5C01               	subwf	___awmod@dividend^0,w,c
  9443   00417E  5004               	movf	(___awmod@divisor+1)^0,w,c
  9444   004180  5802               	subwfb	(___awmod@dividend+1)^0,w,c
  9445   004182  A0D8               	btfss	status,0,c
  9446   004184  EFC6  F020         	goto	u6371
  9447   004188  EFC8  F020         	goto	u6370
  9448   00418C                     u6371:
  9449   00418C  EFCC  F020         	goto	l5305
  9450   004190                     u6370:
  9451   004190  5003               	movf	___awmod@divisor^0,w,c
  9452   004192  5E01               	subwf	___awmod@dividend^0,f,c
  9453   004194  5004               	movf	(___awmod@divisor+1)^0,w,c
  9454   004196  5A02               	subwfb	(___awmod@dividend+1)^0,f,c
  9455   004198                     l5305:
  9456   004198  90D8               	bcf	status,0,c
  9457   00419A  3204               	rrcf	(___awmod@divisor+1)^0,f,c
  9458   00419C  3203               	rrcf	___awmod@divisor^0,f,c
  9459   00419E  2E05               	decfsz	___awmod@counter^0,f,c
  9460   0041A0  EFBD  F020         	goto	l5301
  9461   0041A4                     l5309:
  9462   0041A4  5006               	movf	___awmod@sign^0,w,c
  9463   0041A6  B4D8               	btfsc	status,2,c
  9464   0041A8  EFD8  F020         	goto	u6381
  9465   0041AC  EFDA  F020         	goto	u6380
  9466   0041B0                     u6381:
  9467   0041B0  EFDE  F020         	goto	l5313
  9468   0041B4                     u6380:
  9469   0041B4  6C01               	negf	___awmod@dividend^0,c
  9470   0041B6  1E02               	comf	(___awmod@dividend+1)^0,f,c
  9471   0041B8  B0D8               	btfsc	status,0,c
  9472   0041BA  2A02               	incf	(___awmod@dividend+1)^0,f,c
  9473   0041BC                     l5313:
  9474   0041BC  C001  F001         	movff	___awmod@dividend,?___awmod
  9475   0041C0  C002  F002         	movff	___awmod@dividend+1,?___awmod+1
  9476   0041C4  0012               	return		;funcret
  9477   0041C6                     __end_of___awmod:
  9478                           	callstack 0
  9479                           
  9480 ;; *************** function ___awdiv *****************
  9481 ;; Defined at:
  9482 ;;		line 7 in file "C:\Program Files\Microchip\xc8\v2.45\pic\sources\c99\common\awdiv.c"
  9483 ;; Parameters:    Size  Location     Type
  9484 ;;  dividend        2    0[COMRAM] int 
  9485 ;;  divisor         2    2[COMRAM] int 
  9486 ;; Auto vars:     Size  Location     Type
  9487 ;;  quotient        2    6[COMRAM] int 
  9488 ;;  sign            1    5[COMRAM] unsigned char 
  9489 ;;  counter         1    4[COMRAM] unsigned char 
  9490 ;; Return value:  Size  Location     Type
  9491 ;;                  2    0[COMRAM] int 
  9492 ;; Registers used:
  9493 ;;		wreg, status,2, status,0
  9494 ;; Tracked objects:
  9495 ;;		On entry : 0/0
  9496 ;;		On exit  : 0/0
  9497 ;;		Unchanged: 0/0
  9498 ;; Data sizes:     COMRAM   BANK0   BANK1   BANK2   BANK3   BANK4   BANK5   BANK6   BANK7
  9499 ;;      Params:         4       0       0       0       0       0       0       0       0
  9500 ;;      Locals:         4       0       0       0       0       0       0       0       0
  9501 ;;      Temps:          0       0       0       0       0       0       0       0       0
  9502 ;;      Totals:         8       0       0       0       0       0       0       0       0
  9503 ;;Total ram usage:        8 bytes
  9504 ;; Hardware stack levels used: 1
  9505 ;; This function calls:
  9506 ;;		Nothing
  9507 ;; This function is called by:
  9508 ;;		_dtoa
  9509 ;; This function uses a non-reentrant model
  9510 ;;
  9511                           
  9512                           	psect	text34
  9513   003F9C                     __ptext34:
  9514                           	callstack 0
  9515   003F9C                     ___awdiv:
  9516                           	callstack 25
  9517   003F9C  0E00               	movlw	0
  9518   003F9E  6E06               	movwf	___awdiv@sign^0,c
  9519   003FA0  BE04               	btfsc	(___awdiv@divisor+1)^0,7,c
  9520   003FA2  EFD7  F01F         	goto	u6270
  9521   003FA6  EFD5  F01F         	goto	u6271
  9522   003FAA                     u6271:
  9523   003FAA  EFDD  F01F         	goto	l5245
  9524   003FAE                     u6270:
  9525   003FAE  6C03               	negf	___awdiv@divisor^0,c
  9526   003FB0  1E04               	comf	(___awdiv@divisor+1)^0,f,c
  9527   003FB2  B0D8               	btfsc	status,0,c
  9528   003FB4  2A04               	incf	(___awdiv@divisor+1)^0,f,c
  9529   003FB6  0E01               	movlw	1
  9530   003FB8  6E06               	movwf	___awdiv@sign^0,c
  9531   003FBA                     l5245:
  9532   003FBA  BE02               	btfsc	(___awdiv@dividend+1)^0,7,c
  9533   003FBC  EFE4  F01F         	goto	u6280
  9534   003FC0  EFE2  F01F         	goto	u6281
  9535   003FC4                     u6281:
  9536   003FC4  EFEA  F01F         	goto	l5251
  9537   003FC8                     u6280:
  9538   003FC8  6C01               	negf	___awdiv@dividend^0,c
  9539   003FCA  1E02               	comf	(___awdiv@dividend+1)^0,f,c
  9540   003FCC  B0D8               	btfsc	status,0,c
  9541   003FCE  2A02               	incf	(___awdiv@dividend+1)^0,f,c
  9542   003FD0  0E01               	movlw	1
  9543   003FD2  1A06               	xorwf	___awdiv@sign^0,f,c
  9544   003FD4                     l5251:
  9545   003FD4  0E00               	movlw	0
  9546   003FD6  6E08               	movwf	(___awdiv@quotient+1)^0,c
  9547   003FD8  0E00               	movlw	0
  9548   003FDA  6E07               	movwf	___awdiv@quotient^0,c
  9549   003FDC  5003               	movf	___awdiv@divisor^0,w,c
  9550   003FDE  1004               	iorwf	(___awdiv@divisor+1)^0,w,c
  9551   003FE0  B4D8               	btfsc	status,2,c
  9552   003FE2  EFF5  F01F         	goto	u6291
  9553   003FE6  EFF7  F01F         	goto	u6290
  9554   003FEA                     u6291:
  9555   003FEA  EF1F  F020         	goto	l5273
  9556   003FEE                     u6290:
  9557   003FEE  0E01               	movlw	1
  9558   003FF0  6E05               	movwf	___awdiv@counter^0,c
  9559   003FF2  EFFF  F01F         	goto	l5259
  9560   003FF6                     l5257:
  9561   003FF6  90D8               	bcf	status,0,c
  9562   003FF8  3603               	rlcf	___awdiv@divisor^0,f,c
  9563   003FFA  3604               	rlcf	(___awdiv@divisor+1)^0,f,c
  9564   003FFC  2A05               	incf	___awdiv@counter^0,f,c
  9565   003FFE                     l5259:
  9566   003FFE  AE04               	btfss	(___awdiv@divisor+1)^0,7,c
  9567   004000  EF04  F020         	goto	u6301
  9568   004004  EF06  F020         	goto	u6300
  9569   004008                     u6301:
  9570   004008  EFFB  F01F         	goto	l5257
  9571   00400C                     u6300:
  9572   00400C                     l5261:
  9573   00400C  90D8               	bcf	status,0,c
  9574   00400E  3607               	rlcf	___awdiv@quotient^0,f,c
  9575   004010  3608               	rlcf	(___awdiv@quotient+1)^0,f,c
  9576   004012  5003               	movf	___awdiv@divisor^0,w,c
  9577   004014  5C01               	subwf	___awdiv@dividend^0,w,c
  9578   004016  5004               	movf	(___awdiv@divisor+1)^0,w,c
  9579   004018  5802               	subwfb	(___awdiv@dividend+1)^0,w,c
  9580   00401A  A0D8               	btfss	status,0,c
  9581   00401C  EF12  F020         	goto	u6311
  9582   004020  EF14  F020         	goto	u6310
  9583   004024                     u6311:
  9584   004024  EF19  F020         	goto	l5269
  9585   004028                     u6310:
  9586   004028  5003               	movf	___awdiv@divisor^0,w,c
  9587   00402A  5E01               	subwf	___awdiv@dividend^0,f,c
  9588   00402C  5004               	movf	(___awdiv@divisor+1)^0,w,c
  9589   00402E  5A02               	subwfb	(___awdiv@dividend+1)^0,f,c
  9590   004030  8007               	bsf	___awdiv@quotient^0,0,c
  9591   004032                     l5269:
  9592   004032  90D8               	bcf	status,0,c
  9593   004034  3204               	rrcf	(___awdiv@divisor+1)^0,f,c
  9594   004036  3203               	rrcf	___awdiv@divisor^0,f,c
  9595   004038  2E05               	decfsz	___awdiv@counter^0,f,c
  9596   00403A  EF06  F020         	goto	l5261
  9597   00403E                     l5273:
  9598   00403E  5006               	movf	___awdiv@sign^0,w,c
  9599   004040  B4D8               	btfsc	status,2,c
  9600   004042  EF25  F020         	goto	u6321
  9601   004046  EF27  F020         	goto	u6320
  9602   00404A                     u6321:
  9603   00404A  EF2B  F020         	goto	l5277
  9604   00404E                     u6320:
  9605   00404E  6C07               	negf	___awdiv@quotient^0,c
  9606   004050  1E08               	comf	(___awdiv@quotient+1)^0,f,c
  9607   004052  B0D8               	btfsc	status,0,c
  9608   004054  2A08               	incf	(___awdiv@quotient+1)^0,f,c
  9609   004056                     l5277:
  9610   004056  C007  F001         	movff	___awdiv@quotient,?___awdiv
  9611   00405A  C008  F002         	movff	___awdiv@quotient+1,?___awdiv+1
  9612   00405E  0012               	return		;funcret
  9613   004060                     __end_of___awdiv:
  9614                           	callstack 0
  9615                           
  9616 ;; *************** function _LCD_String *****************
  9617 ;; Defined at:
  9618 ;;		line 229 in file "newmain.c"
  9619 ;; Parameters:    Size  Location     Type
  9620 ;;  str             2    3[COMRAM] PTR const unsigned char 
  9621 ;;		 -> LCD_value@r(10), LCD_value_float@r(10), STR_3(22), STR_2(4), 
  9622 ;;		 -> STR_1(7), 
  9623 ;; Auto vars:     Size  Location     Type
  9624 ;;  i               1    7[COMRAM] unsigned char 
  9625 ;; Return value:  Size  Location     Type
  9626 ;;                  1    wreg      void 
  9627 ;; Registers used:
  9628 ;;		wreg, fsr1l, fsr1h, status,2, status,0, tblptrl, tblptrh, tblptru, cstack
  9629 ;; Tracked objects:
  9630 ;;		On entry : 0/0
  9631 ;;		On exit  : 0/0
  9632 ;;		Unchanged: 0/0
  9633 ;; Data sizes:     COMRAM   BANK0   BANK1   BANK2   BANK3   BANK4   BANK5   BANK6   BANK7
  9634 ;;      Params:         2       0       0       0       0       0       0       0       0
  9635 ;;      Locals:         1       0       0       0       0       0       0       0       0
  9636 ;;      Temps:          2       0       0       0       0       0       0       0       0
  9637 ;;      Totals:         5       0       0       0       0       0       0       0       0
  9638 ;;Total ram usage:        5 bytes
  9639 ;; Hardware stack levels used: 1
  9640 ;; Hardware stack levels required when called: 1
  9641 ;; This function calls:
  9642 ;;		_LCD_Char
  9643 ;; This function is called by:
  9644 ;;		_main
  9645 ;;		_LCD_value_float
  9646 ;;		_LCD_value
  9647 ;; This function uses a non-reentrant model
  9648 ;;
  9649                           
  9650                           	psect	text35
  9651   004270                     __ptext35:
  9652                           	callstack 0
  9653   004270                     _LCD_String:
  9654                           	callstack 28
  9655   004270                     
  9656                           ;newmain.c: 230:     uint8_t i = 0;
  9657   004270  0E00               	movlw	0
  9658   004272  6E08               	movwf	LCD_String@i^0,c
  9659                           
  9660                           ;newmain.c: 231:     while (str[i] != '\0') {
  9661   004274  EF55  F021         	goto	l4261
  9662   004278                     l4257:
  9663                           
  9664                           ;newmain.c: 232:         LCD_Char(str[i]);
  9665   004278  5008               	movf	LCD_String@i^0,w,c
  9666   00427A  2404               	addwf	LCD_String@str^0,w,c
  9667   00427C  6E06               	movwf	??_LCD_String^0,c
  9668   00427E  0E00               	movlw	0
  9669   004280  2005               	addwfc	(LCD_String@str+1)^0,w,c
  9670   004282  6E07               	movwf	(??_LCD_String+1)^0,c
  9671   004284  C006  FFF6         	movff	??_LCD_String,tblptrl
  9672   004288  C007  FFF7         	movff	??_LCD_String+1,tblptrh
  9673   00428C  6AF8               	clrf	tblptru,c
  9674   00428E  0E07               	movlw	(high __ramtop+-1)
  9675   004290  64F7               	cpfsgt	tblptrh,c
  9676   004292  D003               	bra	u5127
  9677   004294  0008               	tblrd		*
  9678   004296  50F5               	movf	tablat,w,c
  9679   004298  D005               	bra	u5120
  9680   00429A                     u5127:
  9681   00429A  CFF6 FFE1          	movff	tblptrl,fsr1l
  9682   00429E  CFF7 FFE2          	movff	tblptrh,fsr1h
  9683   0042A2  50E7               	movf	indf1,w,c
  9684   0042A4                     u5120:
  9685   0042A4  EC6E  F01C         	call	_LCD_Char
  9686   0042A8                     
  9687                           ;newmain.c: 233:         i++;
  9688   0042A8  2A08               	incf	LCD_String@i^0,f,c
  9689   0042AA                     l4261:
  9690                           
  9691                           ;newmain.c: 231:     while (str[i] != '\0') {
  9692   0042AA  5008               	movf	LCD_String@i^0,w,c
  9693   0042AC  2404               	addwf	LCD_String@str^0,w,c
  9694   0042AE  6E06               	movwf	??_LCD_String^0,c
  9695   0042B0  0E00               	movlw	0
  9696   0042B2  2005               	addwfc	(LCD_String@str+1)^0,w,c
  9697   0042B4  6E07               	movwf	(??_LCD_String+1)^0,c
  9698   0042B6  C006  FFF6         	movff	??_LCD_String,tblptrl
  9699   0042BA  C007  FFF7         	movff	??_LCD_String+1,tblptrh
  9700   0042BE  6AF8               	clrf	tblptru,c
  9701   0042C0  0E07               	movlw	(high __ramtop+-1)
  9702   0042C2  64F7               	cpfsgt	tblptrh,c
  9703   0042C4  D003               	bra	u5137
  9704   0042C6  0008               	tblrd		*
  9705   0042C8  50F5               	movf	tablat,w,c
  9706   0042CA  D005               	bra	u5130
  9707   0042CC                     u5137:
  9708   0042CC  CFF6 FFE1          	movff	tblptrl,fsr1l
  9709   0042D0  CFF7 FFE2          	movff	tblptrh,fsr1h
  9710   0042D4  50E7               	movf	indf1,w,c
  9711   0042D6                     u5130:
  9712   0042D6  0900               	iorlw	0
  9713   0042D8  A4D8               	btfss	status,2,c
  9714   0042DA  EF71  F021         	goto	u5141
  9715   0042DE  EF73  F021         	goto	u5140
  9716   0042E2                     u5141:
  9717   0042E2  EF3C  F021         	goto	l4257
  9718   0042E6                     u5140:
  9719   0042E6  0012               	return		;funcret
  9720   0042E8                     __end_of_LCD_String:
  9721                           	callstack 0
  9722                           
  9723 ;; *************** function _LCD_Char *****************
  9724 ;; Defined at:
  9725 ;;		line 206 in file "newmain.c"
  9726 ;; Parameters:    Size  Location     Type
  9727 ;;  data            1    wreg     unsigned char 
  9728 ;; Auto vars:     Size  Location     Type
  9729 ;;  data            1    2[COMRAM] unsigned char 
  9730 ;; Return value:  Size  Location     Type
  9731 ;;                  1    wreg      void 
  9732 ;; Registers used:
  9733 ;;		wreg, status,2, status,0, cstack
  9734 ;; Tracked objects:
  9735 ;;		On entry : 0/0
  9736 ;;		On exit  : 0/0
  9737 ;;		Unchanged: 0/0
  9738 ;; Data sizes:     COMRAM   BANK0   BANK1   BANK2   BANK3   BANK4   BANK5   BANK6   BANK7
  9739 ;;      Params:         0       0       0       0       0       0       0       0       0
  9740 ;;      Locals:         1       0       0       0       0       0       0       0       0
  9741 ;;      Temps:          2       0       0       0       0       0       0       0       0
  9742 ;;      Totals:         3       0       0       0       0       0       0       0       0
  9743 ;;Total ram usage:        3 bytes
  9744 ;; Hardware stack levels used: 1
  9745 ;; This function calls:
  9746 ;;		Nothing
  9747 ;; This function is called by:
  9748 ;;		_LCD_String
  9749 ;; This function uses a non-reentrant model
  9750 ;;
  9751                           
  9752                           	psect	text36
  9753   0038DC                     __ptext36:
  9754                           	callstack 0
  9755   0038DC                     _LCD_Char:
  9756                           	callstack 28
  9757                           
  9758                           ;incstack = 0
  9759                           ;LCD_Char@data stored from wreg
  9760   0038DC  6E03               	movwf	LCD_Char@data^0,c
  9761   0038DE                     
  9762                           ;newmain.c: 207:     RB7 = 1;
  9763   0038DE  8E81               	bsf	3969,7,c	;volatile
  9764   0038E0                     
  9765                           ;newmain.c: 208:     _delay((unsigned long)((1)*(20000000/4000.0)));
  9766   0038E0  0E07               	movlw	7
  9767   0038E2  6E01               	movwf	??_LCD_Char^0,c
  9768   0038E4  0E7D               	movlw	125
  9769   0038E6                     u7617:
  9770   0038E6  2EE8               	decfsz	wreg,f,c
  9771   0038E8  D7FE               	bra	u7617
  9772   0038EA  2E01               	decfsz	??_LCD_Char^0,f,c
  9773   0038EC  D7FC               	bra	u7617
  9774   0038EE  0000               	nop	
  9775   0038F0                     
  9776                           ;newmain.c: 209:     RB6 = 1;
  9777   0038F0  8C81               	bsf	3969,6,c	;volatile
  9778                           
  9779                           ;newmain.c: 210:     _delay((unsigned long)((1)*(20000000/4000.0)));
  9780   0038F2  0E07               	movlw	7
  9781   0038F4  6E01               	movwf	??_LCD_Char^0,c
  9782   0038F6  0E7D               	movlw	125
  9783   0038F8                     u7627:
  9784   0038F8  2EE8               	decfsz	wreg,f,c
  9785   0038FA  D7FE               	bra	u7627
  9786   0038FC  2E01               	decfsz	??_LCD_Char^0,f,c
  9787   0038FE  D7FC               	bra	u7627
  9788   003900  0000               	nop	
  9789   003902                     
  9790                           ;newmain.c: 211:     RC4 = (data >> 4) & 1;
  9791   003902  C003  F001         	movff	LCD_Char@data,??_LCD_Char
  9792   003906  3A01               	swapf	??_LCD_Char^0,f,c
  9793   003908  0E0F               	movlw	15
  9794   00390A  1601               	andwf	??_LCD_Char^0,f,c
  9795   00390C  3001               	rrcf	??_LCD_Char^0,w,c
  9796   00390E  B0D8               	btfsc	status,0,c
  9797   003910  EF8C  F01C         	goto	u4631
  9798   003914  EF8F  F01C         	goto	u4630
  9799   003918                     u4631:
  9800   003918  8882               	bsf	3970,4,c	;volatile
  9801   00391A  EF90  F01C         	goto	u4645
  9802   00391E                     u4630:
  9803   00391E  9882               	bcf	3970,4,c	;volatile
  9804   003920                     u4645:
  9805   003920                     
  9806                           ;newmain.c: 212:     RC5 = (data >> 5) & 1;
  9807   003920  C003  F001         	movff	LCD_Char@data,??_LCD_Char
  9808   003924  0E05               	movlw	5
  9809   003926  6E02               	movwf	(??_LCD_Char+1)^0,c
  9810   003928                     u4655:
  9811   003928  90D8               	bcf	status,0,c
  9812   00392A  3201               	rrcf	??_LCD_Char^0,f,c
  9813   00392C  2E02               	decfsz	(??_LCD_Char+1)^0,f,c
  9814   00392E  EF94  F01C         	goto	u4655
  9815   003932  3001               	rrcf	??_LCD_Char^0,w,c
  9816   003934  B0D8               	btfsc	status,0,c
  9817   003936  EF9F  F01C         	goto	u4661
  9818   00393A  EFA2  F01C         	goto	u4660
  9819   00393E                     u4661:
  9820   00393E  8A82               	bsf	3970,5,c	;volatile
  9821   003940  EFA3  F01C         	goto	u4675
  9822   003944                     u4660:
  9823   003944  9A82               	bcf	3970,5,c	;volatile
  9824   003946                     u4675:
  9825   003946                     
  9826                           ;newmain.c: 213:     RC6 = (data >> 6) & 1;
  9827   003946  C003  F001         	movff	LCD_Char@data,??_LCD_Char
  9828   00394A  0E06               	movlw	6
  9829   00394C  6E02               	movwf	(??_LCD_Char+1)^0,c
  9830   00394E                     u4685:
  9831   00394E  90D8               	bcf	status,0,c
  9832   003950  3201               	rrcf	??_LCD_Char^0,f,c
  9833   003952  2E02               	decfsz	(??_LCD_Char+1)^0,f,c
  9834   003954  EFA7  F01C         	goto	u4685
  9835   003958  3001               	rrcf	??_LCD_Char^0,w,c
  9836   00395A  B0D8               	btfsc	status,0,c
  9837   00395C  EFB2  F01C         	goto	u4691
  9838   003960  EFB5  F01C         	goto	u4690
  9839   003964                     u4691:
  9840   003964  8C82               	bsf	3970,6,c	;volatile
  9841   003966  EFB6  F01C         	goto	u4705
  9842   00396A                     u4690:
  9843   00396A  9C82               	bcf	3970,6,c	;volatile
  9844   00396C                     u4705:
  9845   00396C                     
  9846                           ;newmain.c: 214:     RC7 = (data >> 7) & 1;
  9847   00396C  6A01               	clrf	??_LCD_Char^0,c
  9848   00396E  AE03               	btfss	LCD_Char@data^0,7,c
  9849   003970  D001               	bra	u4715
  9850   003972  2A01               	incf	??_LCD_Char^0,f,c
  9851   003974                     u4715:
  9852   003974  3001               	rrcf	??_LCD_Char^0,w,c
  9853   003976  B0D8               	btfsc	status,0,c
  9854   003978  EFC0  F01C         	goto	u4721
  9855   00397C  EFC3  F01C         	goto	u4720
  9856   003980                     u4721:
  9857   003980  8E82               	bsf	3970,7,c	;volatile
  9858   003982  EFC4  F01C         	goto	u4735
  9859   003986                     u4720:
  9860   003986  9E82               	bcf	3970,7,c	;volatile
  9861   003988                     u4735:
  9862   003988                     
  9863                           ;newmain.c: 215:     _delay((unsigned long)((1)*(20000000/4000.0)));
  9864   003988  0E07               	movlw	7
  9865   00398A  6E01               	movwf	??_LCD_Char^0,c
  9866   00398C  0E7D               	movlw	125
  9867   00398E                     u7637:
  9868   00398E  2EE8               	decfsz	wreg,f,c
  9869   003990  D7FE               	bra	u7637
  9870   003992  2E01               	decfsz	??_LCD_Char^0,f,c
  9871   003994  D7FC               	bra	u7637
  9872   003996  0000               	nop	
  9873   003998                     
  9874                           ;newmain.c: 216:     RB6 = 0;
  9875   003998  9C81               	bcf	3969,6,c	;volatile
  9876   00399A                     
  9877                           ;newmain.c: 217:     _delay((unsigned long)((1)*(20000000/4000.0)));
  9878   00399A  0E07               	movlw	7
  9879   00399C  6E01               	movwf	??_LCD_Char^0,c
  9880   00399E  0E7D               	movlw	125
  9881   0039A0                     u7647:
  9882   0039A0  2EE8               	decfsz	wreg,f,c
  9883   0039A2  D7FE               	bra	u7647
  9884   0039A4  2E01               	decfsz	??_LCD_Char^0,f,c
  9885   0039A6  D7FC               	bra	u7647
  9886   0039A8  0000               	nop	
  9887   0039AA                     
  9888                           ;newmain.c: 218:     RB6 = 1;
  9889   0039AA  8C81               	bsf	3969,6,c	;volatile
  9890   0039AC                     
  9891                           ;newmain.c: 219:     _delay((unsigned long)((1)*(20000000/4000.0)));
  9892   0039AC  0E07               	movlw	7
  9893   0039AE  6E01               	movwf	??_LCD_Char^0,c
  9894   0039B0  0E7D               	movlw	125
  9895   0039B2                     u7657:
  9896   0039B2  2EE8               	decfsz	wreg,f,c
  9897   0039B4  D7FE               	bra	u7657
  9898   0039B6  2E01               	decfsz	??_LCD_Char^0,f,c
  9899   0039B8  D7FC               	bra	u7657
  9900   0039BA  0000               	nop	
  9901   0039BC                     
  9902                           ;newmain.c: 220:     RC4 = data & 1;
  9903   0039BC  B003               	btfsc	LCD_Char@data^0,0,c
  9904   0039BE  EFE3  F01C         	goto	u4741
  9905   0039C2  EFE6  F01C         	goto	u4740
  9906   0039C6                     u4741:
  9907   0039C6  8882               	bsf	3970,4,c	;volatile
  9908   0039C8  EFE7  F01C         	goto	u4755
  9909   0039CC                     u4740:
  9910   0039CC  9882               	bcf	3970,4,c	;volatile
  9911   0039CE                     u4755:
  9912   0039CE                     
  9913                           ;newmain.c: 221:     RC5 = (data >> 1) & 1;
  9914   0039CE  C003  F001         	movff	LCD_Char@data,??_LCD_Char
  9915   0039D2  90D8               	bcf	status,0,c
  9916   0039D4  3201               	rrcf	??_LCD_Char^0,f,c
  9917   0039D6  3001               	rrcf	??_LCD_Char^0,w,c
  9918   0039D8  B0D8               	btfsc	status,0,c
  9919   0039DA  EFF1  F01C         	goto	u4761
  9920   0039DE  EFF4  F01C         	goto	u4760
  9921   0039E2                     u4761:
  9922   0039E2  8A82               	bsf	3970,5,c	;volatile
  9923   0039E4  EFF5  F01C         	goto	u4775
  9924   0039E8                     u4760:
  9925   0039E8  9A82               	bcf	3970,5,c	;volatile
  9926   0039EA                     u4775:
  9927   0039EA                     
  9928                           ;newmain.c: 222:     RC6 = (data >> 2) & 1;
  9929   0039EA  C003  F001         	movff	LCD_Char@data,??_LCD_Char
  9930   0039EE  90D8               	bcf	status,0,c
  9931   0039F0  3201               	rrcf	??_LCD_Char^0,f,c
  9932   0039F2  90D8               	bcf	status,0,c
  9933   0039F4  3201               	rrcf	??_LCD_Char^0,f,c
  9934   0039F6  3001               	rrcf	??_LCD_Char^0,w,c
  9935   0039F8  B0D8               	btfsc	status,0,c
  9936   0039FA  EF01  F01D         	goto	u4781
  9937   0039FE  EF04  F01D         	goto	u4780
  9938   003A02                     u4781:
  9939   003A02  8C82               	bsf	3970,6,c	;volatile
  9940   003A04  EF05  F01D         	goto	u4795
  9941   003A08                     u4780:
  9942   003A08  9C82               	bcf	3970,6,c	;volatile
  9943   003A0A                     u4795:
  9944   003A0A                     
  9945                           ;newmain.c: 223:     RC7 = (data >> 3) & 1;
  9946   003A0A  C003  F001         	movff	LCD_Char@data,??_LCD_Char
  9947   003A0E  90D8               	bcf	status,0,c
  9948   003A10  3201               	rrcf	??_LCD_Char^0,f,c
  9949   003A12  90D8               	bcf	status,0,c
  9950   003A14  3201               	rrcf	??_LCD_Char^0,f,c
  9951   003A16  90D8               	bcf	status,0,c
  9952   003A18  3201               	rrcf	??_LCD_Char^0,f,c
  9953   003A1A  3001               	rrcf	??_LCD_Char^0,w,c
  9954   003A1C  B0D8               	btfsc	status,0,c
  9955   003A1E  EF13  F01D         	goto	u4801
  9956   003A22  EF16  F01D         	goto	u4800
  9957   003A26                     u4801:
  9958   003A26  8E82               	bsf	3970,7,c	;volatile
  9959   003A28  EF17  F01D         	goto	u4815
  9960   003A2C                     u4800:
  9961   003A2C  9E82               	bcf	3970,7,c	;volatile
  9962   003A2E                     u4815:
  9963   003A2E                     
  9964                           ;newmain.c: 224:     _delay((unsigned long)((1)*(20000000/4000.0)));
  9965   003A2E  0E07               	movlw	7
  9966   003A30  6E01               	movwf	??_LCD_Char^0,c
  9967   003A32  0E7D               	movlw	125
  9968   003A34                     u7667:
  9969   003A34  2EE8               	decfsz	wreg,f,c
  9970   003A36  D7FE               	bra	u7667
  9971   003A38  2E01               	decfsz	??_LCD_Char^0,f,c
  9972   003A3A  D7FC               	bra	u7667
  9973   003A3C  0000               	nop	
  9974   003A3E                     
  9975                           ;newmain.c: 225:     RB6 = 0;
  9976   003A3E  9C81               	bcf	3969,6,c	;volatile
  9977   003A40                     
  9978                           ;newmain.c: 226:     _delay((unsigned long)((1)*(20000000/4000.0)));
  9979   003A40  0E07               	movlw	7
  9980   003A42  6E01               	movwf	??_LCD_Char^0,c
  9981   003A44  0E7D               	movlw	125
  9982   003A46                     u7677:
  9983   003A46  2EE8               	decfsz	wreg,f,c
  9984   003A48  D7FE               	bra	u7677
  9985   003A4A  2E01               	decfsz	??_LCD_Char^0,f,c
  9986   003A4C  D7FC               	bra	u7677
  9987   003A4E  0000               	nop	
  9988   003A50  0012               	return		;funcret
  9989   003A52                     __end_of_LCD_Char:
  9990                           	callstack 0
  9991                           
  9992 ;; *************** function _LCD_Init *****************
  9993 ;; Defined at:
  9994 ;;		line 164 in file "newmain.c"
  9995 ;; Parameters:    Size  Location     Type
  9996 ;;		None
  9997 ;; Auto vars:     Size  Location     Type
  9998 ;;		None
  9999 ;; Return value:  Size  Location     Type
 10000 ;;                  1    wreg      void 
 10001 ;; Registers used:
 10002 ;;		wreg, status,2, status,0, cstack
 10003 ;; Tracked objects:
 10004 ;;		On entry : 0/0
 10005 ;;		On exit  : 0/0
 10006 ;;		Unchanged: 0/0
 10007 ;; Data sizes:     COMRAM   BANK0   BANK1   BANK2   BANK3   BANK4   BANK5   BANK6   BANK7
 10008 ;;      Params:         0       0       0       0       0       0       0       0       0
 10009 ;;      Locals:         0       0       0       0       0       0       0       0       0
 10010 ;;      Temps:          1       0       0       0       0       0       0       0       0
 10011 ;;      Totals:         1       0       0       0       0       0       0       0       0
 10012 ;;Total ram usage:        1 bytes
 10013 ;; Hardware stack levels used: 1
 10014 ;; Hardware stack levels required when called: 1
 10015 ;; This function calls:
 10016 ;;		_LCD_Command
 10017 ;; This function is called by:
 10018 ;;		_main
 10019 ;; This function uses a non-reentrant model
 10020 ;;
 10021                           
 10022                           	psect	text37
 10023   00451C                     __ptext37:
 10024                           	callstack 0
 10025   00451C                     _LCD_Init:
 10026                           	callstack 29
 10027   00451C                     
 10028                           ;newmain.c: 166:     TRISB7 = 0;
 10029   00451C  9E93               	bcf	3987,7,c	;volatile
 10030                           
 10031                           ;newmain.c: 167:     TRISB6 = 0;
 10032   00451E  9C93               	bcf	3987,6,c	;volatile
 10033   004520                     
 10034                           ;newmain.c: 168:     TRISC = 0X07;
 10035   004520  0E07               	movlw	7
 10036   004522  6E94               	movwf	148,c	;volatile
 10037   004524                     
 10038                           ;newmain.c: 172:     _delay((unsigned long)((15)*(20000000/4000.0)));
 10039   004524  0E62               	movlw	98
 10040   004526  6E04               	movwf	??_LCD_Init^0,c
 10041   004528  0E66               	movlw	102
 10042   00452A                     u7687:
 10043   00452A  2EE8               	decfsz	wreg,f,c
 10044   00452C  D7FE               	bra	u7687
 10045   00452E  2E04               	decfsz	??_LCD_Init^0,f,c
 10046   004530  D7FC               	bra	u7687
 10047   004532                     
 10048                           ;newmain.c: 175:     LCD_Command(0x02);
 10049   004532  0E02               	movlw	2
 10050   004534  EC29  F01D         	call	_LCD_Command
 10051   004538                     
 10052                           ;newmain.c: 176:     LCD_Command(0x28);
 10053   004538  0E28               	movlw	40
 10054   00453A  EC29  F01D         	call	_LCD_Command
 10055   00453E                     
 10056                           ;newmain.c: 177:     LCD_Command(0x0C);
 10057   00453E  0E0C               	movlw	12
 10058   004540  EC29  F01D         	call	_LCD_Command
 10059   004544                     
 10060                           ;newmain.c: 178:     LCD_Command(0x06);
 10061   004544  0E06               	movlw	6
 10062   004546  EC29  F01D         	call	_LCD_Command
 10063   00454A                     
 10064                           ;newmain.c: 179:     LCD_Command(0x01);
 10065   00454A  0E01               	movlw	1
 10066   00454C  EC29  F01D         	call	_LCD_Command
 10067   004550                     
 10068                           ;newmain.c: 180:     _delay((unsigned long)((2)*(20000000/4000.0)));
 10069   004550  0E0D               	movlw	13
 10070   004552  6E04               	movwf	??_LCD_Init^0,c
 10071   004554  0EFC               	movlw	252
 10072   004556                     u7697:
 10073   004556  2EE8               	decfsz	wreg,f,c
 10074   004558  D7FE               	bra	u7697
 10075   00455A  2E04               	decfsz	??_LCD_Init^0,f,c
 10076   00455C  D7FC               	bra	u7697
 10077   00455E  0012               	return		;funcret
 10078   004560                     __end_of_LCD_Init:
 10079                           	callstack 0
 10080                           
 10081 ;; *************** function _LCD_Clear *****************
 10082 ;; Defined at:
 10083 ;;		line 237 in file "newmain.c"
 10084 ;; Parameters:    Size  Location     Type
 10085 ;;		None
 10086 ;; Auto vars:     Size  Location     Type
 10087 ;;		None
 10088 ;; Return value:  Size  Location     Type
 10089 ;;                  1    wreg      void 
 10090 ;; Registers used:
 10091 ;;		wreg, status,2, status,0, cstack
 10092 ;; Tracked objects:
 10093 ;;		On entry : 0/0
 10094 ;;		On exit  : 0/0
 10095 ;;		Unchanged: 0/0
 10096 ;; Data sizes:     COMRAM   BANK0   BANK1   BANK2   BANK3   BANK4   BANK5   BANK6   BANK7
 10097 ;;      Params:         0       0       0       0       0       0       0       0       0
 10098 ;;      Locals:         0       0       0       0       0       0       0       0       0
 10099 ;;      Temps:          1       0       0       0       0       0       0       0       0
 10100 ;;      Totals:         1       0       0       0       0       0       0       0       0
 10101 ;;Total ram usage:        1 bytes
 10102 ;; Hardware stack levels used: 1
 10103 ;; Hardware stack levels required when called: 1
 10104 ;; This function calls:
 10105 ;;		_LCD_Command
 10106 ;; This function is called by:
 10107 ;;		_main
 10108 ;; This function uses a non-reentrant model
 10109 ;;
 10110                           
 10111                           	psect	text38
 10112   0046AC                     __ptext38:
 10113                           	callstack 0
 10114   0046AC                     _LCD_Clear:
 10115                           	callstack 29
 10116   0046AC                     
 10117                           ;newmain.c: 238:     LCD_Command(0x01);
 10118   0046AC  0E01               	movlw	1
 10119   0046AE  EC29  F01D         	call	_LCD_Command
 10120   0046B2                     
 10121                           ;newmain.c: 239:     _delay((unsigned long)((2)*(20000000/4000.0)));
 10122   0046B2  0E0D               	movlw	13
 10123   0046B4  6E04               	movwf	??_LCD_Clear^0,c
 10124   0046B6  0EFC               	movlw	252
 10125   0046B8                     u7707:
 10126   0046B8  2EE8               	decfsz	wreg,f,c
 10127   0046BA  D7FE               	bra	u7707
 10128   0046BC  2E04               	decfsz	??_LCD_Clear^0,f,c
 10129   0046BE  D7FC               	bra	u7707
 10130   0046C0  0012               	return		;funcret
 10131   0046C2                     __end_of_LCD_Clear:
 10132                           	callstack 0
 10133                           
 10134 ;; *************** function _LCD_Command *****************
 10135 ;; Defined at:
 10136 ;;		line 183 in file "newmain.c"
 10137 ;; Parameters:    Size  Location     Type
 10138 ;;  cmd             1    wreg     unsigned char 
 10139 ;; Auto vars:     Size  Location     Type
 10140 ;;  cmd             1    2[COMRAM] unsigned char 
 10141 ;; Return value:  Size  Location     Type
 10142 ;;                  1    wreg      void 
 10143 ;; Registers used:
 10144 ;;		wreg, status,2, status,0, cstack
 10145 ;; Tracked objects:
 10146 ;;		On entry : 0/0
 10147 ;;		On exit  : 0/0
 10148 ;;		Unchanged: 0/0
 10149 ;; Data sizes:     COMRAM   BANK0   BANK1   BANK2   BANK3   BANK4   BANK5   BANK6   BANK7
 10150 ;;      Params:         0       0       0       0       0       0       0       0       0
 10151 ;;      Locals:         1       0       0       0       0       0       0       0       0
 10152 ;;      Temps:          2       0       0       0       0       0       0       0       0
 10153 ;;      Totals:         3       0       0       0       0       0       0       0       0
 10154 ;;Total ram usage:        3 bytes
 10155 ;; Hardware stack levels used: 1
 10156 ;; This function calls:
 10157 ;;		Nothing
 10158 ;; This function is called by:
 10159 ;;		_main
 10160 ;;		_LCD_Init
 10161 ;;		_LCD_Clear
 10162 ;;		_LCD_SetCursor
 10163 ;; This function uses a non-reentrant model
 10164 ;;
 10165                           
 10166                           	psect	text39
 10167   003A52                     __ptext39:
 10168                           	callstack 0
 10169   003A52                     _LCD_Command:
 10170                           	callstack 29
 10171                           
 10172                           ;incstack = 0
 10173                           ;LCD_Command@cmd stored from wreg
 10174   003A52  6E03               	movwf	LCD_Command@cmd^0,c
 10175   003A54                     
 10176                           ;newmain.c: 184:     RB7 = 0;
 10177   003A54  9E81               	bcf	3969,7,c	;volatile
 10178   003A56                     
 10179                           ;newmain.c: 185:     _delay((unsigned long)((1)*(20000000/4000.0)));
 10180   003A56  0E07               	movlw	7
 10181   003A58  6E01               	movwf	??_LCD_Command^0,c
 10182   003A5A  0E7D               	movlw	125
 10183   003A5C                     u7717:
 10184   003A5C  2EE8               	decfsz	wreg,f,c
 10185   003A5E  D7FE               	bra	u7717
 10186   003A60  2E01               	decfsz	??_LCD_Command^0,f,c
 10187   003A62  D7FC               	bra	u7717
 10188   003A64  0000               	nop	
 10189   003A66                     
 10190                           ;newmain.c: 186:     RB6 = 1;
 10191   003A66  8C81               	bsf	3969,6,c	;volatile
 10192                           
 10193                           ;newmain.c: 187:     _delay((unsigned long)((1)*(20000000/4000.0)));
 10194   003A68  0E07               	movlw	7
 10195   003A6A  6E01               	movwf	??_LCD_Command^0,c
 10196   003A6C  0E7D               	movlw	125
 10197   003A6E                     u7727:
 10198   003A6E  2EE8               	decfsz	wreg,f,c
 10199   003A70  D7FE               	bra	u7727
 10200   003A72  2E01               	decfsz	??_LCD_Command^0,f,c
 10201   003A74  D7FC               	bra	u7727
 10202   003A76  0000               	nop	
 10203   003A78                     
 10204                           ;newmain.c: 188:     RC4 = (cmd >> 4) & 1;
 10205   003A78  C003  F001         	movff	LCD_Command@cmd,??_LCD_Command
 10206   003A7C  3A01               	swapf	??_LCD_Command^0,f,c
 10207   003A7E  0E0F               	movlw	15
 10208   003A80  1601               	andwf	??_LCD_Command^0,f,c
 10209   003A82  3001               	rrcf	??_LCD_Command^0,w,c
 10210   003A84  B0D8               	btfsc	status,0,c
 10211   003A86  EF47  F01D         	goto	u4931
 10212   003A8A  EF4A  F01D         	goto	u4930
 10213   003A8E                     u4931:
 10214   003A8E  8882               	bsf	3970,4,c	;volatile
 10215   003A90  EF4B  F01D         	goto	u4945
 10216   003A94                     u4930:
 10217   003A94  9882               	bcf	3970,4,c	;volatile
 10218   003A96                     u4945:
 10219   003A96                     
 10220                           ;newmain.c: 189:     RC5 = (cmd >> 5) & 1;
 10221   003A96  C003  F001         	movff	LCD_Command@cmd,??_LCD_Command
 10222   003A9A  0E05               	movlw	5
 10223   003A9C  6E02               	movwf	(??_LCD_Command+1)^0,c
 10224   003A9E                     u4955:
 10225   003A9E  90D8               	bcf	status,0,c
 10226   003AA0  3201               	rrcf	??_LCD_Command^0,f,c
 10227   003AA2  2E02               	decfsz	(??_LCD_Command+1)^0,f,c
 10228   003AA4  EF4F  F01D         	goto	u4955
 10229   003AA8  3001               	rrcf	??_LCD_Command^0,w,c
 10230   003AAA  B0D8               	btfsc	status,0,c
 10231   003AAC  EF5A  F01D         	goto	u4961
 10232   003AB0  EF5D  F01D         	goto	u4960
 10233   003AB4                     u4961:
 10234   003AB4  8A82               	bsf	3970,5,c	;volatile
 10235   003AB6  EF5E  F01D         	goto	u4975
 10236   003ABA                     u4960:
 10237   003ABA  9A82               	bcf	3970,5,c	;volatile
 10238   003ABC                     u4975:
 10239   003ABC                     
 10240                           ;newmain.c: 190:     RC6 = (cmd >> 6) & 1;
 10241   003ABC  C003  F001         	movff	LCD_Command@cmd,??_LCD_Command
 10242   003AC0  0E06               	movlw	6
 10243   003AC2  6E02               	movwf	(??_LCD_Command+1)^0,c
 10244   003AC4                     u4985:
 10245   003AC4  90D8               	bcf	status,0,c
 10246   003AC6  3201               	rrcf	??_LCD_Command^0,f,c
 10247   003AC8  2E02               	decfsz	(??_LCD_Command+1)^0,f,c
 10248   003ACA  EF62  F01D         	goto	u4985
 10249   003ACE  3001               	rrcf	??_LCD_Command^0,w,c
 10250   003AD0  B0D8               	btfsc	status,0,c
 10251   003AD2  EF6D  F01D         	goto	u4991
 10252   003AD6  EF70  F01D         	goto	u4990
 10253   003ADA                     u4991:
 10254   003ADA  8C82               	bsf	3970,6,c	;volatile
 10255   003ADC  EF71  F01D         	goto	u5005
 10256   003AE0                     u4990:
 10257   003AE0  9C82               	bcf	3970,6,c	;volatile
 10258   003AE2                     u5005:
 10259   003AE2                     
 10260                           ;newmain.c: 191:     RC7 = (cmd >> 7) & 1;
 10261   003AE2  6A01               	clrf	??_LCD_Command^0,c
 10262   003AE4  AE03               	btfss	LCD_Command@cmd^0,7,c
 10263   003AE6  D001               	bra	u5015
 10264   003AE8  2A01               	incf	??_LCD_Command^0,f,c
 10265   003AEA                     u5015:
 10266   003AEA  3001               	rrcf	??_LCD_Command^0,w,c
 10267   003AEC  B0D8               	btfsc	status,0,c
 10268   003AEE  EF7B  F01D         	goto	u5021
 10269   003AF2  EF7E  F01D         	goto	u5020
 10270   003AF6                     u5021:
 10271   003AF6  8E82               	bsf	3970,7,c	;volatile
 10272   003AF8  EF7F  F01D         	goto	u5035
 10273   003AFC                     u5020:
 10274   003AFC  9E82               	bcf	3970,7,c	;volatile
 10275   003AFE                     u5035:
 10276   003AFE                     
 10277                           ;newmain.c: 192:     _delay((unsigned long)((1)*(20000000/4000.0)));
 10278   003AFE  0E07               	movlw	7
 10279   003B00  6E01               	movwf	??_LCD_Command^0,c
 10280   003B02  0E7D               	movlw	125
 10281   003B04                     u7737:
 10282   003B04  2EE8               	decfsz	wreg,f,c
 10283   003B06  D7FE               	bra	u7737
 10284   003B08  2E01               	decfsz	??_LCD_Command^0,f,c
 10285   003B0A  D7FC               	bra	u7737
 10286   003B0C  0000               	nop	
 10287   003B0E                     
 10288                           ;newmain.c: 193:     RB6 = 0;
 10289   003B0E  9C81               	bcf	3969,6,c	;volatile
 10290   003B10                     
 10291                           ;newmain.c: 194:     _delay((unsigned long)((1)*(20000000/4000.0)));
 10292   003B10  0E07               	movlw	7
 10293   003B12  6E01               	movwf	??_LCD_Command^0,c
 10294   003B14  0E7D               	movlw	125
 10295   003B16                     u7747:
 10296   003B16  2EE8               	decfsz	wreg,f,c
 10297   003B18  D7FE               	bra	u7747
 10298   003B1A  2E01               	decfsz	??_LCD_Command^0,f,c
 10299   003B1C  D7FC               	bra	u7747
 10300   003B1E  0000               	nop	
 10301   003B20                     
 10302                           ;newmain.c: 195:     RB6 = 1;
 10303   003B20  8C81               	bsf	3969,6,c	;volatile
 10304   003B22                     
 10305                           ;newmain.c: 196:     _delay((unsigned long)((1)*(20000000/4000.0)));
 10306   003B22  0E07               	movlw	7
 10307   003B24  6E01               	movwf	??_LCD_Command^0,c
 10308   003B26  0E7D               	movlw	125
 10309   003B28                     u7757:
 10310   003B28  2EE8               	decfsz	wreg,f,c
 10311   003B2A  D7FE               	bra	u7757
 10312   003B2C  2E01               	decfsz	??_LCD_Command^0,f,c
 10313   003B2E  D7FC               	bra	u7757
 10314   003B30  0000               	nop	
 10315   003B32                     
 10316                           ;newmain.c: 197:     RC4 = cmd & 1;
 10317   003B32  B003               	btfsc	LCD_Command@cmd^0,0,c
 10318   003B34  EF9E  F01D         	goto	u5041
 10319   003B38  EFA1  F01D         	goto	u5040
 10320   003B3C                     u5041:
 10321   003B3C  8882               	bsf	3970,4,c	;volatile
 10322   003B3E  EFA2  F01D         	goto	u5055
 10323   003B42                     u5040:
 10324   003B42  9882               	bcf	3970,4,c	;volatile
 10325   003B44                     u5055:
 10326   003B44                     
 10327                           ;newmain.c: 198:     RC5 = (cmd >> 1) & 1;
 10328   003B44  C003  F001         	movff	LCD_Command@cmd,??_LCD_Command
 10329   003B48  90D8               	bcf	status,0,c
 10330   003B4A  3201               	rrcf	??_LCD_Command^0,f,c
 10331   003B4C  3001               	rrcf	??_LCD_Command^0,w,c
 10332   003B4E  B0D8               	btfsc	status,0,c
 10333   003B50  EFAC  F01D         	goto	u5061
 10334   003B54  EFAF  F01D         	goto	u5060
 10335   003B58                     u5061:
 10336   003B58  8A82               	bsf	3970,5,c	;volatile
 10337   003B5A  EFB0  F01D         	goto	u5075
 10338   003B5E                     u5060:
 10339   003B5E  9A82               	bcf	3970,5,c	;volatile
 10340   003B60                     u5075:
 10341   003B60                     
 10342                           ;newmain.c: 199:     RC6 = (cmd >> 2) & 1;
 10343   003B60  C003  F001         	movff	LCD_Command@cmd,??_LCD_Command
 10344   003B64  90D8               	bcf	status,0,c
 10345   003B66  3201               	rrcf	??_LCD_Command^0,f,c
 10346   003B68  90D8               	bcf	status,0,c
 10347   003B6A  3201               	rrcf	??_LCD_Command^0,f,c
 10348   003B6C  3001               	rrcf	??_LCD_Command^0,w,c
 10349   003B6E  B0D8               	btfsc	status,0,c
 10350   003B70  EFBC  F01D         	goto	u5081
 10351   003B74  EFBF  F01D         	goto	u5080
 10352   003B78                     u5081:
 10353   003B78  8C82               	bsf	3970,6,c	;volatile
 10354   003B7A  EFC0  F01D         	goto	u5095
 10355   003B7E                     u5080:
 10356   003B7E  9C82               	bcf	3970,6,c	;volatile
 10357   003B80                     u5095:
 10358   003B80                     
 10359                           ;newmain.c: 200:     RC7 = (cmd >> 3) & 1;
 10360   003B80  C003  F001         	movff	LCD_Command@cmd,??_LCD_Command
 10361   003B84  90D8               	bcf	status,0,c
 10362   003B86  3201               	rrcf	??_LCD_Command^0,f,c
 10363   003B88  90D8               	bcf	status,0,c
 10364   003B8A  3201               	rrcf	??_LCD_Command^0,f,c
 10365   003B8C  90D8               	bcf	status,0,c
 10366   003B8E  3201               	rrcf	??_LCD_Command^0,f,c
 10367   003B90  3001               	rrcf	??_LCD_Command^0,w,c
 10368   003B92  B0D8               	btfsc	status,0,c
 10369   003B94  EFCE  F01D         	goto	u5101
 10370   003B98  EFD1  F01D         	goto	u5100
 10371   003B9C                     u5101:
 10372   003B9C  8E82               	bsf	3970,7,c	;volatile
 10373   003B9E  EFD2  F01D         	goto	u5115
 10374   003BA2                     u5100:
 10375   003BA2  9E82               	bcf	3970,7,c	;volatile
 10376   003BA4                     u5115:
 10377   003BA4                     
 10378                           ;newmain.c: 201:     _delay((unsigned long)((1)*(20000000/4000.0)));
 10379   003BA4  0E07               	movlw	7
 10380   003BA6  6E01               	movwf	??_LCD_Command^0,c
 10381   003BA8  0E7D               	movlw	125
 10382   003BAA                     u7767:
 10383   003BAA  2EE8               	decfsz	wreg,f,c
 10384   003BAC  D7FE               	bra	u7767
 10385   003BAE  2E01               	decfsz	??_LCD_Command^0,f,c
 10386   003BB0  D7FC               	bra	u7767
 10387   003BB2  0000               	nop	
 10388   003BB4                     
 10389                           ;newmain.c: 202:     RB6 = 0;
 10390   003BB4  9C81               	bcf	3969,6,c	;volatile
 10391   003BB6                     
 10392                           ;newmain.c: 203:     _delay((unsigned long)((1)*(20000000/4000.0)));
 10393   003BB6  0E07               	movlw	7
 10394   003BB8  6E01               	movwf	??_LCD_Command^0,c
 10395   003BBA  0E7D               	movlw	125
 10396   003BBC                     u7777:
 10397   003BBC  2EE8               	decfsz	wreg,f,c
 10398   003BBE  D7FE               	bra	u7777
 10399   003BC0  2E01               	decfsz	??_LCD_Command^0,f,c
 10400   003BC2  D7FC               	bra	u7777
 10401   003BC4  0000               	nop	
 10402   003BC6  0012               	return		;funcret
 10403   003BC8                     __end_of_LCD_Command:
 10404                           	callstack 0
 10405                           
 10406 ;; *************** function _CCP1_Init *****************
 10407 ;; Defined at:
 10408 ;;		line 40 in file "newmain.c"
 10409 ;; Parameters:    Size  Location     Type
 10410 ;;		None
 10411 ;; Auto vars:     Size  Location     Type
 10412 ;;		None
 10413 ;; Return value:  Size  Location     Type
 10414 ;;                  1    wreg      void 
 10415 ;; Registers used:
 10416 ;;		wreg, status,2
 10417 ;; Tracked objects:
 10418 ;;		On entry : 0/0
 10419 ;;		On exit  : 0/0
 10420 ;;		Unchanged: 0/0
 10421 ;; Data sizes:     COMRAM   BANK0   BANK1   BANK2   BANK3   BANK4   BANK5   BANK6   BANK7
 10422 ;;      Params:         0       0       0       0       0       0       0       0       0
 10423 ;;      Locals:         0       0       0       0       0       0       0       0       0
 10424 ;;      Temps:          0       0       0       0       0       0       0       0       0
 10425 ;;      Totals:         0       0       0       0       0       0       0       0       0
 10426 ;;Total ram usage:        0 bytes
 10427 ;; Hardware stack levels used: 1
 10428 ;; This function calls:
 10429 ;;		Nothing
 10430 ;; This function is called by:
 10431 ;;		_main
 10432 ;; This function uses a non-reentrant model
 10433 ;;
 10434                           
 10435                           	psect	text40
 10436   0046C2                     __ptext40:
 10437                           	callstack 0
 10438   0046C2                     _CCP1_Init:
 10439                           	callstack 30
 10440   0046C2                     
 10441                           ;newmain.c: 42:     CCP1CON = 0b00000101;
 10442   0046C2  0E05               	movlw	5
 10443   0046C4  6EBD               	movwf	189,c	;volatile
 10444                           
 10445                           ;newmain.c: 43:     T1CON = 0b00000001;
 10446   0046C6  0E01               	movlw	1
 10447   0046C8  6ECD               	movwf	205,c	;volatile
 10448   0046CA  0012               	return		;funcret
 10449   0046CC                     __end_of_CCP1_Init:
 10450                           	callstack 0
 10451                           
 10452                           	psect	rparam
 10453   000000                     tosu	equ	0xFFF
 10454                           tosh	equ	0xFFE
 10455                           tosl	equ	0xFFD
 10456                           stkptr	equ	0xFFC
 10457                           pclatu	equ	0xFFB
 10458                           pclath	equ	0xFFA
 10459                           pcl	equ	0xFF9
 10460                           tblptru	equ	0xFF8
 10461                           tblptrh	equ	0xFF7
 10462                           tblptrl	equ	0xFF6
 10463                           tablat	equ	0xFF5
 10464                           prodh	equ	0xFF4
 10465                           prodl	equ	0xFF3
 10466                           indf0	equ	0xFEF
 10467                           postinc0	equ	0xFEE
 10468                           postdec0	equ	0xFED
 10469                           preinc0	equ	0xFEC
 10470                           plusw0	equ	0xFEB
 10471                           fsr0h	equ	0xFEA
 10472                           fsr0l	equ	0xFE9
 10473                           wreg	equ	0xFE8
 10474                           indf1	equ	0xFE7
 10475                           postinc1	equ	0xFE6
 10476                           postdec1	equ	0xFE5
 10477                           preinc1	equ	0xFE4
 10478                           plusw1	equ	0xFE3
 10479                           fsr1h	equ	0xFE2
 10480                           fsr1l	equ	0xFE1
 10481                           bsr	equ	0xFE0
 10482                           indf2	equ	0xFDF
 10483                           postinc2	equ	0xFDE
 10484                           postdec2	equ	0xFDD
 10485                           preinc2	equ	0xFDC
 10486                           plusw2	equ	0xFDB
 10487                           fsr2h	equ	0xFDA
 10488                           fsr2l	equ	0xFD9
 10489                           status	equ	0xFD8

Data Sizes:
    Strings     50
    Constant    64
    Data        0
    BSS         103
    Persistent  0
    Stack       0

Auto Spaces:
    Space          Size  Autos    Used
    COMRAM           95     95      95
    BANK0           160    158     159
    BANK1           256     71     173
    BANK2           256      0       0
    BANK3           256      0       0
    BANK4           256      0       0
    BANK5           256      0       0
    BANK6           256      0       0
    BANK7           256      0       0

Pointer List with Targets:

    dtoa@fp	PTR struct _IO_FILE size(2) Largest target is 12
		 -> sprintf@f(BANK1[12]), 

    efgtoa@fp	PTR struct _IO_FILE size(2) Largest target is 12
		 -> sprintf@f(BANK1[12]), 

    f$.$buffer	PTR unsigned char  size(2) Largest target is 0

    f$.$source	PTR const unsigned char  size(2) Largest target is 0

    fputc@fp	PTR struct _IO_FILE size(2) Largest target is 12
		 -> sprintf@f(BANK1[12]), 

    fputc@fp$.$buffer	PTR unsigned char  size(2) Largest target is 0

    fputc@fp$.$source	PTR const unsigned char  size(2) Largest target is 0

    fputs@fp	PTR struct _IO_FILE size(2) Largest target is 12
		 -> sprintf@f(BANK1[12]), 

    fputs@s	PTR const unsigned char  size(2) Largest target is 80
		 -> dbuf(BANK1[80]), 

    LCD_String@str	PTR const unsigned char  size(2) Largest target is 22
		 -> LCD_value@r(COMRAM[10]), LCD_value_float@r(BANK1[10]), STR_1(CODE[7]), STR_2(CODE[4]), 
		 -> STR_3(CODE[22]), 

    memcpy@d	PTR unsigned char  size(2) Largest target is 80
		 -> dbuf(BANK1[80]), 

    memcpy@d1	PTR void  size(2) Largest target is 80
		 -> dbuf(BANK1[80]), 

    memcpy@s	PTR const unsigned char  size(2) Largest target is 80
		 -> dbuf(BANK1[80]), 

    memcpy@s1	PTR const void  size(2) Largest target is 80
		 -> dbuf(BANK1[80]), 

    pad@buf	PTR unsigned char  size(2) Largest target is 80
		 -> dbuf(BANK1[80]), 

    pad@fp	PTR struct _IO_FILE size(2) Largest target is 12
		 -> sprintf@f(BANK1[12]), 

    read_prec_or_width@ap	PTR PTR void [1] size(2) Largest target is 2
		 -> sprintf@ap(BANK1[2]), 

    read_prec_or_width@fmt	PTR PTR const unsigned char  size(1) Largest target is 1
		 -> vfprintf@cfmt(COMRAM[1]), 

    __rem_pio2f@y	PTR  size(1) Largest target is 4
		 -> cosf@y(BANK0[4]), 

    S647$buffer	PTR unsigned char  size(2) Largest target is 0

    S647$source	PTR const unsigned char  size(2) Largest target is 0

    sp__memcpy	PTR void  size(2) Largest target is 80
		 -> dbuf(BANK1[80]), 

    sp__strcpy	PTR unsigned char  size(2) Largest target is 80
		 -> dbuf(BANK1[80]), 

    sprintf@ap	PTR void [1] size(2) Largest target is 2
		 -> ?_sprintf(BANK1[2]), 

    sprintf@fmt	PTR const unsigned char  size(1) Largest target is 6
		 -> STR_4(CODE[6]), STR_5(CODE[3]), 

    sprintf@s	PTR unsigned char  size(2) Largest target is 10
		 -> LCD_value@r(COMRAM[10]), LCD_value_float@r(BANK1[10]), 

    strcpy@d	PTR unsigned char  size(2) Largest target is 80
		 -> dbuf(BANK1[80]), 

    strcpy@dest	PTR unsigned char  size(2) Largest target is 80
		 -> dbuf(BANK1[80]), 

    strcpy@src	PTR const unsigned char  size(1) Largest target is 4
		 -> STR_6(CODE[4]), STR_9(CODE[4]), 

    vfpfcnvrt@ap	PTR PTR void  size(2) Largest target is 2
		 -> sprintf@ap(BANK1[2]), 

    vfpfcnvrt@cp	PTR unsigned char  size(1) Largest target is 6
		 -> STR_4(CODE[6]), STR_5(CODE[3]), 

    vfpfcnvrt@fmt	PTR PTR unsigned char  size(1) Largest target is 1
		 -> vfprintf@cfmt(COMRAM[1]), 

    vfpfcnvrt@fp	PTR struct _IO_FILE size(2) Largest target is 12
		 -> sprintf@f(BANK1[12]), 

    vfprintf@ap	PTR PTR void  size(2) Largest target is 2
		 -> sprintf@ap(BANK1[2]), 

    vfprintf@cfmt	PTR unsigned char  size(1) Largest target is 6
		 -> STR_4(CODE[6]), STR_5(CODE[3]), 

    vfprintf@fmt	PTR const unsigned char  size(1) Largest target is 6
		 -> STR_4(CODE[6]), STR_5(CODE[3]), 

    vfprintf@fp	PTR struct _IO_FILE size(2) Largest target is 12
		 -> sprintf@f(BANK1[12]), 


Critical Paths under _main in COMRAM

    _cosf->___rem_pio2f
    _cosf->___sindf
    ___sindf->___flsub
    ___rem_pio2f->___fltol
    ___cosdf->___fladd
    _sprintf->_vfprintf
    _read_prec_or_width->___wmul
    _floorf->___fldiv
    ___fltol->___fladd
    ___flsub->___fladd
    ___fladd->___flmul
    ___flneg->___cosdf
    ___flmul->___fldiv
    ___flge->_cosf
    ___fldiv->___xxtofl
    _dtoa->_pad
    _pad->_fputs
    _fputs->_fputc
    _abs->___awmod
    _LCD_String->_LCD_Char
    _LCD_Init->_LCD_Command
    _LCD_Clear->_LCD_Command

Critical Paths under _main in BANK0

    _cosf->___rem_pio2f
    ___rem_pio2f->___flneg
    _vfprintf->_vfpfcnvrt
    _vfpfcnvrt->_efgtoa
    _efgtoa->___flge
    ___flneg->___cosdf
    ___flge->_cosf

Critical Paths under _main in BANK1

    _main->_LCD_value_float
    _LCD_value_float->_sprintf
    _sprintf->_vfprintf
    _vfprintf->_vfpfcnvrt

Critical Paths under _main in BANK2

    None.

Critical Paths under _main in BANK3

    None.

Critical Paths under _main in BANK4

    None.

Critical Paths under _main in BANK5

    None.

Critical Paths under _main in BANK6

    None.

Critical Paths under _main in BANK7

    None.

Call Graph Tables:

 ---------------------------------------------------------------------------------
 (Depth) Function   	        Calls       Base Space   Used Autos Params    Refs
 ---------------------------------------------------------------------------------
 (0) _main                                                26    26      0  150433
                                            156 BANK0      2     2      0
                                             47 BANK1     24    24      0
                          _CCP1_Init
                          _LCD_Clear
                        _LCD_Command
                           _LCD_Init
                         _LCD_String
                    _LCD_value_float
                            ___fladd
                            ___fldiv
                             ___flge
                            ___flmul
                            ___flsub
                           ___xxtofl
                               _cosf
 ---------------------------------------------------------------------------------
 (1) _cosf                                                28    24      4   72714
                                             92 COMRAM     2     2      0
                                             58 BANK0     26    22      4
                            ___cosdf
                            ___fladd
                            ___flneg
                            ___flsub
                        ___rem_pio2f
                            ___sindf
 ---------------------------------------------------------------------------------
 (2) ___sindf                                             32    28      4   15022
                                             88 COMRAM     4     0      4
                                              0 BANK0     28    28      0
                            ___fladd
                            ___flmul
                            ___flsub (ARG)
 ---------------------------------------------------------------------------------
 (2) ___rem_pio2f                                         32    27      5   25852
                                             90 COMRAM     2     2      0
                                             28 BANK0     30    25      5
                            ___fladd
                            ___flmul
                            ___flneg
                            ___flsub
                            ___fltol
                           ___xxtofl
                              _fabsf
 ---------------------------------------------------------------------------------
 (3) _fabsf                                                8     4      4     199
                                              0 COMRAM     8     4      4
 ---------------------------------------------------------------------------------
 (3) ___xxtofl                                            14    10      4     550
                                              0 COMRAM    14    10      4
 ---------------------------------------------------------------------------------
 (2) ___cosdf                                             28    24      4   14926
                                             80 COMRAM     4     0      4
                                              0 BANK0     24    24      0
                            ___fladd
                            ___flmul
 ---------------------------------------------------------------------------------
 (1) _LCD_value_float                                     14    10      4   48835
                                             33 BANK1     14    10      4
                         _LCD_String
                               _cosf (ARG)
                            _sprintf
 ---------------------------------------------------------------------------------
 (2) _sprintf                                             23    16      7   47898
                                             12 BANK1     21    14      7
                           _vfprintf
 ---------------------------------------------------------------------------------
 (3) _vfprintf                                             6     1      5   47214
                                             94 COMRAM     1     1      0
                                              7 BANK1      5     0      5
                          _vfpfcnvrt
 ---------------------------------------------------------------------------------
 (4) _vfpfcnvrt                                           14     9      5   46708
                                            149 BANK0      7     2      5
                                              0 BANK1      7     7      0
                               _dtoa
                             _efgtoa
                              _fputc
                 _read_prec_or_width
 ---------------------------------------------------------------------------------
 (5) _read_prec_or_width                                   8     5      3     852
                                              6 COMRAM     8     5      3
                             ___wmul
 ---------------------------------------------------------------------------------
 (6) ___wmul                                               6     2      4     412
                                              0 COMRAM     6     2      4
 ---------------------------------------------------------------------------------
 (5) _efgtoa                                              54    47      7   38132
                                             96 BANK0     53    46      7
                            ___fladd
                            ___fldiv
                             ___fleq
                             ___flge
                            ___flmul
                            ___flneg
                            ___flsub
                            ___fltol
                      ___fpclassifyf
                             _floorf
                               _labs
                             _memcpy
                                _pad
                             _strcpy
 ---------------------------------------------------------------------------------
 (6) _strcpy                                               6     3      3     463
                                              0 COMRAM     6     3      3
 ---------------------------------------------------------------------------------
 (6) _memcpy                                              11     5      6     478
                                              0 COMRAM    11     5      6
 ---------------------------------------------------------------------------------
 (6) _labs                                                 8     4      4     363
                                              0 COMRAM     8     4      4
 ---------------------------------------------------------------------------------
 (6) _floorf                                              20    16      4     669
                                             39 COMRAM    20    16      4
                            ___fldiv (ARG)
 ---------------------------------------------------------------------------------
 (6) ___fpclassifyf                                       14    10      4     375
                                              0 COMRAM    14    10      4
 ---------------------------------------------------------------------------------
 (3) ___fltol                                             10     6      4     787
                                             80 COMRAM    10     6      4
                            ___fladd (ARG)
                            ___flmul (ARG)
 ---------------------------------------------------------------------------------
 (3) ___flsub                                              8     0      8    8507
                                             80 COMRAM     8     0      8
                            ___fladd
                            ___flmul (ARG)
 ---------------------------------------------------------------------------------
 (3) ___fladd                                             16     8      8    6502
                                             64 COMRAM    16     8      8
                            ___fldiv (ARG)
                            ___flmul (ARG)
                           ___xxtofl (ARG)
 ---------------------------------------------------------------------------------
 (3) ___flneg                                              4     0      4     605
                                             24 BANK0      4     0      4
                            ___cosdf (ARG)
 ---------------------------------------------------------------------------------
 (3) ___flmul                                             25    17      8    7553
                                             39 COMRAM    25    17      8
                            ___fldiv (ARG)
                           ___xxtofl (ARG)
 ---------------------------------------------------------------------------------
 (1) ___flge                                              12     4      8    1166
                                             84 BANK0     12     4      8
                            ___flmul (ARG)
                            ___flsub (ARG)
                               _cosf (ARG)
 ---------------------------------------------------------------------------------
 (6) ___fleq                                              12     4      8     770
                                              0 COMRAM    12     4      8
 ---------------------------------------------------------------------------------
 (1) ___fldiv                                             25    17      8    2903
                                             14 COMRAM    25    17      8
                           ___xxtofl (ARG)
 ---------------------------------------------------------------------------------
 (5) _dtoa                                                13     9      4    5510
                                             25 COMRAM    13     9      4
                            ___awdiv
                            ___awmod
                                _abs
                                _pad
 ---------------------------------------------------------------------------------
 (6) _pad                                                  9     3      6    3309
                                             16 COMRAM     9     3      6
                              _fputc
                              _fputs
 ---------------------------------------------------------------------------------
 (7) _fputs                                                7     3      4    1177
                                              9 COMRAM     7     3      4
                              _fputc
 ---------------------------------------------------------------------------------
 (5) _fputc                                                9     5      4     857
                                              0 COMRAM     9     5      4
                              _putch
 ---------------------------------------------------------------------------------
 (6) _putch                                                1     1      0       0
 ---------------------------------------------------------------------------------
 (6) _abs                                                  4     2      2     183
                                              6 COMRAM     4     2      2
                            ___awmod (ARG)
 ---------------------------------------------------------------------------------
 (6) ___awmod                                              6     2      4     613
                                              0 COMRAM     6     2      4
 ---------------------------------------------------------------------------------
 (6) ___awdiv                                              8     4      4     625
                                              0 COMRAM     8     4      4
 ---------------------------------------------------------------------------------
 (2) _LCD_String                                           5     3      2     646
                                              3 COMRAM     5     3      2
                           _LCD_Char
 ---------------------------------------------------------------------------------
 (3) _LCD_Char                                             3     3      0     176
                                              0 COMRAM     3     3      0
 ---------------------------------------------------------------------------------
 (1) _LCD_Init                                             1     1      0     176
                                              3 COMRAM     1     1      0
                        _LCD_Command
 ---------------------------------------------------------------------------------
 (1) _LCD_Clear                                            1     1      0     176
                                              3 COMRAM     1     1      0
                        _LCD_Command
 ---------------------------------------------------------------------------------
 (2) _LCD_Command                                          3     3      0     176
                                              0 COMRAM     3     3      0
 ---------------------------------------------------------------------------------
 (1) _CCP1_Init                                            0     0      0       0
 ---------------------------------------------------------------------------------
 Estimated maximum stack depth 7
 ---------------------------------------------------------------------------------

 Call Graph Graphs:

 _main (ROOT)
   _CCP1_Init
   _LCD_Clear
     _LCD_Command
   _LCD_Command
   _LCD_Init
     _LCD_Command
   _LCD_String
     _LCD_Char
   _LCD_value_float
     _LCD_String
     _cosf (ARG)
       ___cosdf
         ___fladd
           ___fldiv (ARG)
             ___xxtofl (ARG)
           ___flmul (ARG)
             ___fldiv (ARG)
             ___xxtofl (ARG)
           ___xxtofl (ARG)
         ___flmul
       ___fladd
       ___flneg
         ___cosdf (ARG)
       ___flsub
         ___fladd
         ___flmul (ARG)
       ___rem_pio2f
         ___fladd
         ___flmul
         ___flneg
         ___flsub
         ___fltol
           ___fladd (ARG)
           ___flmul (ARG)
         ___xxtofl
         _fabsf
       ___sindf
         ___fladd
         ___flmul
         ___flsub (ARG)
     _sprintf (ARG)
       _vfprintf
         _vfpfcnvrt
           _dtoa
             ___awdiv
             ___awmod
             _abs
               ___awmod (ARG)
             _pad
               _fputc
                 _putch
               _fputs
                 _fputc
           _efgtoa
             ___fladd
             ___fldiv
             ___fleq
             ___flge
               ___flmul (ARG)
               ___flsub (ARG)
               _cosf (ARG)
             ___flmul
             ___flneg
             ___flsub
             ___fltol
             ___fpclassifyf
             _floorf
               ___fldiv (ARG)
             _labs
             _memcpy
             _pad
             _strcpy
           _fputc
           _read_prec_or_width
             ___wmul
   ___fladd
   ___fldiv
   ___flge
   ___flmul
   ___flsub
   ___xxtofl
   _cosf

 Address spaces:
Name               Size   Autos  Total    Cost      Usage
BIGRAM             7FF      0       0      27        0.0%
EEDATA             100      0       0       0        0.0%
BITBANK7           100      0       0      19        0.0%
BANK7              100      0       0      20        0.0%
BITBANK6           100      0       0      17        0.0%
BANK6              100      0       0      18        0.0%
BITBANK5           100      0       0      15        0.0%
BANK5              100      0       0      16        0.0%
BITBANK4           100      0       0      13        0.0%
BANK4              100      0       0      14        0.0%
BITBANK3           100      0       0      11        0.0%
BANK3              100      0       0      12        0.0%
BITBANK2           100      0       0       9        0.0%
BANK2              100      0       0      10        0.0%
BITBANK1           100      0       0       7        0.0%
BANK1              100     47      AD       8       67.6%
BITBANK0            A0      0       0       5        0.0%
BANK0               A0     9E      9F       6       99.4%
BITCOMRAM           5F      0       0       0        0.0%
COMRAM              5F     5F      5F       1      100.0%
BITBIGSFRhh         32      0       0      21        0.0%
BITBIGSFRllll       21      0       0      26        0.0%
BITBIGSFRlhh        1E      0       0      23        0.0%
BITBIGSFRllhl        F      0       0      25        0.0%
BITBIGSFRhl          D      0       0      22        0.0%
BITBIGSFRlhl         8      0       0      24        0.0%
BIGSFR               0      0       0     200        0.0%
BITSFR               0      0       0     200        0.0%
SFR                  0      0       0     200        0.0%
STACK                0      0       0       2        0.0%
NULL                 0      0       0       0        0.0%
ABS                  0      0     1AB       3        0.0%
DATA                 0      0     1AB       4        0.0%
CODE                 0      0       0       0        0.0%


Microchip Technology PIC18 Macro Assembler V2.45 build 20230818022343 
Symbol Table                                                                                   Tue Oct 24 16:22:25 2023

              ___fldiv@aexp 0027                ___fldiv@bexp 0026                           _i 0114  
              ___fldiv@sign 001F                ?_LCD_Command 0001                          _C0 082D  
                        _C1 0829                          _C2 0825                          _C3 0821  
                        l71 23C2                          l63 20CC                          l57 46CA  
                        l65 20DA                          l90 455E                          l74 2318  
                        l66 20E8                          _S1 080D                          l76 2324  
                        l68 20F6                          _S2 0809                          l93 3BC6  
                        l77 2330                          _S3 0805                          l78 233C  
                        _S4 0801                          l79 2348                          l96 3A50  
              ___awdiv@sign 0006         ___wmul@multiplicand 0003                 ?_LCD_String 0004  
                       l102 42E6                         l120 4690                         l105 46C0  
                       l114 466A                         l351 405E                         l417 3CCC  
                       l364 41C4                         l702 2BE8                         l390 3DD2  
                       l704 2A48                         l713 2A8E                         l385 3D8C  
                       l394 45D2                         l650 196E                         l810 17CA  
                       l715 2B06                         l707 2A0C                         l379 426E  
                       l716 2AF4                         l741 1F46                         l734 1D50  
                       l751 2076                         l743 1FBE                         l920 4354  
                       l744 1FAC                         l648 19BA                         l665 1AD4  
                       l657 1C8A                         l649 19A8                         l738 20B4  
                       l674 1BA4                         l690 44D6                         l675 1B92  
                       l916 42FE                         l941 3726                         l925 35B2  
                       l846 356C                         l782 3816                         l862 26B0  
                       l927 35BA                         l775 377E                         l863 284E  
                       l928 3600                         l952 12D0                         l880 4606  
                       l778 38DA                         l955 0C00                         l875 315C  
                       l957 0A44                         l789 3872                         l887 4446  
                       l985 104A                         _RD2 7C1A                         _RB6 7C0E  
                       _RC4 7C14                         _RD3 7C1B                         _RB7 7C0F  
                       _RC5 7C15                         _RC6 7C16                         _RC7 7C17  
                       _RD6 7C1E                         _RD7 7C1F                         _abs 4608  
                       _pad 42E8                ___awmod@sign 0006                         wreg 0FE8  
              ___flmul@aexp 0035                ___flmul@bexp 003A                ___flmul@sign 0034  
              ___flmul@temp 003F                ___flmul@prod 003B                 main@endTime 01AB  
              ___fltol@exp1 005A                        l1003 410C                        l1100 3F9A  
                      l1022 2F2A                        l1111 46CC                        l1007 4114  
                      ?_abs 0007                        l1108 451A                        l1044 4490  
                      l1117 4598                        l1062 463A                        l1054 3ED0  
                      l1071 32B2                        l1082 43AA                        l1059 4622  
                      l1068 336E                        l1088 43FA                        l4121 3902  
                      l5001 291C                        l4201 45F4                        l4131 3998  
                      l4123 3920                        l4115 38DE                        l5003 2932  
                      l4203 45F6                        l4221 3A66                        l4141 39CE  
                      l4133 399A                        l4125 3946                        l4117 38E0  
                      l5021 2986                        l5005 2942                        l5013 2962  
                      l5101 1C8C                        l4231 3AFE                        l4223 3A78  
                      l4151 3A40                        l4143 39EA                        l4135 39AA  
                      l4127 396C                        l4119 38F0                        l5031 29D8  
                      l5023 29A0                        l5015 2972                        l5007 294A  
                      l5111 1CC8                        l5103 1C98                        l4241 3B32  
                      l4233 3B0E                        l4225 3A96                        l4217 3A54  
                      l4145 3A0A                        l4137 39AC                        l4129 3988  
                      l5041 2A34                        l5033 29E8                        l5025 29B0  
                      l5017 2972                        l5009 294E                        l5201 1FCE  
                      l5121 1CFA                        l5113 1CD8                        l5105 1CA6  
                      l4161 37A4                        l4153 372A                        l6001 136A  
                      l4251 3BB4                        l4243 3B44                        l4235 3B10  
                      l4227 3ABC                        l4219 3A56                        l4331 451C  
                      l4147 3A2E                        l4139 39BC                        l5051 2A74  
                      l5043 2A36                        l5035 29FC                        l5027 29C0  
                      l5211 2030                        l5203 1FDA                        l5131 1D3A  
                      l5123 1D08                        l5115 1CDE                        l5107 1CA8  
                      l4171 37FE                        l4155 373A                        l6011 1422  
                      l6003 1388                        l4253 3BB6                        l4245 3B60  
                      l4237 3B20                        l4229 3AE2                        l4341 453E  
                      l4333 4520                        l4149 3A3E                        l4261 42AA  
                      l5301 417A                        l5061 2AB0                        l5053 2A7E  
                      l5045 2A46                        l5037 2A0A                        l5029 29D0  
                      l5221 2098                        l5213 2044                        l5205 1FE8  
                      l5141 1D84                        l5133 1D40                        l5125 1D0A  
                      l5117 1CEE                        l5109 1CB8                        l4181 3862  
                      l4173 3800                        l4165 37B8                        l4157 3748  
                      l6021 14A2                        l6005 13A6                        l6101 20C6  
                      l4247 3B80                        l4239 3B22                        l4351 46B2  
                      l4343 4544                        l4335 4524                        l4255 4270  
                      l5311 41B4                        l5303 4190                        l5071 2B22  
                      l5063 2ABE                        l5055 2A8C                        l5047 2A58  
                      l5039 2A16                        l5223 209A                        l5215 205E  
                      l5207 2012                        l5151 1DD4                        l5143 1D90  
                      l5135 1D60                        l5127 1D1A                        l5119 1CF4  
                      l5231 4492                        l4191 38BA                        l4183 3880  
                      l4175 380C                        l4167 37C0                        l4159 378E  
                      l6007 13B6                        l6031 1516                        l6111 2116  
                      l6103 20CA                        l4329 46C2                        l4249 3BA4  
                      l4345 454A                        l4337 4532                        l4257 4278  
                      l5241 3FAE                        l5313 41BC                        l5305 4198  
                      l5081 2B8E                        l5073 2B30                        l5065 2AEC  
                      l5049 2A6E                        l5057 2A9E                        l5321 4204  
                      l5217 207A                        l5225 20A0                        l5209 2016  
                      l5161 1E16                        l5153 1DE0                        l5145 1D9A  
                      l5137 1D70                        l5129 1D2A                        l5233 44A2  
                      l5401 3CAC                        l4193 38C8                        l4185 3882  
                      l4177 3848                        l4169 37CC                        l6041 15CE  
                      l6033 1534                        l6009 13EE                        l6017 145E  
                      l6121 21F6                        l6113 2126                        l6105 20E2  
                      l4347 4550                        l4339 4538                        l4259 42A8  
                      l5251 3FD4                        l5243 3FB6                        l5307 419E  
                      l5411 430A                        l5091 2BDC                        l5083 2BA8  
                      l5075 2B5A                        l5059 2AAC                        l5323 4232  
                      l5227 20A4                        l5219 208A                        l5171 1E78  
                      l5163 1E22                        l5155 1DEC                        l5147 1DB0  
                      l5403 3CBC                        l4195 38CA                        l4187 3886  
                      l4179 3854                        l6035 1552                        l6019 146E  
                      l6027 14CA                        l6131 225A                        l6123 222A  
                      l6115 2132                        l6107 20E6                        l4349 46AC  
                      l5261 400C                        l5253 3FDC                        l5245 3FBA  
                      l5237 3F9C                        l5309 41A4                        l5421 4616  
                      l5413 431E                        l5501 3596                        l5093 2BDE  
                      l5085 2BC4                        l5069 2B16                        l5077 2B5E  
                      l5325 4242                        l5317 41C6                        l5341 3D4C  
                      l5333 3CCE                        l5181 1F0E                        l5173 1E84  
                      l5165 1E32                        l5157 1DFA                        l5149 1DBC  
                      l4189 38AA                        l6037 1562                        l6061 168A  
                      l6141 22E4                        l6133 226A                        l6125 2230  
                      l6117 2138                        l6109 20FE                        ?_pad 0011  
                      l5271 4038                        l5263 4012                        l5255 3FEE  
                      l5247 3FC8                        l5239 3FA0                        l5415 4322  
                      l5407 42E8                        l5511 35E8                        l5503 35A6  
                      l5087 2BC8                        l5079 2B78                        l5327 4266  
                      l5319 41F4                        l5351 3DD0                        l5343 3D5A  
                      l5335 3CFE                        l5191 1F64                        l5183 1F2C  
                      l5175 1EA0                        l5167 1E4C                        l5159 1E06  
                      l5431 3E66                        l5423 3DD4                        l4199 45D4  
                      l6071 16E8                        l6063 16A0                        l6055 1652  
                      l6039 159A                        l6047 15F6                        l6151 23A2  
                      l6143 22EA                        l6135 228E                        l6127 2240  
                      l6119 2152                        l5265 4028                        l5257 3FF6  
                      l5273 403E                        l5249 3FD0                        l5281 4116  
                      l5417 4340                        l5409 42F6                        l5521 3616  
                      l5513 35F4                        l5505 35C2                        l5089 2BD6  
                      l5329 426C                        l5345 3D6C                        l5337 3D0E  
                      l5193 1F68                        l5185 1F36                        l5177 1ECA  
                      l5169 1E5C                        l4801 18DC                        l5441 3EC8  
                      l5425 3DF4                        l5601 09DC                        l6081 1770  
                      l6065 16B0                        l6049 1606                        l6161 2462  
                      l6153 23BC                        l6145 22FA                        l6137 22C2  
                      l6129 2254                        l5275 404E                        l5267 4030  
                      l5259 3FFE                        l5291 4142                        l5283 411A  
                      l5419 4608                        l5531 368A                        l5523 3648  
                      l5515 35FC                        l5507 35D2                        l5347 3D7A  
                      l5339 3D3C                        l5195 1F76                        l5187 1F44  
                      l5179 1F00                        l5355 459A                        l4811 18F0  
                      l4803 18E0                        l5371 3C1C                        l5363 3BC8  
                      l5427 3E32                        l5435 3E72                        l5451 4364  
                      l5611 0A0E                        l6075 1710                        l6163 247E  
                      l6155 23DE                        l6139 22D6                        l5277 4056  
                      l5269 4032                        l5293 414A                        l5285 4128  
                      l4741 3F1E                        l4733 3ED2                        l5541 36F0  
                      l5533 369C                        l5525 364E                        l5517 3608  
                      l5509 35D8                        l5349 3DCA                        l5197 1FA4  
                      l5189 1F56                        l5357 45B2                        l4901 1B42  
                      l4821 1904                        l4813 18F4                        l4805 18E4  
                      l5373 3C1E                        l5365 3BDE                        l5437 3E84  
                      l5429 3E5A                        l5461 31D4                        l5453 4378  
                      l5445 4560                        l5701 0F90                        l5621 0ACC  
                      l6069 16C4                        l6157 2402                        l6149 2354  
                      l6093 20B6                        l5295 415C                        l5287 4130  
                      l4743 3F54                        l4735 3EE4                        l5543 36F6  
                      l5535 36B6                        l5527 3654                        l5519 3610  
                      l5359 45C2                        l4911 1B74                        l4903 1B52  
                      l4831 1956                        l4823 1908                        l4815 18F8  
                      l4807 18E8                        l4751 17E6                        l5375 3C2E  
                      l5471 32A2                        l5463 31E8                        l5447 4568  
                      l5711 1040                        l5703 0F94                        l5631 0B8C  
                      l5623 0B00                        l5615 0A54                        l5551 087A  
                      l6351 2C6E                        l6079 174C                        l6087 1798  
                      l6159 245C                        l6095 20BA                        l5297 4164  
                      l5289 4134                        l4737 3EF6                        l5545 3706  
                      l5537 36D0                        l5529 3670                        l4921 1BCE  
                      l4913 1B8A                        l4905 1B54                        l4841 199A  
                      l4833 1966                        l4817 18FC                        l4809 18EC  
                      l4825 190C                        l4761 181A                        l4753 17E8  
                      l5385 3C58                        l5377 3C32                        l5369 3BF2  
                      l5481 335E                        l5465 31F6                        l5473 32D6  
                      l5457 315E                        l5449 4356                        l5721 1084  
                      l5713 105C                        l5705 0F9C                        l5641 0C24  
                      l5625 0B3C                        l5617 0A5A                        l5609 09F4  
                      l5561 08CA                        l5553 088A                        l6353 2DB8  
                      l5801 2C24                        l6097 20BE                        l5299 416C  
                      l4739 3F00                        l5539 36E0                        l4931 1C4A  
                      l4923 1C08                        l4907 1B62                        l4843 199C  
                      l4835 197C                        l4827 1910                        l4819 1900  
                      l4771 184C                        l4755 17F8                        l4763 1822  
                      l4747 17CC                        l5395 3C80                        l5387 3C62  
                      l5379 3C40                        l5475 3312                        l5459 317E  
                      l5491 43D0                        l5723 108C                        l5715 106A  
                      l5731 10AC                        l5707 0FA8                        l5651 0C5C  
                      l5643 0C2E                        l5627 0B50                        l5635 0BCC  
                      l5619 0A8E                        l5571 0906                        l5563 08D2  
                      l5555 0898                        l6355 2E74                        l5803 2C28  
                      l6347 236C                        l6099 20C2                        l4941 1C6A  
                      l4933 1C4E                        l4917 1BB4                        l4925 1C0A  
                      l4909 1B66                        l4861 1A24                        l4853 19EC  
                      l4845 19A6                        l4837 1988                        l4829 193A  
                      l4781 1882                        l4773 1852                        l4765 1832  
                      l4757 1808                        l4749 17D8                        l5397 3C8C  
                      l5389 3C6C                        l5477 3326                        l5469 3266  
                      l5493 43DC                        l5485 43AC                        l5741 1132  
                      l5733 10BE                        l5725 109C                        l5717 107A  
                      l5709 1020                        l5661 0CA6                        l5653 0C74  
                      l5645 0C36                        l5637 0C08                        l5629 0B84  
                      l5581 094C                        l5565 08E2                        l5573 090A  
                      l5557 089C                        l5549 0874                        l6357 2EE8  
                      l5821 2CBA                        l5813 2C48                        l5805 2C30  
                      l6349 17AC                        l4951 44E4                        l4943 1C78  
                      l4935 1C5C                        l4927 1C1A                        l4919 1BC0  
                      l4863 1A28                        l4855 19FC                        l4847 19C8  
                      l4871 1A48                        l4839 198C                        l4791 18BE  
                      l4783 1892                        l4775 1860                        l4767 1838  
                      l4759 1818                        l5399 3C9C                        l5479 334E  
                      l5487 43C0                        l5495 43E0                        l5751 11AC  
                      l5743 1166                        l5735 10D0                        l5727 10A0  
                      l5719 107E                        l5663 0CBA                        l5671 0DB0  
                      l5655 0C86                        l5647 0C3C                        l5639 0C18  
                      l5583 0954                        l5575 0930                        l5591 0992  
                      l5567 08F2                        l5559 08C0                        l5831 2D4E  
                      l5823 2CD2                        l5807 2C32                        l5815 2C7C  
                      l5903 4448                        l4953 44F6                        l5497 356E  
                      l4945 1C7A                        l4937 1C62                        l4929 1C2A  
                      l4873 1A6E                        l4881 1AC4                        l4865 1A36  
                      l4857 1A0A                        l4849 19D8                        l4793 18CC  
                      l4785 1894                        l4777 1862                        l4769 184A  
                      l5489 43CC                        l5761 1218                        l5753 11B4  
                      l5745 116E                        l5737 10D4                        l5729 10A6  
                      l5681 0E7C                        l5673 0DCE                        l5665 0D1E  
                      l5649 0C4E                        l5657 0C8E                        l5593 09B8  
                      l5585 0968                        l5577 0942                        l5569 08FE  
                      l5841 2D8E                        l5825 2CE0                        l5817 2C8E  
                      l5809 2C3E                        l5905 4450                        l5921 4436  
                      l5913 43FC                        l4955 44FA                        l5499 3592  
                      l4971 287C                        l4963 2850                        l4939 1C64  
                      l4891 1B18                        l4883 1AEA                        l4875 1AA2  
                      l4867 1A38                        l4859 1A18                        l4795 18D0  
                      l4779 1872                        l4787 189C                        l5771 1264  
                      l5755 11C2                        l5739 10DA                        l5747 1172  
                      l5691 0F2C                        l5683 0E8C                        l5675 0E02  
                      l5667 0D76                        l5659 0C96                        l5595 09CA  
                      l5587 0972                        l5579 0946                        l5851 2DF6  
                      l5843 2D98                        l5835 2D66                        l5827 2CFC  
                      l5819 2CB2                        l5907 446A                        l5915 440E  
                      l4949 44D8                        l4981 28B6                        l4973 288C  
                      l4965 285C                        l4893 1B26                        l4885 1AFA  
                      l4877 1AA4                        l4869 1A42                        l4797 18D4  
                      l4789 18AC                        l5765 122A                        l5773 1282  
                      l5757 11F2                        l5749 1190                        l5693 0F60  
                      l5685 0E9C                        l5677 0E36                        l5669 0DAA  
                      l5597 09CE                        l4957 466C                        l5861 2E9A  
                      l5853 2E2A                        l5837 2D74                        l5829 2D18  
                      l5909 4486                        l5917 4416                        l5925 3370  
                      l5941 24E4                        l5933 248E                        l4991 28E2  
                      l4983 28BC                        l4975 289C                        l4967 286A  
                      l4895 1B28                        l4879 1AB4                        l4799 18D8  
                      l5775 1292                        l5767 1240                        l5759 1200  
                      l5695 0F74                        l5687 0ED0                        l5679 0E4A  
                      l5599 09D4                        l4959 4688                        l5791 40DE  
                      l5783 4060                        l5839 2D86                        l5847 2DA2  
                      l5919 441E                        l5951 2652                        l5943 2508  
                      l5935 24AE                        l4993 28F2                        l4985 28C2  
                      l4977 289E                        l4969 286C                        l4897 1B36  
                      l4889 1B0E                        l5777 12A8                        l5769 1246  
                      l5689 0F28                        l5697 0F78                        l5793 40E6  
                      l5785 4068                        l5857 2E5E                        l5849 2DD6  
                      l5873 2F04                        l5961 26E0                        l5953 2662  
                      l5945 2574                        l5937 24C4                        l5929 2F2C  
                      l4995 2902                        l4987 28D0                        l4979 28A6  
                      l4899 1B3E                        l5779 12B0                        l5699 0F88  
                      l5787 408A                        l5867 2EC8                        l5859 2E8A  
                      l5795 2BEA                        l5971 283A                        l5963 274C  
                      l5955 2694                        l5947 259A                        l5939 24C6  
                      l4997 2904                        l4989 28D2                        l5789 40BE  
                      l5869 2EF6                        l5797 2C0E                        l5981 465E  
                      l5965 2772                        l5949 25F2                        l4999 290C  
                      l5799 2C16                        l5967 27CA                        l5959 26BC  
                      l5991 1318                        l5983 12D2                        l5969 2822  
                      l5993 132E                        l5985 12E2                        l5979 463C  
                      l5987 12F8                        l5997 1342                        l5989 12FA  
                      STR_1 0857                        STR_2 086C                        STR_3 0841  
                      STR_4 085E                        STR_5 0870                        STR_6 0864  
                      STR_9 0868                        u5100 3BA2                        u5020 3AFC  
                      u5101 3B9C                        u5021 3AF6                        u5005 3AE2  
                      u5015 3AEA                        u5040 3B42                        u5120 42A4  
                      u6000 2ABE                        u5041 3B3C                        u6001 2ABA  
                      u5130 42D6                        u6010 2AEC                        u5115 3BA4  
                      u5035 3AFE                        u6011 2AE8                        u5060 3B5E  
                      u5140 42E6                        u6020 2B02                        u6100 1CC8  
                      u5061 3B58                        u5141 42E2                        u6021 2AFE  
                      u6101 1CC4                        u6030 2B16                        u6110 1D08  
                      u5055 3B44                        u5127 429A                        u6031 2B12  
                      u6111 1D04                        u5080 3B7E                        u6040 2B30  
                      u6200 1FA4                        u6120 1D1A                        u7000 0B3C  
                      u5081 3B78                        u5137 42CC                        u6041 2B2C  
                      u6201 1FA0                        u6121 1D16                        u7001 0B38  
                      u5410 3EE4                        u6050 2B78                        u6210 1FBA  
                      u6130 1D2A                        u7010 0BC8                        u5075 3B60  
                      u5411 3EE0                        u6051 2B74                        u6211 1FB6  
                      u6131 1D26                        u7011 0BC4                        u6300 400C  
                      u5420 3EF6                        u6060 2BA8                        u6220 1FCE  
                      u6140 1D60                        u5500 1872                        u7100 0E8C  
                      u7020 0C00                        u6301 4008                        u5421 3EF2  
                      u6061 2BA4                        u6221 1FCA                        u6141 1D5C  
                      u5501 186E                        u7101 0E88                        u7021 0BFC  
                      u4630 391E                        u6310 4028                        u5430 3F1E  
                      u6070 2BD6                        u6230 1FE8                        u6150 1D70  
                      u5510 1882                        u7110 0F28                        u7030 0C18  
                      u5095 3B80                        u4631 3918                        u6311 4024  
                      u5431 3F1A                        u6071 2BD2                        u6231 1FE4  
                      u6151 1D6C                        u5511 187E                        u7111 0F24  
                      u7031 0C14                        u4800 3A2C                        u4720 3986  
                      u6320 404E                        u5440 3F54                        u6400 4232  
                      u6240 2030                        u6160 1EEA                        u6080 1CA6  
                      u5600 19C8                        u5520 18BE                        u7200 1214  
                      u7120 0F74                        u7040 0C4E                        u4801 3A26  
                      u4721 3980                        u4705 396C                        u6321 404A  
                      u5441 3F50                        u6401 422E                        u6241 202C  
                      u6081 1CA2                        u5601 19C4                        u5521 18BA  
                      u7121 0F70                        u7041 0C4A                        u6330 4128  
                      u6410 4266                        u6250 205E                        u6170 1F44  
                      u6090 1CB8                        u5610 19D8                        u5530 18CC  
                      u5450 17E6                        u7210 1226                        u7130 1020  
                      u7050 0C5C                        u4715 3974                        u6331 4124  
                      u6411 4262                        u6251 205A                        u6171 1F40  
                      u6091 1CB4                        u5611 19D4                        u5531 18C8  
                      u5451 17E2                        u7211 1222                        u7131 101C  
                      u7051 0C58                        u4740 39CC                        u4660 3944  
                      u6340 4142                        u6420 3CFE                        u6260 2098  
                      u6180 1F64                        u5700 1B36                        u5620 1A0A  
                      u5540 193A                        u5460 17F8                        u6500 3C40  
                      u7220 1264                        u7140 105C                        u7060 0C86  
                      u7300 2CFC                        u4900 38BA                        u4820 373A  
                      u4741 39C6                        u4661 393E                        u4645 3920  
                      u6341 413E                        u6421 3CFA                        u6261 2094  
                      u6181 1F60                        u6165 1EE0                        u5701 1B32  
                      u5621 1A06                        u5541 1936                        u5461 17F4  
                      u6501 3C3C                        u7221 1260                        u7141 1058  
                      u7061 0C82                        u7301 2CF8                        u4901 38B6  
                      u4821 3736                        u6270 3FAE                        u6350 415C  
                      u6430 3D3C                        u6190 1F76                        u5710 1B52  
                      u5630 1A18                        u5550 1952                        u5470 1808  
                      u6510 3C54                        u7230 1282                        u7150 106A  
                      u7070 0DCE                        u7310 2D18                        u4910 38C8  
                      u4830 3748                        u4815 3A2E                        u4735 3988  
                      u4655 3928                        u6271 3FAA                        u6351 4158  
                      u6431 3D38                        u6191 1F72                        u5711 1B4E  
                      u5631 1A14                        u5551 194C                        u5471 1804  
                      u6511 3C50                        u7231 127E                        u7151 1066  
                      u7071 0DCA                        u7311 2D14                        u4911 38C4  
                      u4831 3744                        u4760 39E8                        u6280 3FC8  
                      u6360 417A                        u6440 3D5A                        u5800 1C2A  
                      u5720 1B62                        u5640 1A36                        u5560 1954  
                      u5480 184A                        u6520 3C7C                        u6600 3E5A  
                      u7240 1292                        u7160 10BE                        u7080 0E36  
                      u7320 2DF2                        u4840 37A4                        u7400 12F6  
                      u4761 39E2                        u6281 3FC4                        u6361 4176  
                      u6441 3D56                        u5801 1C26                        u5721 1B5E  
                      u5641 1A32                        u5481 1846                        u6521 3C78  
                      u6601 3E56                        u7241 128E                        u7161 10BA  
                      u7081 0E32                        u7321 2DEE                        u4841 37A0  
                      u4930 3A94                        u4690 396A                        u6290 3FEE  
                      u6370 4190                        u6450 3D7A                        u5810 1C4A  
                      u5730 1B74                        u5650 1A6E                        u5570 197C  
                      u5490 1860                        u6530 3C9C                        u6610 3E84  
                      u7170 1190                        u7090 0E7C                        u7250 408A  
                      u7330 4486                        u4850 37FA                        u7410 1318  
                      u4931 3A8E                        u4755 39CE                        u4691 3964  
                      u4675 3946                        u6291 3FEA                        u6371 418C  
                      u6451 3D76                        u5811 1C46                        u5731 1B70  
                      u5651 1A6A                        u5571 1978                        u5491 185C  
                      u6531 3C98                        u6611 3E80                        u7171 118C  
                      u7091 0E78                        u7251 4086                        u7331 4482  
                      u4851 37F6                        u7411 1314                        u4780 3A08  
                      u6380 41B4                        u5900 28F2                        u6460 3DCA  
                      u5820 1C5C                        u5740 1B8A                        u5660 1AB4  
                      u5580 199A                        u6540 3CAC                        u7180 11AC  
                      u7260 410C                        u4860 3844                        u7340 24C0  
                      u7500 1606                        u7420 132E                        u4781 3A02  
                      u4685 394E                        u6381 41B0                        u5901 28EE  
                      u6461 3DC6                        u5821 1C58                        u5741 1B86  
                      u5661 1AB0                        u5581 1996                        u6541 3CA8  
                      u7181 11A8                        u7261 4108                        u4861 3840  
                      u7341 24BA                        u7501 1602                        u7421 132A  
                      u6550 42F6                        u5910 2932                        u6390 41F4  
                      u6470 45B2                        u5830 1C78                        u5750 1BA0  
                      u5670 1AEA                        u5590 19BA                        u6630 3EBE  
                      u6710 3262                        u7190 1212                        u7270 2C0E  
                      u4870 3862                        u7350 24C2                        u7510 16A0  
                      u7430 1388                        u4775 39EA                        u6551 42F2  
                      u5911 292E                        u6391 41F0                        u6471 45AE  
                      u5831 1C74                        u5751 1B9C                        u5671 1AE6  
                      u5591 19B6                        u6631 3EB8                        u6711 325E  
                      u7191 120C                        u7271 2C0A                        u4871 385E  
                      u7511 169C                        u7431 1384                        u4960 3ABA  
                      u5840 451A                        u6560 4340                        u6800 3592  
                      u5920 2972                        u5760 1BB4                        u5680 1AFA  
                      u6480 3BDE                        u6640 3EC0                        u6720 3286  
                      u7280 2C8E                        u4880 3872                        u7360 24E4  
                      u7440 13A6                        u7520 20DA                        u4961 3AB4  
                      u4945 3A96                        u5841 4516                        u6561 433C  
                      u6801 358E                        u5921 296E                        u5761 1BB0  
                      u5681 1AF6                        u6481 3BDA                        u6625 3E96  
                      u6705 320A                        u7281 2C8A                        u4881 386E  
                      u7361 24E0                        u7441 13A2                        u7521 20D6  
                      u6570 4616                        u6810 35A6                        u5930 29E8  
                      u5850 286A                        u5770 1BCE                        u5690 1B26  
                      u6490 3C12                        u6730 32A2                        u6706 3214  
                      u6650 4598                        u7290 2CB2                        u4890 3880  
                      u7370 2662                        u7450 13B6                        u7530 20F6  
                      u4955 3A9E                        u4795 3A0A                        u6571 4612  
                      u6811 35A2                        u5931 29E4                        u5851 2866  
                      u5771 1BCA                        u5691 1B22                        u6731 329E  
                      u6707 3224                        u6651 4594                        u7291 2CAE  
                      u4891 387C                        u7371 265E                        u7451 13B2  
                      u7531 20F2                        u6820 35D2                        u5940 2A0A  
                      u5860 287C                        u5780 1C08                        u6580 3E14  
                      u6740 32F6                        u6660 4364                        u6900 0898  
                      u7380 284A                        u7460 146E                        u7540 2116  
                      u6821 35CE                        u5941 2A06                        u5861 2878  
                      u5781 1C04                        u6725 327C                        u6661 4360  
                      u6901 0894                        u7381 2846                        u7461 146A  
                      u7541 2112                        u4990 3AE0                        u6830 35E8  
                      u5950 2A34                        u5870 288C                        u5790 1C1A  
                      u6590 3E32                        u6750 3312                        u6670 31A6  
                      u6910 08E2                        u7470 1534                        u7390 12F4  
                      u7550 23DE                        u4991 3ADA                        u4975 3ABC  
                      u6831 35E4                        u5951 2A30                        u5871 2888  
                      u5791 1C16                        u6495 3C08                        u6591 3E2E  
                      u6751 330E                        u6911 08DE                        u7471 1530  
                      u7391 12EE                        u7551 23DA                        u7607 23AE  
                      u6840 368A                        u5960 2A58                        u5880 28D0  
                      u6760 334E                        u6680 31D4                        u6920 08F2  
                      u7480 1552                        u7560 245C                        u4985 3AC4  
                      u7617 38E6                        u6841 3686                        u5961 2A54  
                      u5881 28CC                        u6585 3E0A                        u6761 334A  
                      u6745 32EC                        u6681 31D0                        u6921 08EE  
                      u7481 154E                        u7561 2458                        u6850 369C  
                      u5970 2A6E                        u5890 28E2                        u6690 31F6  
                      u6770 43FA                        u6930 0930                        u7490 1562  
                      u7570 247E                        u7707 46B8                        u7627 38F8  
                      u6851 3698                        u5971 2A6A                        u5891 28DE  
                      u6691 31F2                        u6675 319C                        u6771 43F6  
                      u6931 092C                        u7491 155E                        u7571 247A  
                      u6860 36B6                        u6780 357E                        u5980 2A8C  
                      u6940 0942                        u7717 3A5C                        u7637 398E  
                      u6861 36B2                        u6781 3578                        u5981 2A88  
                      u6941 093E                        u6870 36D0                        u6790 3580  
                      u5990 2AAC                        u6950 09B8                        u7727 3A6E  
                      u7647 39A0                        u6871 36CC                        u5991 2AA8  
                      u6951 09B4                        u6880 36E0                        u6960 09CA  
                      u7737 3B04                        u7657 39B2                        u6881 36DC  
                      u6961 09C6                        u6890 36F0                        u6970 0A40  
                      u7747 3B16                        u7667 3A34                        u6891 36EC  
                      u6971 0A3C                        u7587 2144                        u6980 0ACC  
                      u7757 3B28                        u7677 3A46                        u6981 0AC8  
                      u7597 2306                        u6990 0B00                        u7767 3BAA  
                      u7687 452A                        u6991 0AFC                        u7777 3BBC  
                      u7697 4556                        abs@a 0007                        _dbuf 0116  
                      _half 081D                        _labs 4356                        _cosf 12D2  
                      _main 20B6                        _dtoa 356E                        _prec 0112  
                      pad@i 0018                        pad@p 0015                        fsr1h 0FE2  
                      fsr2h 0FDA                        indf1 0FE7                        indf2 0FDF  
                      fsr1l 0FE1                        fsr2l 0FD9               ___fpclassifyf 3DD4  
                      prodh 0FF4                        prodl 0FF3                        start 0000  
           ___fldiv@new_exp 0020                ___param_bank 0000                       ??_abs 0009  
                     ??_pad 0017            __end_of_LCD_Char 3A52            __end_of_LCD_Init 4560  
              LCD_Char@data 0003               ___fltol@sign1 0059                       ?_labs 0001  
                     ?_cosf 009A             __end_of___fladd 1C8C                       ?_main 0001  
                     ?_dtoa 001A             __end_of___fldiv 2BEA             __end_of___awdiv 4060  
           __end_of___cosdf 356E             __end_of___flneg 45D4                       _CCPR1 0FBE  
           __end_of___awmod 41C6             __end_of___flmul 20B6             __end_of___flsub 44D8  
           __end_of___fltol 3CCE             ___awdiv@divisor 0003                       _T1CON 0FCD  
           __end_of___sindf 315E                ___sindf$1102 0068                ___sindf$1103 006C  
              ___sindf$1104 0070             ___awdiv@counter 0005                vfpfcnvrt@fmt 00F7  
                     _TRISC 0F94                       _TRISD 0F95                 LCD_String@i 0008  
           __end_of_pio2_1t 0815                       _fabsf 45D4                       _flags 00FE  
       read_prec_or_width@c 000C         read_prec_or_width@n 000D                       _fputc 3ED2  
                     _fputs 44D8                       labs@a 0001                       pad@fp 0011  
                     cosf@n 00A6                       cosf@x 009A                       _width 0110  
                     cosf@y 00AC             __end_of_invpio2 081D           __end_of_CCP1_Init 46CC  
                     _putch 46CC                       main@i 01A3                       dtoa@d 001C  
                     dtoa@i 0025                       dtoa@p 0020                       dtoa@s 0024  
                     dtoa@w 0022                       tablat 0FF5                       status 0FD8  
           __end_of_sprintf 4448              ?___fpclassifyf 0001             __initialization 4692  
              __end_of_half 0821                __end_of_labs 43AC                __end_of_cosf 17CC  
              __end_of_main 248E                __end_of_dtoa 3728                      ??_labs 0005  
                    ??_cosf 005D                      ??_main 00FC                      ??_dtoa 001E  
         __end_of_LCD_Clear 46C2               __activetblptr 0002  __end_of_read_prec_or_width 4116  
                    ?_fabsf 0001                      _CCP1IF 7CF2                      ?_fputc 0001  
                    ?_fputs 000A            ___awdiv@dividend 0001                      ?_putch 0001  
             ___rem_pio2f@n 0096               ___rem_pio2f@t 0092               ___rem_pio2f@x 007C  
             ___rem_pio2f@y 0080               vfpfcnvrt@done 0166                      _TRISB6 7C9E  
                    _TRISB7 7C9F            __end_of___xxtofl 38DC                      _c1pio2 083D  
                    _c2pio2 0839                      _c3pio2 0835                      _c4pio2 0831  
              vfprintf@cfmt 005F                      ___flge 3CCE                      ___fleq 41C6  
                 ??___fladd 0049                      ___wmul 466C                   ??___fldiv 0017  
                 ??___awdiv 0005                   ??___cosdf 0055                   ??___flneg 0055  
                 ??___awmod 0005                   ??___flmul 0030                   ??___flsub 0059  
                 ??___fltol 0055                      _efgtoa 0874                   ??___sindf 005D  
                    _pio2_1 0815                      _floorf 315E                      fabsf@u 0005  
                    fabsf@x 0001                      _memcpy 43AC        read_prec_or_width@ap 0008  
                    clear_0 4698            ___awdiv@quotient 0007             ___awmod@divisor 0003  
                    isa$std 0001             ___awmod@counter 0005                      pad@buf 0013  
                    cosf@ix 00B0                      main@dt 0195                      dtoa@fp 001A  
                    _strcpy 4560                      fputc@c 0001                      fputs@c 000E  
                    fputs@i 000F                      fputs@s 000A             ___fpclassifyf@e 0009  
           ___fpclassifyf@u 000B             ___fpclassifyf@x 0001                __mediumconst 0000  
                    tblptrh 0FF7                      tblptrl 0FF6                      tblptru 0FF8  
                    putch@c 0001            __end_of_vfprintf 4492               main@startTime 01A9  
                 ??_sprintf 0060                  ___flge@ff1 00B4             ??___fpclassifyf 0005  
                ___flge@ff2 00B8                ___xxtofl@arg 000B                ___xxtofl@exp 000A  
              ___xxtofl@val 0001                  ___fleq@ff1 0001                  ___fleq@ff2 0005  
                 ?_LCD_Char 0001                  __accesstop 0060     __end_of__initialization 46A2  
                 ?_LCD_Init 0001                  ___flneg@f1 0078               ___rparam_used 0001  
                ___fltol@f1 0051              __pcstackCOMRAM 0001               __end_of_fabsf 4608  
             __end_of_fputc 3F9C               __end_of_fputs 451C               __end_of_putch 46CE  
              ??_LCD_String 0006                  __end_of_C0 0831                  __end_of_C1 082D  
                __end_of_C2 0829                  __end_of_C3 0825                  __end_of_S1 0811  
                __end_of_S2 080D                  __end_of_S3 0809                  __end_of_S4 0805  
                   ??_fabsf 0005                     ??_fputc 0005                     ??_fputs 000E  
                   ??_putch 0001                  __pbssBANK0 00FE                  __pbssBANK1 0100  
                ??_LCD_Char 0001                  ??_LCD_Init 0004          __end_of_LCD_String 42E8  
                _efgtoa$788 00CF                     ?___flge 00B4                     ?___fleq 0001  
                   ?___wmul 0001                     ?_efgtoa 00C0               ??___rem_pio2f 005B  
                   _CCP1CON 0FBD                     ?_floorf 0028                     ?_memcpy 0001  
                   ?_strcpy 0001                   ?___xxtofl 0001              ___rem_pio2f@fn 008E  
            ___rem_pio2f@ty 0081              ___rem_pio2f@ux 008A                   _CCP1_Init 46C2  
             LCD_String@str 0004                     __Hparam 0000                     __Lparam 0000  
                   ___fladd 17CC                     ___fldiv 2850                     ___awdiv 3F9C  
                   ___cosdf 3370                     ___flneg 459A                     ___awmod 4116  
                   ___flmul 1C8C                     ___flsub 4492                     ___fltol 3BC8  
                   ___sindf 2F2C                   ?_vfprintf 016D                __psmallconst 0800  
                   __pcinit 4692                     __ramtop 0800                     __ptext0 20B6  
                   __ptext1 12D2                     __ptext2 2F2C                     __ptext3 248E  
                   __ptext4 45D4                     __ptext5 3728                     __ptext6 3370  
                   __ptext7 463C                     __ptext8 43FC                     __ptext9 4448  
                   _pio2_1t 0811       read_prec_or_width@fmt 0007                  ??___xxtofl 0005  
       __end_of___rem_pio2f 2850            ___awmod@dividend 0001           ??_LCD_value_float 0060  
                   _invpio2 0819                     efgtoa@c 00C6                     efgtoa@d 00D4  
                   efgtoa@e 00D8                     efgtoa@f 00C2                     efgtoa@g 00EB  
                   efgtoa@h 00E0                     efgtoa@i 00E8                     efgtoa@l 00E4  
                   efgtoa@m 00D6                     efgtoa@n 00EF                     efgtoa@p 00CB  
                   efgtoa@t 00CD                     efgtoa@u 00F1                     efgtoa@w 00DE  
                 _LCD_Clear 46AC                     _sprintf 43FC            ___rem_pio2f$1101 0085  
      end_of_initialization 46A2                     floorf@e 0036                     floorf@m 0032  
                   floorf@u 0038                     floorf@x 0028                     memcpy@d 0008  
                   memcpy@n 0005                     memcpy@s 000A                     fputc@fp 0003  
          ___rem_pio2f@F526 010C              LCD_Command@cmd 0003               __Lmediumconst 0000  
                   fputs@fp 000C                  ?_CCP1_Init 0001          _read_prec_or_width 4060  
          ___rem_pio2f@sign 0089           __end_of_vfpfcnvrt 2F2C                  efgtoa@mode 00D2  
                efgtoa@sign 00EA                     postdec2 0FDD         ?_read_prec_or_width 0007  
            main@pulseWidth 019D                     postinc0 0FEE                     postinc1 0FE6  
                   postinc2 0FDE            vfpfcnvrt@convarg 0167                  ??_vfprintf 005F  
                   strcpy@d 0005                 ___fladd@grs 0050               ___xxtofl@sign 0009  
                ?_LCD_Clear 0001        ??_read_prec_or_width 000A                 ___fldiv@grs 0022  
               ___fldiv@rem 001B                 ___flmul@grs 0036              __end_of_c1pio2 0841  
            __end_of_c2pio2 083D              __end_of_c3pio2 0839              __end_of_c4pio2 0835  
             ??_LCD_Command 0001              __end_of___flge 3DD4              __end_of___fleq 4270  
               vfpfcnvrt@ap 00F8                 vfpfcnvrt@cp 016C                 ___rem_pio2f 248E  
               vfpfcnvrt@fp 00F5              __end_of___wmul 4692              __end_of_efgtoa 12D2  
            __end_of_pio2_1 0819              __end_of_floorf 3370              __end_of_memcpy 43FC  
                floorf@F521 0100              __end_of_strcpy 459A         start_initialization 4692  
               __end_of_abs 463C                 __end_of_pad 4356       __end_of___fpclassifyf 3ED2  
               ??_CCP1_Init 0001                 vfprintf@fmt 016F                    ??___flge 00BC  
                  ??___fleq 0009                    ??___wmul 0005                    ??_efgtoa 00C7  
                  ??_floorf 002C                    ??_memcpy 0007                    ??_strcpy 0004  
                 ___fladd@a 0045                   ___fladd@b 0041                   ___fldiv@a 0013  
                 ___fldiv@b 000F                   ___cosdf@r 0060                   ___cosdf@w 0070  
                 ___cosdf@x 0051                   ___cosdf@z 0074         __end_of_LCD_Command 3BC8  
                 ___flmul@a 002C                   ___flmul@b 0028                   ___flsub@a 0055  
                 ___flsub@b 0051               __pcstackBANK0 0060               __pcstackBANK1 0166  
               ??_LCD_Clear 0004                   ___sindf@r 0060                   ___sindf@s 0074  
                 ___sindf@w 0064                   ___sindf@x 0059                   ___sindf@z 0078  
                 _cosf$1097 00A7                   _main$1095 019F                   _main$1096 0199  
                  ?___fladd 0041             _LCD_value_float 463C                    ?___fldiv 000F  
                  ?___awdiv 0001                    ?___cosdf 0051                    ?___flneg 0078  
                  ?___awmod 0001                    ?___flmul 0028                    ?___flsub 0051  
                  ?___fltol 0051                    ?___sindf 0059                   fabsf@F465 0108  
               __smallconst 0800                    ?_sprintf 0172                    _LCD_Char 38DC  
                  _LCD_Init 451C              ___wmul@product 0005                 _LCD_Command 3A52  
                 _vfpfcnvrt 2BEA           ___wmul@multiplier 0001                   main@angle 01A5  
                vfpfcnvrt@c 016B     __end_of_LCD_value_float 466C                    __Hrparam 0000  
                 memcpy@tmp 0007                  vfprintf@ap 0170                    __Lrparam 0000  
                vfprintf@fp 016D                ?___rem_pio2f 007C                  ?_vfpfcnvrt 00F5  
        ___fpclassifyf@F465 0104                  sprintf@fmt 0174                    ___xxtofl 3728  
                  _cosf$590 00A2                    _cosf$589 009E                    _dtoa$757 001E  
                  __ptext10 2BEA                    __ptext11 4060                    __ptext20 4492  
                  __ptext12 466C                    __ptext21 17CC                    __ptext13 0874  
                  __ptext30 3ED2                    __ptext22 459A                    __ptext14 4560  
                  __ptext31 46CC                    __ptext23 1C8C                    __ptext15 43AC  
                  __ptext40 46C2                    __ptext32 4608                    __ptext24 3CCE  
                  __ptext16 4356                    __ptext33 4116                    __ptext25 41C6  
                  __ptext17 315E                    __ptext34 3F9C                    __ptext26 2850  
                  __ptext18 3DD4                    __ptext35 4270                    __ptext27 356E  
                  __ptext19 3BC8                    __ptext36 38DC                    __ptext28 42E8  
                  __ptext37 451C                    __ptext29 44D8                    __ptext38 46AC  
                  __ptext39 3A52                  strcpy@dest 0001            LCD_value_float@a 0187  
          LCD_value_float@r 018B                    efgtoa@fp 00C0                    efgtoa@ne 00C9  
                  efgtoa@pp 00D1                    efgtoa@ou 00DA                    isa$xinst 0000  
                  cosf@sign 00AB                    _vfprintf 4448                  _LCD_String 4270  
                  memcpy@d1 0001                    memcpy@s1 0003                   sprintf@ap 0179  
                 strcpy@src 0003            ?_LCD_value_float 0187                 efgtoa@nmode 00D3  
               ??_vfpfcnvrt 00FA                    sprintf@f 017B                    sprintf@s 0172  
             ___fladd@signs 004D                ___fladd@aexp 004E                ___fladd@bexp 004F  
              ___cosdf$1100 006C                ___cosdf$1098 0064                ___cosdf$1099 0068  
